
homework2.elf:     file format elf32-littleriscv


Disassembly of section .text:

00010094 <exit>:
   10094:	ff010113          	addi	sp,sp,-16
   10098:	00000593          	li	a1,0
   1009c:	00812423          	sw	s0,8(sp)
   100a0:	00112623          	sw	ra,12(sp)
   100a4:	00050413          	mv	s0,a0
   100a8:	5ad030ef          	jal	ra,13e54 <__call_exitprocs>
   100ac:	2281a503          	lw	a0,552(gp) # 23ae8 <_global_impure_ptr>
   100b0:	03c52783          	lw	a5,60(a0)
   100b4:	00078463          	beqz	a5,100bc <exit+0x28>
   100b8:	000780e7          	jalr	a5
   100bc:	00040513          	mv	a0,s0
   100c0:	3d50d0ef          	jal	ra,1dc94 <_exit>

000100c4 <register_fini>:
   100c4:	00000793          	li	a5,0
   100c8:	00078863          	beqz	a5,100d8 <register_fini+0x14>
   100cc:	00000517          	auipc	a0,0x0
   100d0:	2bc50513          	addi	a0,a0,700 # 10388 <__libc_fini_array>
   100d4:	2a00006f          	j	10374 <atexit>
   100d8:	00008067          	ret

000100dc <_start>:
   100dc:	00013197          	auipc	gp,0x13
   100e0:	7e418193          	addi	gp,gp,2020 # 238c0 <__global_pointer$>
   100e4:	24418513          	addi	a0,gp,580 # 23b04 <completed.1>
   100e8:	57018613          	addi	a2,gp,1392 # 23e30 <__BSS_END__>
   100ec:	40a60633          	sub	a2,a2,a0
   100f0:	00000593          	li	a1,0
   100f4:	31d000ef          	jal	ra,10c10 <memset>
   100f8:	00000517          	auipc	a0,0x0
   100fc:	29050513          	addi	a0,a0,656 # 10388 <__libc_fini_array>
   10100:	274000ef          	jal	ra,10374 <atexit>
   10104:	2e0000ef          	jal	ra,103e4 <__libc_init_array>
   10108:	00012503          	lw	a0,0(sp)
   1010c:	00410593          	addi	a1,sp,4
   10110:	00000613          	li	a2,0
   10114:	124000ef          	jal	ra,10238 <main>
   10118:	f7dff06f          	j	10094 <exit>

0001011c <__do_global_dtors_aux>:
   1011c:	ff010113          	addi	sp,sp,-16
   10120:	00812423          	sw	s0,8(sp)
   10124:	24418413          	addi	s0,gp,580 # 23b04 <completed.1>
   10128:	00044783          	lbu	a5,0(s0)
   1012c:	00112623          	sw	ra,12(sp)
   10130:	02079263          	bnez	a5,10154 <__do_global_dtors_aux+0x38>
   10134:	00000793          	li	a5,0
   10138:	00078a63          	beqz	a5,1014c <__do_global_dtors_aux+0x30>
   1013c:	00013517          	auipc	a0,0x13
   10140:	ec450513          	addi	a0,a0,-316 # 23000 <__EH_FRAME_BEGIN__>
   10144:	00000097          	auipc	ra,0x0
   10148:	000000e7          	jalr	zero # 0 <exit-0x10094>
   1014c:	00100793          	li	a5,1
   10150:	00f40023          	sb	a5,0(s0)
   10154:	00c12083          	lw	ra,12(sp)
   10158:	00812403          	lw	s0,8(sp)
   1015c:	01010113          	addi	sp,sp,16
   10160:	00008067          	ret

00010164 <frame_dummy>:
   10164:	00000793          	li	a5,0
   10168:	00078c63          	beqz	a5,10180 <frame_dummy+0x1c>
   1016c:	28818593          	addi	a1,gp,648 # 23b48 <object.0>
   10170:	00013517          	auipc	a0,0x13
   10174:	e9050513          	addi	a0,a0,-368 # 23000 <__EH_FRAME_BEGIN__>
   10178:	00000317          	auipc	t1,0x0
   1017c:	00000067          	jr	zero # 0 <exit-0x10094>
   10180:	00008067          	ret

00010184 <removeElements>:
   10184:	fd010113          	addi	sp,sp,-48
   10188:	02812623          	sw	s0,44(sp)
   1018c:	03010413          	addi	s0,sp,48
   10190:	fca42e23          	sw	a0,-36(s0)
   10194:	fcb42c23          	sw	a1,-40(s0)
   10198:	0100006f          	j	101a8 <removeElements+0x24>
   1019c:	fdc42783          	lw	a5,-36(s0)
   101a0:	0047a783          	lw	a5,4(a5)
   101a4:	fcf42e23          	sw	a5,-36(s0)
   101a8:	fdc42783          	lw	a5,-36(s0)
   101ac:	00078a63          	beqz	a5,101c0 <removeElements+0x3c>
   101b0:	fdc42783          	lw	a5,-36(s0)
   101b4:	0007a783          	lw	a5,0(a5)
   101b8:	fd842703          	lw	a4,-40(s0)
   101bc:	fef700e3          	beq	a4,a5,1019c <removeElements+0x18>
   101c0:	fdc42783          	lw	a5,-36(s0)
   101c4:	06078063          	beqz	a5,10224 <removeElements+0xa0>
   101c8:	fdc42783          	lw	a5,-36(s0)
   101cc:	fef42623          	sw	a5,-20(s0)
   101d0:	fdc42783          	lw	a5,-36(s0)
   101d4:	0047a783          	lw	a5,4(a5)
   101d8:	fef42423          	sw	a5,-24(s0)
   101dc:	0400006f          	j	1021c <removeElements+0x98>
   101e0:	fe842783          	lw	a5,-24(s0)
   101e4:	0007a783          	lw	a5,0(a5)
   101e8:	fd842703          	lw	a4,-40(s0)
   101ec:	00f71c63          	bne	a4,a5,10204 <removeElements+0x80>
   101f0:	fe842783          	lw	a5,-24(s0)
   101f4:	0047a703          	lw	a4,4(a5)
   101f8:	fec42783          	lw	a5,-20(s0)
   101fc:	00e7a223          	sw	a4,4(a5)
   10200:	0100006f          	j	10210 <removeElements+0x8c>
   10204:	fec42783          	lw	a5,-20(s0)
   10208:	0047a783          	lw	a5,4(a5)
   1020c:	fef42623          	sw	a5,-20(s0)
   10210:	fe842783          	lw	a5,-24(s0)
   10214:	0047a783          	lw	a5,4(a5)
   10218:	fef42423          	sw	a5,-24(s0)
   1021c:	fe842783          	lw	a5,-24(s0)
   10220:	fc0790e3          	bnez	a5,101e0 <removeElements+0x5c>
   10224:	fdc42783          	lw	a5,-36(s0)
   10228:	00078513          	mv	a0,a5
   1022c:	02c12403          	lw	s0,44(sp)
   10230:	03010113          	addi	sp,sp,48
   10234:	00008067          	ret

00010238 <main>:
   10238:	fc010113          	addi	sp,sp,-64
   1023c:	02112e23          	sw	ra,60(sp)
   10240:	02812c23          	sw	s0,56(sp)
   10244:	04010413          	addi	s0,sp,64
   10248:	fe042623          	sw	zero,-20(s0)
   1024c:	fec42783          	lw	a5,-20(s0)
   10250:	fef42423          	sw	a5,-24(s0)
   10254:	000217b7          	lui	a5,0x21
   10258:	7f478793          	addi	a5,a5,2036 # 217f4 <__clzsi2+0x8c>
   1025c:	0007a803          	lw	a6,0(a5)
   10260:	0047a503          	lw	a0,4(a5)
   10264:	0087a583          	lw	a1,8(a5)
   10268:	00c7a603          	lw	a2,12(a5)
   1026c:	0107a683          	lw	a3,16(a5)
   10270:	0147a703          	lw	a4,20(a5)
   10274:	0187a783          	lw	a5,24(a5)
   10278:	fd042023          	sw	a6,-64(s0)
   1027c:	fca42223          	sw	a0,-60(s0)
   10280:	fcb42423          	sw	a1,-56(s0)
   10284:	fcc42623          	sw	a2,-52(s0)
   10288:	fcd42823          	sw	a3,-48(s0)
   1028c:	fce42a23          	sw	a4,-44(s0)
   10290:	fcf42c23          	sw	a5,-40(s0)
   10294:	00700793          	li	a5,7
   10298:	fef42023          	sw	a5,-32(s0)
   1029c:	fe042223          	sw	zero,-28(s0)
   102a0:	0700006f          	j	10310 <main+0xd8>
   102a4:	00800513          	li	a0,8
   102a8:	1d0000ef          	jal	ra,10478 <malloc>
   102ac:	00050793          	mv	a5,a0
   102b0:	fcf42e23          	sw	a5,-36(s0)
   102b4:	fe442783          	lw	a5,-28(s0)
   102b8:	00279793          	slli	a5,a5,0x2
   102bc:	ff078793          	addi	a5,a5,-16
   102c0:	008787b3          	add	a5,a5,s0
   102c4:	fd07a703          	lw	a4,-48(a5)
   102c8:	fdc42783          	lw	a5,-36(s0)
   102cc:	00e7a023          	sw	a4,0(a5)
   102d0:	fdc42783          	lw	a5,-36(s0)
   102d4:	0007a223          	sw	zero,4(a5)
   102d8:	fec42783          	lw	a5,-20(s0)
   102dc:	00079863          	bnez	a5,102ec <main+0xb4>
   102e0:	fdc42783          	lw	a5,-36(s0)
   102e4:	fef42623          	sw	a5,-20(s0)
   102e8:	01c0006f          	j	10304 <main+0xcc>
   102ec:	fe842783          	lw	a5,-24(s0)
   102f0:	fdc42703          	lw	a4,-36(s0)
   102f4:	00e7a223          	sw	a4,4(a5)
   102f8:	fe842783          	lw	a5,-24(s0)
   102fc:	0047a783          	lw	a5,4(a5)
   10300:	fef42423          	sw	a5,-24(s0)
   10304:	fe442783          	lw	a5,-28(s0)
   10308:	00178793          	addi	a5,a5,1
   1030c:	fef42223          	sw	a5,-28(s0)
   10310:	fe442703          	lw	a4,-28(s0)
   10314:	fe042783          	lw	a5,-32(s0)
   10318:	f8f746e3          	blt	a4,a5,102a4 <main+0x6c>
   1031c:	00600593          	li	a1,6
   10320:	fec42503          	lw	a0,-20(s0)
   10324:	e61ff0ef          	jal	ra,10184 <removeElements>
   10328:	fea42623          	sw	a0,-20(s0)
   1032c:	0280006f          	j	10354 <main+0x11c>
   10330:	fec42783          	lw	a5,-20(s0)
   10334:	0007a783          	lw	a5,0(a5)
   10338:	00078593          	mv	a1,a5
   1033c:	000217b7          	lui	a5,0x21
   10340:	7f078513          	addi	a0,a5,2032 # 217f0 <__clzsi2+0x88>
   10344:	1f9000ef          	jal	ra,10d3c <printf>
   10348:	fec42783          	lw	a5,-20(s0)
   1034c:	0047a783          	lw	a5,4(a5)
   10350:	fef42623          	sw	a5,-20(s0)
   10354:	fec42783          	lw	a5,-20(s0)
   10358:	fc078ce3          	beqz	a5,10330 <main+0xf8>
   1035c:	00000793          	li	a5,0
   10360:	00078513          	mv	a0,a5
   10364:	03c12083          	lw	ra,60(sp)
   10368:	03812403          	lw	s0,56(sp)
   1036c:	04010113          	addi	sp,sp,64
   10370:	00008067          	ret

00010374 <atexit>:
   10374:	00050593          	mv	a1,a0
   10378:	00000693          	li	a3,0
   1037c:	00000613          	li	a2,0
   10380:	00000513          	li	a0,0
   10384:	1ed0306f          	j	13d70 <__register_exitproc>

00010388 <__libc_fini_array>:
   10388:	ff010113          	addi	sp,sp,-16
   1038c:	00812423          	sw	s0,8(sp)
   10390:	00013797          	auipc	a5,0x13
   10394:	d2c78793          	addi	a5,a5,-724 # 230bc <__do_global_dtors_aux_fini_array_entry>
   10398:	00013417          	auipc	s0,0x13
   1039c:	d2840413          	addi	s0,s0,-728 # 230c0 <impure_data>
   103a0:	40f40433          	sub	s0,s0,a5
   103a4:	00912223          	sw	s1,4(sp)
   103a8:	00112623          	sw	ra,12(sp)
   103ac:	40245493          	srai	s1,s0,0x2
   103b0:	02048063          	beqz	s1,103d0 <__libc_fini_array+0x48>
   103b4:	ffc40413          	addi	s0,s0,-4
   103b8:	00f40433          	add	s0,s0,a5
   103bc:	00042783          	lw	a5,0(s0)
   103c0:	fff48493          	addi	s1,s1,-1
   103c4:	ffc40413          	addi	s0,s0,-4
   103c8:	000780e7          	jalr	a5
   103cc:	fe0498e3          	bnez	s1,103bc <__libc_fini_array+0x34>
   103d0:	00c12083          	lw	ra,12(sp)
   103d4:	00812403          	lw	s0,8(sp)
   103d8:	00412483          	lw	s1,4(sp)
   103dc:	01010113          	addi	sp,sp,16
   103e0:	00008067          	ret

000103e4 <__libc_init_array>:
   103e4:	ff010113          	addi	sp,sp,-16
   103e8:	00812423          	sw	s0,8(sp)
   103ec:	01212023          	sw	s2,0(sp)
   103f0:	00013797          	auipc	a5,0x13
   103f4:	cc478793          	addi	a5,a5,-828 # 230b4 <__init_array_start>
   103f8:	00013417          	auipc	s0,0x13
   103fc:	cbc40413          	addi	s0,s0,-836 # 230b4 <__init_array_start>
   10400:	00112623          	sw	ra,12(sp)
   10404:	00912223          	sw	s1,4(sp)
   10408:	40878933          	sub	s2,a5,s0
   1040c:	02878063          	beq	a5,s0,1042c <__libc_init_array+0x48>
   10410:	40295913          	srai	s2,s2,0x2
   10414:	00000493          	li	s1,0
   10418:	00042783          	lw	a5,0(s0)
   1041c:	00148493          	addi	s1,s1,1
   10420:	00440413          	addi	s0,s0,4
   10424:	000780e7          	jalr	a5
   10428:	ff24e8e3          	bltu	s1,s2,10418 <__libc_init_array+0x34>
   1042c:	00013797          	auipc	a5,0x13
   10430:	c9078793          	addi	a5,a5,-880 # 230bc <__do_global_dtors_aux_fini_array_entry>
   10434:	00013417          	auipc	s0,0x13
   10438:	c8040413          	addi	s0,s0,-896 # 230b4 <__init_array_start>
   1043c:	40878933          	sub	s2,a5,s0
   10440:	40295913          	srai	s2,s2,0x2
   10444:	00878e63          	beq	a5,s0,10460 <__libc_init_array+0x7c>
   10448:	00000493          	li	s1,0
   1044c:	00042783          	lw	a5,0(s0)
   10450:	00148493          	addi	s1,s1,1
   10454:	00440413          	addi	s0,s0,4
   10458:	000780e7          	jalr	a5
   1045c:	ff24e8e3          	bltu	s1,s2,1044c <__libc_init_array+0x68>
   10460:	00c12083          	lw	ra,12(sp)
   10464:	00812403          	lw	s0,8(sp)
   10468:	00412483          	lw	s1,4(sp)
   1046c:	00012903          	lw	s2,0(sp)
   10470:	01010113          	addi	sp,sp,16
   10474:	00008067          	ret

00010478 <malloc>:
   10478:	00050593          	mv	a1,a0
   1047c:	2301a503          	lw	a0,560(gp) # 23af0 <_impure_ptr>
   10480:	0100006f          	j	10490 <_malloc_r>

00010484 <free>:
   10484:	00050593          	mv	a1,a0
   10488:	2301a503          	lw	a0,560(gp) # 23af0 <_impure_ptr>
   1048c:	5b10506f          	j	1623c <_free_r>

00010490 <_malloc_r>:
   10490:	fd010113          	addi	sp,sp,-48
   10494:	03212023          	sw	s2,32(sp)
   10498:	02112623          	sw	ra,44(sp)
   1049c:	02812423          	sw	s0,40(sp)
   104a0:	02912223          	sw	s1,36(sp)
   104a4:	01312e23          	sw	s3,28(sp)
   104a8:	01412c23          	sw	s4,24(sp)
   104ac:	01512a23          	sw	s5,20(sp)
   104b0:	01612823          	sw	s6,16(sp)
   104b4:	01712623          	sw	s7,12(sp)
   104b8:	01812423          	sw	s8,8(sp)
   104bc:	01912223          	sw	s9,4(sp)
   104c0:	00b58793          	addi	a5,a1,11
   104c4:	01600713          	li	a4,22
   104c8:	00050913          	mv	s2,a0
   104cc:	08f76c63          	bltu	a4,a5,10564 <_malloc_r+0xd4>
   104d0:	01000793          	li	a5,16
   104d4:	20b7ea63          	bltu	a5,a1,106e8 <_malloc_r+0x258>
   104d8:	015000ef          	jal	ra,10cec <__malloc_lock>
   104dc:	01000493          	li	s1,16
   104e0:	01800793          	li	a5,24
   104e4:	00200593          	li	a1,2
   104e8:	c2818993          	addi	s3,gp,-984 # 234e8 <__malloc_av_>
   104ec:	00f987b3          	add	a5,s3,a5
   104f0:	0047a403          	lw	s0,4(a5)
   104f4:	ff878713          	addi	a4,a5,-8
   104f8:	30e40663          	beq	s0,a4,10804 <_malloc_r+0x374>
   104fc:	00442783          	lw	a5,4(s0)
   10500:	00c42683          	lw	a3,12(s0)
   10504:	00842603          	lw	a2,8(s0)
   10508:	ffc7f793          	andi	a5,a5,-4
   1050c:	00f407b3          	add	a5,s0,a5
   10510:	0047a703          	lw	a4,4(a5)
   10514:	00d62623          	sw	a3,12(a2)
   10518:	00c6a423          	sw	a2,8(a3)
   1051c:	00176713          	ori	a4,a4,1
   10520:	00090513          	mv	a0,s2
   10524:	00e7a223          	sw	a4,4(a5)
   10528:	7cc000ef          	jal	ra,10cf4 <__malloc_unlock>
   1052c:	00840513          	addi	a0,s0,8
   10530:	02c12083          	lw	ra,44(sp)
   10534:	02812403          	lw	s0,40(sp)
   10538:	02412483          	lw	s1,36(sp)
   1053c:	02012903          	lw	s2,32(sp)
   10540:	01c12983          	lw	s3,28(sp)
   10544:	01812a03          	lw	s4,24(sp)
   10548:	01412a83          	lw	s5,20(sp)
   1054c:	01012b03          	lw	s6,16(sp)
   10550:	00c12b83          	lw	s7,12(sp)
   10554:	00812c03          	lw	s8,8(sp)
   10558:	00412c83          	lw	s9,4(sp)
   1055c:	03010113          	addi	sp,sp,48
   10560:	00008067          	ret
   10564:	ff87f493          	andi	s1,a5,-8
   10568:	1807c063          	bltz	a5,106e8 <_malloc_r+0x258>
   1056c:	16b4ee63          	bltu	s1,a1,106e8 <_malloc_r+0x258>
   10570:	77c000ef          	jal	ra,10cec <__malloc_lock>
   10574:	1f700793          	li	a5,503
   10578:	3a97f063          	bgeu	a5,s1,10918 <_malloc_r+0x488>
   1057c:	0094d793          	srli	a5,s1,0x9
   10580:	16078c63          	beqz	a5,106f8 <_malloc_r+0x268>
   10584:	00400713          	li	a4,4
   10588:	2ef76663          	bltu	a4,a5,10874 <_malloc_r+0x3e4>
   1058c:	0064d793          	srli	a5,s1,0x6
   10590:	03978593          	addi	a1,a5,57
   10594:	03878513          	addi	a0,a5,56
   10598:	00359693          	slli	a3,a1,0x3
   1059c:	c2818993          	addi	s3,gp,-984 # 234e8 <__malloc_av_>
   105a0:	00d986b3          	add	a3,s3,a3
   105a4:	0046a403          	lw	s0,4(a3)
   105a8:	ff868693          	addi	a3,a3,-8
   105ac:	02868663          	beq	a3,s0,105d8 <_malloc_r+0x148>
   105b0:	00f00613          	li	a2,15
   105b4:	0100006f          	j	105c4 <_malloc_r+0x134>
   105b8:	24075063          	bgez	a4,107f8 <_malloc_r+0x368>
   105bc:	00c42403          	lw	s0,12(s0)
   105c0:	00868c63          	beq	a3,s0,105d8 <_malloc_r+0x148>
   105c4:	00442783          	lw	a5,4(s0)
   105c8:	ffc7f793          	andi	a5,a5,-4
   105cc:	40978733          	sub	a4,a5,s1
   105d0:	fee654e3          	bge	a2,a4,105b8 <_malloc_r+0x128>
   105d4:	00050593          	mv	a1,a0
   105d8:	0109a403          	lw	s0,16(s3)
   105dc:	c3018893          	addi	a7,gp,-976 # 234f0 <__malloc_av_+0x8>
   105e0:	1f140463          	beq	s0,a7,107c8 <_malloc_r+0x338>
   105e4:	00442783          	lw	a5,4(s0)
   105e8:	00f00693          	li	a3,15
   105ec:	ffc7f793          	andi	a5,a5,-4
   105f0:	40978733          	sub	a4,a5,s1
   105f4:	32e6c863          	blt	a3,a4,10924 <_malloc_r+0x494>
   105f8:	0119aa23          	sw	a7,20(s3)
   105fc:	0119a823          	sw	a7,16(s3)
   10600:	2e075c63          	bgez	a4,108f8 <_malloc_r+0x468>
   10604:	1ff00713          	li	a4,511
   10608:	0049a503          	lw	a0,4(s3)
   1060c:	20f76463          	bltu	a4,a5,10814 <_malloc_r+0x384>
   10610:	ff87f713          	andi	a4,a5,-8
   10614:	00870713          	addi	a4,a4,8
   10618:	00e98733          	add	a4,s3,a4
   1061c:	00072683          	lw	a3,0(a4)
   10620:	0057d613          	srli	a2,a5,0x5
   10624:	00100793          	li	a5,1
   10628:	00c797b3          	sll	a5,a5,a2
   1062c:	00f56533          	or	a0,a0,a5
   10630:	ff870793          	addi	a5,a4,-8
   10634:	00f42623          	sw	a5,12(s0)
   10638:	00d42423          	sw	a3,8(s0)
   1063c:	00a9a223          	sw	a0,4(s3)
   10640:	00872023          	sw	s0,0(a4)
   10644:	0086a623          	sw	s0,12(a3)
   10648:	4025d793          	srai	a5,a1,0x2
   1064c:	00100613          	li	a2,1
   10650:	00f61633          	sll	a2,a2,a5
   10654:	0ac56a63          	bltu	a0,a2,10708 <_malloc_r+0x278>
   10658:	00a677b3          	and	a5,a2,a0
   1065c:	02079463          	bnez	a5,10684 <_malloc_r+0x1f4>
   10660:	00161613          	slli	a2,a2,0x1
   10664:	ffc5f593          	andi	a1,a1,-4
   10668:	00a677b3          	and	a5,a2,a0
   1066c:	00458593          	addi	a1,a1,4
   10670:	00079a63          	bnez	a5,10684 <_malloc_r+0x1f4>
   10674:	00161613          	slli	a2,a2,0x1
   10678:	00a677b3          	and	a5,a2,a0
   1067c:	00458593          	addi	a1,a1,4
   10680:	fe078ae3          	beqz	a5,10674 <_malloc_r+0x1e4>
   10684:	00f00813          	li	a6,15
   10688:	00359313          	slli	t1,a1,0x3
   1068c:	00698333          	add	t1,s3,t1
   10690:	00030513          	mv	a0,t1
   10694:	00c52783          	lw	a5,12(a0)
   10698:	00058e13          	mv	t3,a1
   1069c:	1ef50e63          	beq	a0,a5,10898 <_malloc_r+0x408>
   106a0:	0047a703          	lw	a4,4(a5)
   106a4:	00078413          	mv	s0,a5
   106a8:	00c7a783          	lw	a5,12(a5)
   106ac:	ffc77713          	andi	a4,a4,-4
   106b0:	409706b3          	sub	a3,a4,s1
   106b4:	1ed84e63          	blt	a6,a3,108b0 <_malloc_r+0x420>
   106b8:	fe06c2e3          	bltz	a3,1069c <_malloc_r+0x20c>
   106bc:	00e40733          	add	a4,s0,a4
   106c0:	00472683          	lw	a3,4(a4)
   106c4:	00842603          	lw	a2,8(s0)
   106c8:	00090513          	mv	a0,s2
   106cc:	0016e693          	ori	a3,a3,1
   106d0:	00d72223          	sw	a3,4(a4)
   106d4:	00f62623          	sw	a5,12(a2)
   106d8:	00c7a423          	sw	a2,8(a5)
   106dc:	618000ef          	jal	ra,10cf4 <__malloc_unlock>
   106e0:	00840513          	addi	a0,s0,8
   106e4:	e4dff06f          	j	10530 <_malloc_r+0xa0>
   106e8:	00c00793          	li	a5,12
   106ec:	00f92023          	sw	a5,0(s2)
   106f0:	00000513          	li	a0,0
   106f4:	e3dff06f          	j	10530 <_malloc_r+0xa0>
   106f8:	20000693          	li	a3,512
   106fc:	04000593          	li	a1,64
   10700:	03f00513          	li	a0,63
   10704:	e99ff06f          	j	1059c <_malloc_r+0x10c>
   10708:	0089a403          	lw	s0,8(s3)
   1070c:	00442783          	lw	a5,4(s0)
   10710:	ffc7fb13          	andi	s6,a5,-4
   10714:	009b6863          	bltu	s6,s1,10724 <_malloc_r+0x294>
   10718:	409b0733          	sub	a4,s6,s1
   1071c:	00f00793          	li	a5,15
   10720:	0ae7c863          	blt	a5,a4,107d0 <_malloc_r+0x340>
   10724:	23418c93          	addi	s9,gp,564 # 23af4 <__malloc_sbrk_base>
   10728:	000ca703          	lw	a4,0(s9)
   1072c:	2501aa83          	lw	s5,592(gp) # 23b10 <__malloc_top_pad>
   10730:	fff00793          	li	a5,-1
   10734:	01640a33          	add	s4,s0,s6
   10738:	01548ab3          	add	s5,s1,s5
   1073c:	3af70863          	beq	a4,a5,10aec <_malloc_r+0x65c>
   10740:	000017b7          	lui	a5,0x1
   10744:	00f78793          	addi	a5,a5,15 # 100f <exit-0xf085>
   10748:	00fa8ab3          	add	s5,s5,a5
   1074c:	fffff7b7          	lui	a5,0xfffff
   10750:	00fafab3          	and	s5,s5,a5
   10754:	000a8593          	mv	a1,s5
   10758:	00090513          	mv	a0,s2
   1075c:	62c000ef          	jal	ra,10d88 <_sbrk_r>
   10760:	fff00793          	li	a5,-1
   10764:	00050b93          	mv	s7,a0
   10768:	20f50863          	beq	a0,a5,10978 <_malloc_r+0x4e8>
   1076c:	21456463          	bltu	a0,s4,10974 <_malloc_r+0x4e4>
   10770:	2a018c13          	addi	s8,gp,672 # 23b60 <__malloc_current_mallinfo>
   10774:	000c2583          	lw	a1,0(s8)
   10778:	00ba85b3          	add	a1,s5,a1
   1077c:	00bc2023          	sw	a1,0(s8)
   10780:	00058713          	mv	a4,a1
   10784:	28aa1a63          	bne	s4,a0,10a18 <_malloc_r+0x588>
   10788:	01451793          	slli	a5,a0,0x14
   1078c:	28079663          	bnez	a5,10a18 <_malloc_r+0x588>
   10790:	0089ab83          	lw	s7,8(s3)
   10794:	015b07b3          	add	a5,s6,s5
   10798:	0017e793          	ori	a5,a5,1
   1079c:	00fba223          	sw	a5,4(s7)
   107a0:	24c18713          	addi	a4,gp,588 # 23b0c <__malloc_max_sbrked_mem>
   107a4:	00072683          	lw	a3,0(a4)
   107a8:	00b6f463          	bgeu	a3,a1,107b0 <_malloc_r+0x320>
   107ac:	00b72023          	sw	a1,0(a4)
   107b0:	24818713          	addi	a4,gp,584 # 23b08 <__malloc_max_total_mem>
   107b4:	00072683          	lw	a3,0(a4)
   107b8:	00b6f463          	bgeu	a3,a1,107c0 <_malloc_r+0x330>
   107bc:	00b72023          	sw	a1,0(a4)
   107c0:	000b8413          	mv	s0,s7
   107c4:	1bc0006f          	j	10980 <_malloc_r+0x4f0>
   107c8:	0049a503          	lw	a0,4(s3)
   107cc:	e7dff06f          	j	10648 <_malloc_r+0x1b8>
   107d0:	0014e793          	ori	a5,s1,1
   107d4:	00f42223          	sw	a5,4(s0)
   107d8:	009404b3          	add	s1,s0,s1
   107dc:	0099a423          	sw	s1,8(s3)
   107e0:	00176713          	ori	a4,a4,1
   107e4:	00090513          	mv	a0,s2
   107e8:	00e4a223          	sw	a4,4(s1)
   107ec:	508000ef          	jal	ra,10cf4 <__malloc_unlock>
   107f0:	00840513          	addi	a0,s0,8
   107f4:	d3dff06f          	j	10530 <_malloc_r+0xa0>
   107f8:	00c42683          	lw	a3,12(s0)
   107fc:	00842603          	lw	a2,8(s0)
   10800:	d0dff06f          	j	1050c <_malloc_r+0x7c>
   10804:	00c7a403          	lw	s0,12(a5) # fffff00c <__BSS_END__+0xfffdb1dc>
   10808:	00258593          	addi	a1,a1,2
   1080c:	dc8786e3          	beq	a5,s0,105d8 <_malloc_r+0x148>
   10810:	cedff06f          	j	104fc <_malloc_r+0x6c>
   10814:	0097d713          	srli	a4,a5,0x9
   10818:	00400693          	li	a3,4
   1081c:	14e6f263          	bgeu	a3,a4,10960 <_malloc_r+0x4d0>
   10820:	01400693          	li	a3,20
   10824:	30e6ea63          	bltu	a3,a4,10b38 <_malloc_r+0x6a8>
   10828:	05c70613          	addi	a2,a4,92
   1082c:	05b70693          	addi	a3,a4,91
   10830:	00361613          	slli	a2,a2,0x3
   10834:	00c98633          	add	a2,s3,a2
   10838:	00062703          	lw	a4,0(a2)
   1083c:	ff860613          	addi	a2,a2,-8
   10840:	00e61863          	bne	a2,a4,10850 <_malloc_r+0x3c0>
   10844:	2b00006f          	j	10af4 <_malloc_r+0x664>
   10848:	00872703          	lw	a4,8(a4)
   1084c:	00e60863          	beq	a2,a4,1085c <_malloc_r+0x3cc>
   10850:	00472683          	lw	a3,4(a4)
   10854:	ffc6f693          	andi	a3,a3,-4
   10858:	fed7e8e3          	bltu	a5,a3,10848 <_malloc_r+0x3b8>
   1085c:	00c72603          	lw	a2,12(a4)
   10860:	00c42623          	sw	a2,12(s0)
   10864:	00e42423          	sw	a4,8(s0)
   10868:	00862423          	sw	s0,8(a2)
   1086c:	00872623          	sw	s0,12(a4)
   10870:	dd9ff06f          	j	10648 <_malloc_r+0x1b8>
   10874:	01400713          	li	a4,20
   10878:	12f77663          	bgeu	a4,a5,109a4 <_malloc_r+0x514>
   1087c:	05400713          	li	a4,84
   10880:	2cf76a63          	bltu	a4,a5,10b54 <_malloc_r+0x6c4>
   10884:	00c4d793          	srli	a5,s1,0xc
   10888:	06f78593          	addi	a1,a5,111
   1088c:	06e78513          	addi	a0,a5,110
   10890:	00359693          	slli	a3,a1,0x3
   10894:	d09ff06f          	j	1059c <_malloc_r+0x10c>
   10898:	001e0e13          	addi	t3,t3,1
   1089c:	003e7793          	andi	a5,t3,3
   108a0:	00850513          	addi	a0,a0,8
   108a4:	10078e63          	beqz	a5,109c0 <_malloc_r+0x530>
   108a8:	00c52783          	lw	a5,12(a0)
   108ac:	df1ff06f          	j	1069c <_malloc_r+0x20c>
   108b0:	00842603          	lw	a2,8(s0)
   108b4:	0014e593          	ori	a1,s1,1
   108b8:	00b42223          	sw	a1,4(s0)
   108bc:	00f62623          	sw	a5,12(a2)
   108c0:	00c7a423          	sw	a2,8(a5)
   108c4:	009404b3          	add	s1,s0,s1
   108c8:	0099aa23          	sw	s1,20(s3)
   108cc:	0099a823          	sw	s1,16(s3)
   108d0:	0016e793          	ori	a5,a3,1
   108d4:	0114a623          	sw	a7,12(s1)
   108d8:	0114a423          	sw	a7,8(s1)
   108dc:	00f4a223          	sw	a5,4(s1)
   108e0:	00e40733          	add	a4,s0,a4
   108e4:	00090513          	mv	a0,s2
   108e8:	00d72023          	sw	a3,0(a4)
   108ec:	408000ef          	jal	ra,10cf4 <__malloc_unlock>
   108f0:	00840513          	addi	a0,s0,8
   108f4:	c3dff06f          	j	10530 <_malloc_r+0xa0>
   108f8:	00f407b3          	add	a5,s0,a5
   108fc:	0047a703          	lw	a4,4(a5)
   10900:	00090513          	mv	a0,s2
   10904:	00176713          	ori	a4,a4,1
   10908:	00e7a223          	sw	a4,4(a5)
   1090c:	3e8000ef          	jal	ra,10cf4 <__malloc_unlock>
   10910:	00840513          	addi	a0,s0,8
   10914:	c1dff06f          	j	10530 <_malloc_r+0xa0>
   10918:	0034d593          	srli	a1,s1,0x3
   1091c:	00848793          	addi	a5,s1,8
   10920:	bc9ff06f          	j	104e8 <_malloc_r+0x58>
   10924:	0014e693          	ori	a3,s1,1
   10928:	00d42223          	sw	a3,4(s0)
   1092c:	009404b3          	add	s1,s0,s1
   10930:	0099aa23          	sw	s1,20(s3)
   10934:	0099a823          	sw	s1,16(s3)
   10938:	00176693          	ori	a3,a4,1
   1093c:	0114a623          	sw	a7,12(s1)
   10940:	0114a423          	sw	a7,8(s1)
   10944:	00d4a223          	sw	a3,4(s1)
   10948:	00f407b3          	add	a5,s0,a5
   1094c:	00090513          	mv	a0,s2
   10950:	00e7a023          	sw	a4,0(a5)
   10954:	3a0000ef          	jal	ra,10cf4 <__malloc_unlock>
   10958:	00840513          	addi	a0,s0,8
   1095c:	bd5ff06f          	j	10530 <_malloc_r+0xa0>
   10960:	0067d713          	srli	a4,a5,0x6
   10964:	03970613          	addi	a2,a4,57
   10968:	03870693          	addi	a3,a4,56
   1096c:	00361613          	slli	a2,a2,0x3
   10970:	ec5ff06f          	j	10834 <_malloc_r+0x3a4>
   10974:	09340a63          	beq	s0,s3,10a08 <_malloc_r+0x578>
   10978:	0089a403          	lw	s0,8(s3)
   1097c:	00442783          	lw	a5,4(s0)
   10980:	ffc7f793          	andi	a5,a5,-4
   10984:	40978733          	sub	a4,a5,s1
   10988:	0097e663          	bltu	a5,s1,10994 <_malloc_r+0x504>
   1098c:	00f00793          	li	a5,15
   10990:	e4e7c0e3          	blt	a5,a4,107d0 <_malloc_r+0x340>
   10994:	00090513          	mv	a0,s2
   10998:	35c000ef          	jal	ra,10cf4 <__malloc_unlock>
   1099c:	00000513          	li	a0,0
   109a0:	b91ff06f          	j	10530 <_malloc_r+0xa0>
   109a4:	05c78593          	addi	a1,a5,92
   109a8:	05b78513          	addi	a0,a5,91
   109ac:	00359693          	slli	a3,a1,0x3
   109b0:	bedff06f          	j	1059c <_malloc_r+0x10c>
   109b4:	00832783          	lw	a5,8(t1) # 10180 <frame_dummy+0x1c>
   109b8:	fff58593          	addi	a1,a1,-1
   109bc:	24679663          	bne	a5,t1,10c08 <_malloc_r+0x778>
   109c0:	0035f793          	andi	a5,a1,3
   109c4:	ff830313          	addi	t1,t1,-8
   109c8:	fe0796e3          	bnez	a5,109b4 <_malloc_r+0x524>
   109cc:	0049a703          	lw	a4,4(s3)
   109d0:	fff64793          	not	a5,a2
   109d4:	00e7f7b3          	and	a5,a5,a4
   109d8:	00f9a223          	sw	a5,4(s3)
   109dc:	00161613          	slli	a2,a2,0x1
   109e0:	d2c7e4e3          	bltu	a5,a2,10708 <_malloc_r+0x278>
   109e4:	d20602e3          	beqz	a2,10708 <_malloc_r+0x278>
   109e8:	00f67733          	and	a4,a2,a5
   109ec:	00071a63          	bnez	a4,10a00 <_malloc_r+0x570>
   109f0:	00161613          	slli	a2,a2,0x1
   109f4:	00f67733          	and	a4,a2,a5
   109f8:	004e0e13          	addi	t3,t3,4
   109fc:	fe070ae3          	beqz	a4,109f0 <_malloc_r+0x560>
   10a00:	000e0593          	mv	a1,t3
   10a04:	c85ff06f          	j	10688 <_malloc_r+0x1f8>
   10a08:	2a018c13          	addi	s8,gp,672 # 23b60 <__malloc_current_mallinfo>
   10a0c:	000c2703          	lw	a4,0(s8)
   10a10:	00ea8733          	add	a4,s5,a4
   10a14:	00ec2023          	sw	a4,0(s8)
   10a18:	000ca683          	lw	a3,0(s9)
   10a1c:	fff00793          	li	a5,-1
   10a20:	14f68863          	beq	a3,a5,10b70 <_malloc_r+0x6e0>
   10a24:	414b87b3          	sub	a5,s7,s4
   10a28:	00e787b3          	add	a5,a5,a4
   10a2c:	00fc2023          	sw	a5,0(s8)
   10a30:	007bfc93          	andi	s9,s7,7
   10a34:	0c0c8c63          	beqz	s9,10b0c <_malloc_r+0x67c>
   10a38:	00001737          	lui	a4,0x1
   10a3c:	419b8bb3          	sub	s7,s7,s9
   10a40:	00870593          	addi	a1,a4,8 # 1008 <exit-0xf08c>
   10a44:	008b8b93          	addi	s7,s7,8
   10a48:	419585b3          	sub	a1,a1,s9
   10a4c:	015b8ab3          	add	s5,s7,s5
   10a50:	415585b3          	sub	a1,a1,s5
   10a54:	fff70713          	addi	a4,a4,-1
   10a58:	00e5fa33          	and	s4,a1,a4
   10a5c:	000a0593          	mv	a1,s4
   10a60:	00090513          	mv	a0,s2
   10a64:	324000ef          	jal	ra,10d88 <_sbrk_r>
   10a68:	fff00793          	li	a5,-1
   10a6c:	14f50863          	beq	a0,a5,10bbc <_malloc_r+0x72c>
   10a70:	41750533          	sub	a0,a0,s7
   10a74:	01450ab3          	add	s5,a0,s4
   10a78:	000c2703          	lw	a4,0(s8)
   10a7c:	0179a423          	sw	s7,8(s3)
   10a80:	001ae793          	ori	a5,s5,1
   10a84:	00ea05b3          	add	a1,s4,a4
   10a88:	00bc2023          	sw	a1,0(s8)
   10a8c:	00fba223          	sw	a5,4(s7)
   10a90:	d13408e3          	beq	s0,s3,107a0 <_malloc_r+0x310>
   10a94:	00f00693          	li	a3,15
   10a98:	0f66f063          	bgeu	a3,s6,10b78 <_malloc_r+0x6e8>
   10a9c:	00442703          	lw	a4,4(s0)
   10aa0:	ff4b0793          	addi	a5,s6,-12
   10aa4:	ff87f793          	andi	a5,a5,-8
   10aa8:	00177713          	andi	a4,a4,1
   10aac:	00f76733          	or	a4,a4,a5
   10ab0:	00e42223          	sw	a4,4(s0)
   10ab4:	00500613          	li	a2,5
   10ab8:	00f40733          	add	a4,s0,a5
   10abc:	00c72223          	sw	a2,4(a4)
   10ac0:	00c72423          	sw	a2,8(a4)
   10ac4:	00f6e663          	bltu	a3,a5,10ad0 <_malloc_r+0x640>
   10ac8:	004ba783          	lw	a5,4(s7)
   10acc:	cd5ff06f          	j	107a0 <_malloc_r+0x310>
   10ad0:	00840593          	addi	a1,s0,8
   10ad4:	00090513          	mv	a0,s2
   10ad8:	764050ef          	jal	ra,1623c <_free_r>
   10adc:	0089ab83          	lw	s7,8(s3)
   10ae0:	000c2583          	lw	a1,0(s8)
   10ae4:	004ba783          	lw	a5,4(s7)
   10ae8:	cb9ff06f          	j	107a0 <_malloc_r+0x310>
   10aec:	010a8a93          	addi	s5,s5,16
   10af0:	c65ff06f          	j	10754 <_malloc_r+0x2c4>
   10af4:	4026d693          	srai	a3,a3,0x2
   10af8:	00100793          	li	a5,1
   10afc:	00d797b3          	sll	a5,a5,a3
   10b00:	00f56533          	or	a0,a0,a5
   10b04:	00a9a223          	sw	a0,4(s3)
   10b08:	d59ff06f          	j	10860 <_malloc_r+0x3d0>
   10b0c:	015b85b3          	add	a1,s7,s5
   10b10:	40b005b3          	neg	a1,a1
   10b14:	01459593          	slli	a1,a1,0x14
   10b18:	0145da13          	srli	s4,a1,0x14
   10b1c:	000a0593          	mv	a1,s4
   10b20:	00090513          	mv	a0,s2
   10b24:	264000ef          	jal	ra,10d88 <_sbrk_r>
   10b28:	fff00793          	li	a5,-1
   10b2c:	f4f512e3          	bne	a0,a5,10a70 <_malloc_r+0x5e0>
   10b30:	00000a13          	li	s4,0
   10b34:	f45ff06f          	j	10a78 <_malloc_r+0x5e8>
   10b38:	05400693          	li	a3,84
   10b3c:	04e6e463          	bltu	a3,a4,10b84 <_malloc_r+0x6f4>
   10b40:	00c7d713          	srli	a4,a5,0xc
   10b44:	06f70613          	addi	a2,a4,111
   10b48:	06e70693          	addi	a3,a4,110
   10b4c:	00361613          	slli	a2,a2,0x3
   10b50:	ce5ff06f          	j	10834 <_malloc_r+0x3a4>
   10b54:	15400713          	li	a4,340
   10b58:	04f76463          	bltu	a4,a5,10ba0 <_malloc_r+0x710>
   10b5c:	00f4d793          	srli	a5,s1,0xf
   10b60:	07878593          	addi	a1,a5,120
   10b64:	07778513          	addi	a0,a5,119
   10b68:	00359693          	slli	a3,a1,0x3
   10b6c:	a31ff06f          	j	1059c <_malloc_r+0x10c>
   10b70:	017ca023          	sw	s7,0(s9)
   10b74:	ebdff06f          	j	10a30 <_malloc_r+0x5a0>
   10b78:	00100793          	li	a5,1
   10b7c:	00fba223          	sw	a5,4(s7)
   10b80:	e15ff06f          	j	10994 <_malloc_r+0x504>
   10b84:	15400693          	li	a3,340
   10b88:	04e6e463          	bltu	a3,a4,10bd0 <_malloc_r+0x740>
   10b8c:	00f7d713          	srli	a4,a5,0xf
   10b90:	07870613          	addi	a2,a4,120
   10b94:	07770693          	addi	a3,a4,119
   10b98:	00361613          	slli	a2,a2,0x3
   10b9c:	c99ff06f          	j	10834 <_malloc_r+0x3a4>
   10ba0:	55400713          	li	a4,1364
   10ba4:	04f76463          	bltu	a4,a5,10bec <_malloc_r+0x75c>
   10ba8:	0124d793          	srli	a5,s1,0x12
   10bac:	07d78593          	addi	a1,a5,125
   10bb0:	07c78513          	addi	a0,a5,124
   10bb4:	00359693          	slli	a3,a1,0x3
   10bb8:	9e5ff06f          	j	1059c <_malloc_r+0x10c>
   10bbc:	ff8c8c93          	addi	s9,s9,-8
   10bc0:	019a8ab3          	add	s5,s5,s9
   10bc4:	417a8ab3          	sub	s5,s5,s7
   10bc8:	00000a13          	li	s4,0
   10bcc:	eadff06f          	j	10a78 <_malloc_r+0x5e8>
   10bd0:	55400693          	li	a3,1364
   10bd4:	02e6e463          	bltu	a3,a4,10bfc <_malloc_r+0x76c>
   10bd8:	0127d713          	srli	a4,a5,0x12
   10bdc:	07d70613          	addi	a2,a4,125
   10be0:	07c70693          	addi	a3,a4,124
   10be4:	00361613          	slli	a2,a2,0x3
   10be8:	c4dff06f          	j	10834 <_malloc_r+0x3a4>
   10bec:	3f800693          	li	a3,1016
   10bf0:	07f00593          	li	a1,127
   10bf4:	07e00513          	li	a0,126
   10bf8:	9a5ff06f          	j	1059c <_malloc_r+0x10c>
   10bfc:	3f800613          	li	a2,1016
   10c00:	07e00693          	li	a3,126
   10c04:	c31ff06f          	j	10834 <_malloc_r+0x3a4>
   10c08:	0049a783          	lw	a5,4(s3)
   10c0c:	dd1ff06f          	j	109dc <_malloc_r+0x54c>

00010c10 <memset>:
   10c10:	00f00313          	li	t1,15
   10c14:	00050713          	mv	a4,a0
   10c18:	02c37e63          	bgeu	t1,a2,10c54 <memset+0x44>
   10c1c:	00f77793          	andi	a5,a4,15
   10c20:	0a079063          	bnez	a5,10cc0 <memset+0xb0>
   10c24:	08059263          	bnez	a1,10ca8 <memset+0x98>
   10c28:	ff067693          	andi	a3,a2,-16
   10c2c:	00f67613          	andi	a2,a2,15
   10c30:	00e686b3          	add	a3,a3,a4
   10c34:	00b72023          	sw	a1,0(a4)
   10c38:	00b72223          	sw	a1,4(a4)
   10c3c:	00b72423          	sw	a1,8(a4)
   10c40:	00b72623          	sw	a1,12(a4)
   10c44:	01070713          	addi	a4,a4,16
   10c48:	fed766e3          	bltu	a4,a3,10c34 <memset+0x24>
   10c4c:	00061463          	bnez	a2,10c54 <memset+0x44>
   10c50:	00008067          	ret
   10c54:	40c306b3          	sub	a3,t1,a2
   10c58:	00269693          	slli	a3,a3,0x2
   10c5c:	00000297          	auipc	t0,0x0
   10c60:	005686b3          	add	a3,a3,t0
   10c64:	00c68067          	jr	12(a3)
   10c68:	00b70723          	sb	a1,14(a4)
   10c6c:	00b706a3          	sb	a1,13(a4)
   10c70:	00b70623          	sb	a1,12(a4)
   10c74:	00b705a3          	sb	a1,11(a4)
   10c78:	00b70523          	sb	a1,10(a4)
   10c7c:	00b704a3          	sb	a1,9(a4)
   10c80:	00b70423          	sb	a1,8(a4)
   10c84:	00b703a3          	sb	a1,7(a4)
   10c88:	00b70323          	sb	a1,6(a4)
   10c8c:	00b702a3          	sb	a1,5(a4)
   10c90:	00b70223          	sb	a1,4(a4)
   10c94:	00b701a3          	sb	a1,3(a4)
   10c98:	00b70123          	sb	a1,2(a4)
   10c9c:	00b700a3          	sb	a1,1(a4)
   10ca0:	00b70023          	sb	a1,0(a4)
   10ca4:	00008067          	ret
   10ca8:	0ff5f593          	zext.b	a1,a1
   10cac:	00859693          	slli	a3,a1,0x8
   10cb0:	00d5e5b3          	or	a1,a1,a3
   10cb4:	01059693          	slli	a3,a1,0x10
   10cb8:	00d5e5b3          	or	a1,a1,a3
   10cbc:	f6dff06f          	j	10c28 <memset+0x18>
   10cc0:	00279693          	slli	a3,a5,0x2
   10cc4:	00000297          	auipc	t0,0x0
   10cc8:	005686b3          	add	a3,a3,t0
   10ccc:	00008293          	mv	t0,ra
   10cd0:	fa0680e7          	jalr	-96(a3)
   10cd4:	00028093          	mv	ra,t0
   10cd8:	ff078793          	addi	a5,a5,-16
   10cdc:	40f70733          	sub	a4,a4,a5
   10ce0:	00f60633          	add	a2,a2,a5
   10ce4:	f6c378e3          	bgeu	t1,a2,10c54 <memset+0x44>
   10ce8:	f3dff06f          	j	10c24 <memset+0x14>

00010cec <__malloc_lock>:
   10cec:	26818513          	addi	a0,gp,616 # 23b28 <__lock___malloc_recursive_mutex>
   10cf0:	6400606f          	j	17330 <__retarget_lock_acquire_recursive>

00010cf4 <__malloc_unlock>:
   10cf4:	26818513          	addi	a0,gp,616 # 23b28 <__lock___malloc_recursive_mutex>
   10cf8:	6500606f          	j	17348 <__retarget_lock_release_recursive>

00010cfc <_printf_r>:
   10cfc:	fc010113          	addi	sp,sp,-64
   10d00:	02c12423          	sw	a2,40(sp)
   10d04:	02d12623          	sw	a3,44(sp)
   10d08:	02e12823          	sw	a4,48(sp)
   10d0c:	02f12a23          	sw	a5,52(sp)
   10d10:	03012c23          	sw	a6,56(sp)
   10d14:	03112e23          	sw	a7,60(sp)
   10d18:	00058613          	mv	a2,a1
   10d1c:	00852583          	lw	a1,8(a0)
   10d20:	02810693          	addi	a3,sp,40
   10d24:	00112e23          	sw	ra,28(sp)
   10d28:	00d12623          	sw	a3,12(sp)
   10d2c:	0ac000ef          	jal	ra,10dd8 <_vfprintf_r>
   10d30:	01c12083          	lw	ra,28(sp)
   10d34:	04010113          	addi	sp,sp,64
   10d38:	00008067          	ret

00010d3c <printf>:
   10d3c:	fc010113          	addi	sp,sp,-64
   10d40:	02c12423          	sw	a2,40(sp)
   10d44:	02d12623          	sw	a3,44(sp)
   10d48:	2301a303          	lw	t1,560(gp) # 23af0 <_impure_ptr>
   10d4c:	02b12223          	sw	a1,36(sp)
   10d50:	02e12823          	sw	a4,48(sp)
   10d54:	02f12a23          	sw	a5,52(sp)
   10d58:	03012c23          	sw	a6,56(sp)
   10d5c:	03112e23          	sw	a7,60(sp)
   10d60:	00832583          	lw	a1,8(t1)
   10d64:	02410693          	addi	a3,sp,36
   10d68:	00050613          	mv	a2,a0
   10d6c:	00030513          	mv	a0,t1
   10d70:	00112e23          	sw	ra,28(sp)
   10d74:	00d12623          	sw	a3,12(sp)
   10d78:	060000ef          	jal	ra,10dd8 <_vfprintf_r>
   10d7c:	01c12083          	lw	ra,28(sp)
   10d80:	04010113          	addi	sp,sp,64
   10d84:	00008067          	ret

00010d88 <_sbrk_r>:
   10d88:	ff010113          	addi	sp,sp,-16
   10d8c:	00812423          	sw	s0,8(sp)
   10d90:	00050413          	mv	s0,a0
   10d94:	00058513          	mv	a0,a1
   10d98:	2601ae23          	sw	zero,636(gp) # 23b3c <errno>
   10d9c:	00112623          	sw	ra,12(sp)
   10da0:	0780d0ef          	jal	ra,1de18 <_sbrk>
   10da4:	fff00793          	li	a5,-1
   10da8:	00f50a63          	beq	a0,a5,10dbc <_sbrk_r+0x34>
   10dac:	00c12083          	lw	ra,12(sp)
   10db0:	00812403          	lw	s0,8(sp)
   10db4:	01010113          	addi	sp,sp,16
   10db8:	00008067          	ret
   10dbc:	27c1a783          	lw	a5,636(gp) # 23b3c <errno>
   10dc0:	fe0786e3          	beqz	a5,10dac <_sbrk_r+0x24>
   10dc4:	00c12083          	lw	ra,12(sp)
   10dc8:	00f42023          	sw	a5,0(s0)
   10dcc:	00812403          	lw	s0,8(sp)
   10dd0:	01010113          	addi	sp,sp,16
   10dd4:	00008067          	ret

00010dd8 <_vfprintf_r>:
   10dd8:	e7010113          	addi	sp,sp,-400
   10ddc:	18112623          	sw	ra,396(sp)
   10de0:	00b12423          	sw	a1,8(sp)
   10de4:	00c12623          	sw	a2,12(sp)
   10de8:	00d12a23          	sw	a3,20(sp)
   10dec:	17312e23          	sw	s3,380(sp)
   10df0:	18812423          	sw	s0,392(sp)
   10df4:	18912223          	sw	s1,388(sp)
   10df8:	19212023          	sw	s2,384(sp)
   10dfc:	17412c23          	sw	s4,376(sp)
   10e00:	17512a23          	sw	s5,372(sp)
   10e04:	17612823          	sw	s6,368(sp)
   10e08:	17712623          	sw	s7,364(sp)
   10e0c:	17812423          	sw	s8,360(sp)
   10e10:	17912223          	sw	s9,356(sp)
   10e14:	17a12023          	sw	s10,352(sp)
   10e18:	15b12e23          	sw	s11,348(sp)
   10e1c:	00050993          	mv	s3,a0
   10e20:	075050ef          	jal	ra,16694 <_localeconv_r>
   10e24:	00052783          	lw	a5,0(a0)
   10e28:	00078513          	mv	a0,a5
   10e2c:	02f12c23          	sw	a5,56(sp)
   10e30:	609080ef          	jal	ra,19c38 <strlen>
   10e34:	00050713          	mv	a4,a0
   10e38:	00800613          	li	a2,8
   10e3c:	00000593          	li	a1,0
   10e40:	09010513          	addi	a0,sp,144
   10e44:	02e12a23          	sw	a4,52(sp)
   10e48:	dc9ff0ef          	jal	ra,10c10 <memset>
   10e4c:	00c12783          	lw	a5,12(sp)
   10e50:	00098663          	beqz	s3,10e5c <_vfprintf_r+0x84>
   10e54:	0389a703          	lw	a4,56(s3)
   10e58:	70070e63          	beqz	a4,11574 <_vfprintf_r+0x79c>
   10e5c:	00812703          	lw	a4,8(sp)
   10e60:	06472683          	lw	a3,100(a4)
   10e64:	00c71703          	lh	a4,12(a4)
   10e68:	0016f693          	andi	a3,a3,1
   10e6c:	00069863          	bnez	a3,10e7c <_vfprintf_r+0xa4>
   10e70:	20077693          	andi	a3,a4,512
   10e74:	00069463          	bnez	a3,10e7c <_vfprintf_r+0xa4>
   10e78:	36c0106f          	j	121e4 <_vfprintf_r+0x140c>
   10e7c:	01271693          	slli	a3,a4,0x12
   10e80:	0206c863          	bltz	a3,10eb0 <_vfprintf_r+0xd8>
   10e84:	00812583          	lw	a1,8(sp)
   10e88:	00002637          	lui	a2,0x2
   10e8c:	00c76733          	or	a4,a4,a2
   10e90:	0645a683          	lw	a3,100(a1)
   10e94:	ffffe637          	lui	a2,0xffffe
   10e98:	01071713          	slli	a4,a4,0x10
   10e9c:	fff60613          	addi	a2,a2,-1 # ffffdfff <__BSS_END__+0xfffda1cf>
   10ea0:	41075713          	srai	a4,a4,0x10
   10ea4:	00c6f6b3          	and	a3,a3,a2
   10ea8:	00e59623          	sh	a4,12(a1)
   10eac:	06d5a223          	sw	a3,100(a1)
   10eb0:	00877693          	andi	a3,a4,8
   10eb4:	26068663          	beqz	a3,11120 <_vfprintf_r+0x348>
   10eb8:	00812683          	lw	a3,8(sp)
   10ebc:	0106a683          	lw	a3,16(a3)
   10ec0:	26068063          	beqz	a3,11120 <_vfprintf_r+0x348>
   10ec4:	01a77693          	andi	a3,a4,26
   10ec8:	00a00613          	li	a2,10
   10ecc:	28c68263          	beq	a3,a2,11150 <_vfprintf_r+0x378>
   10ed0:	0ac10713          	addi	a4,sp,172
   10ed4:	0ae12023          	sw	a4,160(sp)
   10ed8:	0a012423          	sw	zero,168(sp)
   10edc:	0a012223          	sw	zero,164(sp)
   10ee0:	02012023          	sw	zero,32(sp)
   10ee4:	02012623          	sw	zero,44(sp)
   10ee8:	02012823          	sw	zero,48(sp)
   10eec:	00070413          	mv	s0,a4
   10ef0:	02012e23          	sw	zero,60(sp)
   10ef4:	04012223          	sw	zero,68(sp)
   10ef8:	04012023          	sw	zero,64(sp)
   10efc:	04012423          	sw	zero,72(sp)
   10f00:	04012623          	sw	zero,76(sp)
   10f04:	00012623          	sw	zero,12(sp)
   10f08:	03018a93          	addi	s5,gp,48 # 238f0 <__global_locale>
   10f0c:	02500d13          	li	s10,37
   10f10:	00078b93          	mv	s7,a5
   10f14:	000b8493          	mv	s1,s7
   10f18:	0e4aa903          	lw	s2,228(s5)
   10f1c:	3e8060ef          	jal	ra,17304 <__locale_mb_cur_max>
   10f20:	00050693          	mv	a3,a0
   10f24:	09010713          	addi	a4,sp,144
   10f28:	00048613          	mv	a2,s1
   10f2c:	08010593          	addi	a1,sp,128
   10f30:	00098513          	mv	a0,s3
   10f34:	000900e7          	jalr	s2
   10f38:	2a050c63          	beqz	a0,111f0 <_vfprintf_r+0x418>
   10f3c:	28054c63          	bltz	a0,111d4 <_vfprintf_r+0x3fc>
   10f40:	08012783          	lw	a5,128(sp)
   10f44:	01a78663          	beq	a5,s10,10f50 <_vfprintf_r+0x178>
   10f48:	00a484b3          	add	s1,s1,a0
   10f4c:	fcdff06f          	j	10f18 <_vfprintf_r+0x140>
   10f50:	00050c13          	mv	s8,a0
   10f54:	41748cb3          	sub	s9,s1,s7
   10f58:	2b749263          	bne	s1,s7,111fc <_vfprintf_r+0x424>
   10f5c:	fff00313          	li	t1,-1
   10f60:	0014ce03          	lbu	t3,1(s1)
   10f64:	06010ba3          	sb	zero,119(sp)
   10f68:	00148493          	addi	s1,s1,1
   10f6c:	00000913          	li	s2,0
   10f70:	00000b13          	li	s6,0
   10f74:	05a00c13          	li	s8,90
   10f78:	00030a13          	mv	s4,t1
   10f7c:	00148493          	addi	s1,s1,1
   10f80:	fe0e0793          	addi	a5,t3,-32
   10f84:	04fc6a63          	bltu	s8,a5,10fd8 <_vfprintf_r+0x200>
   10f88:	00011717          	auipc	a4,0x11
   10f8c:	8cc70713          	addi	a4,a4,-1844 # 21854 <__clzsi2+0xec>
   10f90:	00279793          	slli	a5,a5,0x2
   10f94:	00e787b3          	add	a5,a5,a4
   10f98:	0007a783          	lw	a5,0(a5)
   10f9c:	00e787b3          	add	a5,a5,a4
   10fa0:	00078067          	jr	a5
   10fa4:	00000913          	li	s2,0
   10fa8:	fd0e0693          	addi	a3,t3,-48
   10fac:	00900713          	li	a4,9
   10fb0:	0004ce03          	lbu	t3,0(s1)
   10fb4:	00291793          	slli	a5,s2,0x2
   10fb8:	012787b3          	add	a5,a5,s2
   10fbc:	00179793          	slli	a5,a5,0x1
   10fc0:	00f68933          	add	s2,a3,a5
   10fc4:	fd0e0693          	addi	a3,t3,-48
   10fc8:	00148493          	addi	s1,s1,1
   10fcc:	fed772e3          	bgeu	a4,a3,10fb0 <_vfprintf_r+0x1d8>
   10fd0:	fe0e0793          	addi	a5,t3,-32
   10fd4:	fafc7ae3          	bgeu	s8,a5,10f88 <_vfprintf_r+0x1b0>
   10fd8:	260e0063          	beqz	t3,11238 <_vfprintf_r+0x460>
   10fdc:	0fc10623          	sb	t3,236(sp)
   10fe0:	06010ba3          	sb	zero,119(sp)
   10fe4:	00100c13          	li	s8,1
   10fe8:	00000613          	li	a2,0
   10fec:	00012823          	sw	zero,16(sp)
   10ff0:	00100c93          	li	s9,1
   10ff4:	00000313          	li	t1,0
   10ff8:	02012423          	sw	zero,40(sp)
   10ffc:	02012223          	sw	zero,36(sp)
   11000:	00012c23          	sw	zero,24(sp)
   11004:	0ec10b93          	addi	s7,sp,236
   11008:	002b7293          	andi	t0,s6,2
   1100c:	00028463          	beqz	t0,11014 <_vfprintf_r+0x23c>
   11010:	002c0c13          	addi	s8,s8,2
   11014:	084b7d93          	andi	s11,s6,132
   11018:	000d9663          	bnez	s11,11024 <_vfprintf_r+0x24c>
   1101c:	41890733          	sub	a4,s2,s8
   11020:	4ce040e3          	bgtz	a4,11ce0 <_vfprintf_r+0xf08>
   11024:	0a812a03          	lw	s4,168(sp)
   11028:	02060a63          	beqz	a2,1105c <_vfprintf_r+0x284>
   1102c:	0a412603          	lw	a2,164(sp)
   11030:	07710593          	addi	a1,sp,119
   11034:	001a0a13          	addi	s4,s4,1
   11038:	00160613          	addi	a2,a2,1
   1103c:	00100793          	li	a5,1
   11040:	00b42023          	sw	a1,0(s0)
   11044:	00f42223          	sw	a5,4(s0)
   11048:	0b412423          	sw	s4,168(sp)
   1104c:	0ac12223          	sw	a2,164(sp)
   11050:	00700593          	li	a1,7
   11054:	00840413          	addi	s0,s0,8
   11058:	3ac5cc63          	blt	a1,a2,11410 <_vfprintf_r+0x638>
   1105c:	02028a63          	beqz	t0,11090 <_vfprintf_r+0x2b8>
   11060:	0a412603          	lw	a2,164(sp)
   11064:	07810593          	addi	a1,sp,120
   11068:	00b42023          	sw	a1,0(s0)
   1106c:	002a0a13          	addi	s4,s4,2
   11070:	00200593          	li	a1,2
   11074:	00160613          	addi	a2,a2,1
   11078:	00b42223          	sw	a1,4(s0)
   1107c:	0b412423          	sw	s4,168(sp)
   11080:	0ac12223          	sw	a2,164(sp)
   11084:	00700593          	li	a1,7
   11088:	00840413          	addi	s0,s0,8
   1108c:	52c5cae3          	blt	a1,a2,11dc0 <_vfprintf_r+0xfe8>
   11090:	08000613          	li	a2,128
   11094:	28cd80e3          	beq	s11,a2,11b14 <_vfprintf_r+0xd3c>
   11098:	41930db3          	sub	s11,t1,s9
   1109c:	37b046e3          	bgtz	s11,11c08 <_vfprintf_r+0xe30>
   110a0:	100b7613          	andi	a2,s6,256
   110a4:	06061ee3          	bnez	a2,11920 <_vfprintf_r+0xb48>
   110a8:	0a412783          	lw	a5,164(sp)
   110ac:	014c8733          	add	a4,s9,s4
   110b0:	01742023          	sw	s7,0(s0)
   110b4:	00178793          	addi	a5,a5,1
   110b8:	01942223          	sw	s9,4(s0)
   110bc:	0ae12423          	sw	a4,168(sp)
   110c0:	0af12223          	sw	a5,164(sp)
   110c4:	00700693          	li	a3,7
   110c8:	46f6c863          	blt	a3,a5,11538 <_vfprintf_r+0x760>
   110cc:	00840413          	addi	s0,s0,8
   110d0:	004b7813          	andi	a6,s6,4
   110d4:	00080663          	beqz	a6,110e0 <_vfprintf_r+0x308>
   110d8:	41890cb3          	sub	s9,s2,s8
   110dc:	51904ae3          	bgtz	s9,11df0 <_vfprintf_r+0x1018>
   110e0:	00090e93          	mv	t4,s2
   110e4:	01895463          	bge	s2,s8,110ec <_vfprintf_r+0x314>
   110e8:	000c0e93          	mv	t4,s8
   110ec:	00c12783          	lw	a5,12(sp)
   110f0:	01d787b3          	add	a5,a5,t4
   110f4:	00f12623          	sw	a5,12(sp)
   110f8:	16071c63          	bnez	a4,11270 <_vfprintf_r+0x498>
   110fc:	01012783          	lw	a5,16(sp)
   11100:	0a012223          	sw	zero,164(sp)
   11104:	00078863          	beqz	a5,11114 <_vfprintf_r+0x33c>
   11108:	01012583          	lw	a1,16(sp)
   1110c:	00098513          	mv	a0,s3
   11110:	12c050ef          	jal	ra,1623c <_free_r>
   11114:	0ac10413          	addi	s0,sp,172
   11118:	00048b93          	mv	s7,s1
   1111c:	df9ff06f          	j	10f14 <_vfprintf_r+0x13c>
   11120:	00812403          	lw	s0,8(sp)
   11124:	00098513          	mv	a0,s3
   11128:	00f12623          	sw	a5,12(sp)
   1112c:	00040593          	mv	a1,s0
   11130:	301020ef          	jal	ra,13c30 <__swsetup_r>
   11134:	00050463          	beqz	a0,1113c <_vfprintf_r+0x364>
   11138:	4f40206f          	j	1362c <_vfprintf_r+0x2854>
   1113c:	00c41703          	lh	a4,12(s0)
   11140:	00a00613          	li	a2,10
   11144:	00c12783          	lw	a5,12(sp)
   11148:	01a77693          	andi	a3,a4,26
   1114c:	d8c692e3          	bne	a3,a2,10ed0 <_vfprintf_r+0xf8>
   11150:	00812603          	lw	a2,8(sp)
   11154:	00e61683          	lh	a3,14(a2)
   11158:	d606cce3          	bltz	a3,10ed0 <_vfprintf_r+0xf8>
   1115c:	06462683          	lw	a3,100(a2)
   11160:	0016f693          	andi	a3,a3,1
   11164:	00069863          	bnez	a3,11174 <_vfprintf_r+0x39c>
   11168:	20077713          	andi	a4,a4,512
   1116c:	00071463          	bnez	a4,11174 <_vfprintf_r+0x39c>
   11170:	34d0106f          	j	12cbc <_vfprintf_r+0x1ee4>
   11174:	01412683          	lw	a3,20(sp)
   11178:	00812583          	lw	a1,8(sp)
   1117c:	00078613          	mv	a2,a5
   11180:	00098513          	mv	a0,s3
   11184:	065020ef          	jal	ra,139e8 <__sbprintf>
   11188:	00a12623          	sw	a0,12(sp)
   1118c:	1300006f          	j	112bc <_vfprintf_r+0x4e4>
   11190:	00098513          	mv	a0,s3
   11194:	500050ef          	jal	ra,16694 <_localeconv_r>
   11198:	00452783          	lw	a5,4(a0)
   1119c:	00078513          	mv	a0,a5
   111a0:	04f12623          	sw	a5,76(sp)
   111a4:	295080ef          	jal	ra,19c38 <strlen>
   111a8:	00050793          	mv	a5,a0
   111ac:	00098513          	mv	a0,s3
   111b0:	00078c93          	mv	s9,a5
   111b4:	04f12423          	sw	a5,72(sp)
   111b8:	4dc050ef          	jal	ra,16694 <_localeconv_r>
   111bc:	00852703          	lw	a4,8(a0)
   111c0:	04e12023          	sw	a4,64(sp)
   111c4:	000c8463          	beqz	s9,111cc <_vfprintf_r+0x3f4>
   111c8:	1ac0106f          	j	12374 <_vfprintf_r+0x159c>
   111cc:	0004ce03          	lbu	t3,0(s1)
   111d0:	dadff06f          	j	10f7c <_vfprintf_r+0x1a4>
   111d4:	00800613          	li	a2,8
   111d8:	00000593          	li	a1,0
   111dc:	09010513          	addi	a0,sp,144
   111e0:	a31ff0ef          	jal	ra,10c10 <memset>
   111e4:	00100513          	li	a0,1
   111e8:	00a484b3          	add	s1,s1,a0
   111ec:	d2dff06f          	j	10f18 <_vfprintf_r+0x140>
   111f0:	00050c13          	mv	s8,a0
   111f4:	41748cb3          	sub	s9,s1,s7
   111f8:	05748063          	beq	s1,s7,11238 <_vfprintf_r+0x460>
   111fc:	0a812a03          	lw	s4,168(sp)
   11200:	0a412683          	lw	a3,164(sp)
   11204:	01742023          	sw	s7,0(s0)
   11208:	019a0733          	add	a4,s4,s9
   1120c:	00168693          	addi	a3,a3,1
   11210:	01942223          	sw	s9,4(s0)
   11214:	0ae12423          	sw	a4,168(sp)
   11218:	0ad12223          	sw	a3,164(sp)
   1121c:	00700713          	li	a4,7
   11220:	00840413          	addi	s0,s0,8
   11224:	02d74863          	blt	a4,a3,11254 <_vfprintf_r+0x47c>
   11228:	00c12783          	lw	a5,12(sp)
   1122c:	019787b3          	add	a5,a5,s9
   11230:	00f12623          	sw	a5,12(sp)
   11234:	d20c14e3          	bnez	s8,10f5c <_vfprintf_r+0x184>
   11238:	0a812783          	lw	a5,168(sp)
   1123c:	00078463          	beqz	a5,11244 <_vfprintf_r+0x46c>
   11240:	2250106f          	j	12c64 <_vfprintf_r+0x1e8c>
   11244:	00812783          	lw	a5,8(sp)
   11248:	0a012223          	sw	zero,164(sp)
   1124c:	00c79783          	lh	a5,12(a5)
   11250:	0500006f          	j	112a0 <_vfprintf_r+0x4c8>
   11254:	00812583          	lw	a1,8(sp)
   11258:	0a010613          	addi	a2,sp,160
   1125c:	00098513          	mv	a0,s3
   11260:	71d080ef          	jal	ra,1a17c <__sprint_r>
   11264:	02051a63          	bnez	a0,11298 <_vfprintf_r+0x4c0>
   11268:	0ac10413          	addi	s0,sp,172
   1126c:	fbdff06f          	j	11228 <_vfprintf_r+0x450>
   11270:	00812583          	lw	a1,8(sp)
   11274:	0a010613          	addi	a2,sp,160
   11278:	00098513          	mv	a0,s3
   1127c:	701080ef          	jal	ra,1a17c <__sprint_r>
   11280:	e6050ee3          	beqz	a0,110fc <_vfprintf_r+0x324>
   11284:	01012f03          	lw	t5,16(sp)
   11288:	000f0863          	beqz	t5,11298 <_vfprintf_r+0x4c0>
   1128c:	000f0593          	mv	a1,t5
   11290:	00098513          	mv	a0,s3
   11294:	7a9040ef          	jal	ra,1623c <_free_r>
   11298:	00812783          	lw	a5,8(sp)
   1129c:	00c79783          	lh	a5,12(a5)
   112a0:	00812703          	lw	a4,8(sp)
   112a4:	06472703          	lw	a4,100(a4)
   112a8:	00177713          	andi	a4,a4,1
   112ac:	2a070663          	beqz	a4,11558 <_vfprintf_r+0x780>
   112b0:	0407f793          	andi	a5,a5,64
   112b4:	00078463          	beqz	a5,112bc <_vfprintf_r+0x4e4>
   112b8:	3a00206f          	j	13658 <_vfprintf_r+0x2880>
   112bc:	18c12083          	lw	ra,396(sp)
   112c0:	18812403          	lw	s0,392(sp)
   112c4:	00c12503          	lw	a0,12(sp)
   112c8:	18412483          	lw	s1,388(sp)
   112cc:	18012903          	lw	s2,384(sp)
   112d0:	17c12983          	lw	s3,380(sp)
   112d4:	17812a03          	lw	s4,376(sp)
   112d8:	17412a83          	lw	s5,372(sp)
   112dc:	17012b03          	lw	s6,368(sp)
   112e0:	16c12b83          	lw	s7,364(sp)
   112e4:	16812c03          	lw	s8,360(sp)
   112e8:	16412c83          	lw	s9,356(sp)
   112ec:	16012d03          	lw	s10,352(sp)
   112f0:	15c12d83          	lw	s11,348(sp)
   112f4:	19010113          	addi	sp,sp,400
   112f8:	00008067          	ret
   112fc:	008b7713          	andi	a4,s6,8
   11300:	000a0313          	mv	t1,s4
   11304:	00070463          	beqz	a4,1130c <_vfprintf_r+0x534>
   11308:	0180106f          	j	12320 <_vfprintf_r+0x1548>
   1130c:	01412783          	lw	a5,20(sp)
   11310:	00778a13          	addi	s4,a5,7
   11314:	ff8a7a13          	andi	s4,s4,-8
   11318:	000a2783          	lw	a5,0(s4)
   1131c:	02f12623          	sw	a5,44(sp)
   11320:	004a2783          	lw	a5,4(s4)
   11324:	02f12823          	sw	a5,48(sp)
   11328:	008a0793          	addi	a5,s4,8
   1132c:	00f12a23          	sw	a5,20(sp)
   11330:	03012a03          	lw	s4,48(sp)
   11334:	00012697          	auipc	a3,0x12
   11338:	74c68693          	addi	a3,a3,1868 # 23a80 <__SDATA_BEGIN__>
   1133c:	0006ac03          	lw	s8,0(a3)
   11340:	001a1713          	slli	a4,s4,0x1
   11344:	00175d93          	srli	s11,a4,0x1
   11348:	0046ac83          	lw	s9,4(a3)
   1134c:	02c12703          	lw	a4,44(sp)
   11350:	000d8593          	mv	a1,s11
   11354:	000c0613          	mv	a2,s8
   11358:	00070513          	mv	a0,a4
   1135c:	000c8693          	mv	a3,s9
   11360:	00612c23          	sw	t1,24(sp)
   11364:	01c12823          	sw	t3,16(sp)
   11368:	5310f0ef          	jal	ra,21098 <__unorddf2>
   1136c:	01012e03          	lw	t3,16(sp)
   11370:	01812303          	lw	t1,24(sp)
   11374:	00050463          	beqz	a0,1137c <_vfprintf_r+0x5a4>
   11378:	3580106f          	j	126d0 <_vfprintf_r+0x18f8>
   1137c:	02c12683          	lw	a3,44(sp)
   11380:	000d8593          	mv	a1,s11
   11384:	000c0613          	mv	a2,s8
   11388:	00068513          	mv	a0,a3
   1138c:	000c8693          	mv	a3,s9
   11390:	3190e0ef          	jal	ra,1fea8 <__ledf2>
   11394:	01012e03          	lw	t3,16(sp)
   11398:	01812303          	lw	t1,24(sp)
   1139c:	00a04463          	bgtz	a0,113a4 <_vfprintf_r+0x5cc>
   113a0:	3300106f          	j	126d0 <_vfprintf_r+0x18f8>
   113a4:	02c12703          	lw	a4,44(sp)
   113a8:	000a0593          	mv	a1,s4
   113ac:	00000613          	li	a2,0
   113b0:	00070513          	mv	a0,a4
   113b4:	00000693          	li	a3,0
   113b8:	2f10e0ef          	jal	ra,1fea8 <__ledf2>
   113bc:	01012e03          	lw	t3,16(sp)
   113c0:	00055463          	bgez	a0,113c8 <_vfprintf_r+0x5f0>
   113c4:	58d0106f          	j	13150 <_vfprintf_r+0x2378>
   113c8:	07714603          	lbu	a2,119(sp)
   113cc:	04700713          	li	a4,71
   113d0:	00010b97          	auipc	s7,0x10
   113d4:	440b8b93          	addi	s7,s7,1088 # 21810 <__clzsi2+0xa8>
   113d8:	01c75663          	bge	a4,t3,113e4 <_vfprintf_r+0x60c>
   113dc:	00010b97          	auipc	s7,0x10
   113e0:	438b8b93          	addi	s7,s7,1080 # 21814 <__clzsi2+0xac>
   113e4:	00012823          	sw	zero,16(sp)
   113e8:	02012423          	sw	zero,40(sp)
   113ec:	02012223          	sw	zero,36(sp)
   113f0:	00012c23          	sw	zero,24(sp)
   113f4:	f7fb7b13          	andi	s6,s6,-129
   113f8:	00300c13          	li	s8,3
   113fc:	00300c93          	li	s9,3
   11400:	00000313          	li	t1,0
   11404:	c00602e3          	beqz	a2,11008 <_vfprintf_r+0x230>
   11408:	001c0c13          	addi	s8,s8,1
   1140c:	bfdff06f          	j	11008 <_vfprintf_r+0x230>
   11410:	00812583          	lw	a1,8(sp)
   11414:	0a010613          	addi	a2,sp,160
   11418:	00098513          	mv	a0,s3
   1141c:	04612c23          	sw	t1,88(sp)
   11420:	05c12a23          	sw	t3,84(sp)
   11424:	04512823          	sw	t0,80(sp)
   11428:	555080ef          	jal	ra,1a17c <__sprint_r>
   1142c:	e4051ce3          	bnez	a0,11284 <_vfprintf_r+0x4ac>
   11430:	0a812a03          	lw	s4,168(sp)
   11434:	05812303          	lw	t1,88(sp)
   11438:	05412e03          	lw	t3,84(sp)
   1143c:	05012283          	lw	t0,80(sp)
   11440:	0ac10413          	addi	s0,sp,172
   11444:	c19ff06f          	j	1105c <_vfprintf_r+0x284>
   11448:	02012783          	lw	a5,32(sp)
   1144c:	00100693          	li	a3,1
   11450:	00840d93          	addi	s11,s0,8
   11454:	001a0713          	addi	a4,s4,1
   11458:	3cf6dee3          	bge	a3,a5,12034 <_vfprintf_r+0x125c>
   1145c:	0a412c83          	lw	s9,164(sp)
   11460:	00100693          	li	a3,1
   11464:	00d42223          	sw	a3,4(s0)
   11468:	001c8c93          	addi	s9,s9,1
   1146c:	01742023          	sw	s7,0(s0)
   11470:	0ae12423          	sw	a4,168(sp)
   11474:	0b912223          	sw	s9,164(sp)
   11478:	00700693          	li	a3,7
   1147c:	0196d463          	bge	a3,s9,11484 <_vfprintf_r+0x6ac>
   11480:	0e00106f          	j	12560 <_vfprintf_r+0x1788>
   11484:	03412783          	lw	a5,52(sp)
   11488:	03812683          	lw	a3,56(sp)
   1148c:	001c8c93          	addi	s9,s9,1
   11490:	00e78733          	add	a4,a5,a4
   11494:	00dda023          	sw	a3,0(s11)
   11498:	00fda223          	sw	a5,4(s11)
   1149c:	0ae12423          	sw	a4,168(sp)
   114a0:	0b912223          	sw	s9,164(sp)
   114a4:	00700693          	li	a3,7
   114a8:	008d8d93          	addi	s11,s11,8
   114ac:	0196d463          	bge	a3,s9,114b4 <_vfprintf_r+0x6dc>
   114b0:	0d80106f          	j	12588 <_vfprintf_r+0x17b0>
   114b4:	02c12603          	lw	a2,44(sp)
   114b8:	03012683          	lw	a3,48(sp)
   114bc:	00e12c23          	sw	a4,24(sp)
   114c0:	00060513          	mv	a0,a2
   114c4:	00068593          	mv	a1,a3
   114c8:	00000613          	li	a2,0
   114cc:	00000693          	li	a3,0
   114d0:	0490e0ef          	jal	ra,1fd18 <__eqdf2>
   114d4:	02012783          	lw	a5,32(sp)
   114d8:	01812703          	lw	a4,24(sp)
   114dc:	fff78413          	addi	s0,a5,-1
   114e0:	3a0500e3          	beqz	a0,12080 <_vfprintf_r+0x12a8>
   114e4:	001b8793          	addi	a5,s7,1
   114e8:	001c8c93          	addi	s9,s9,1
   114ec:	00870733          	add	a4,a4,s0
   114f0:	00fda023          	sw	a5,0(s11)
   114f4:	008da223          	sw	s0,4(s11)
   114f8:	0ae12423          	sw	a4,168(sp)
   114fc:	0b912223          	sw	s9,164(sp)
   11500:	00700793          	li	a5,7
   11504:	008d8d93          	addi	s11,s11,8
   11508:	3597cae3          	blt	a5,s9,1205c <_vfprintf_r+0x1284>
   1150c:	04412683          	lw	a3,68(sp)
   11510:	08810793          	addi	a5,sp,136
   11514:	001c8c93          	addi	s9,s9,1
   11518:	00e68733          	add	a4,a3,a4
   1151c:	00fda023          	sw	a5,0(s11)
   11520:	00dda223          	sw	a3,4(s11)
   11524:	0ae12423          	sw	a4,168(sp)
   11528:	0b912223          	sw	s9,164(sp)
   1152c:	00700793          	li	a5,7
   11530:	008d8413          	addi	s0,s11,8
   11534:	b997dee3          	bge	a5,s9,110d0 <_vfprintf_r+0x2f8>
   11538:	00812583          	lw	a1,8(sp)
   1153c:	0a010613          	addi	a2,sp,160
   11540:	00098513          	mv	a0,s3
   11544:	439080ef          	jal	ra,1a17c <__sprint_r>
   11548:	d2051ee3          	bnez	a0,11284 <_vfprintf_r+0x4ac>
   1154c:	0a812703          	lw	a4,168(sp)
   11550:	0ac10413          	addi	s0,sp,172
   11554:	b7dff06f          	j	110d0 <_vfprintf_r+0x2f8>
   11558:	2007f713          	andi	a4,a5,512
   1155c:	d4071ae3          	bnez	a4,112b0 <_vfprintf_r+0x4d8>
   11560:	00812403          	lw	s0,8(sp)
   11564:	05842503          	lw	a0,88(s0)
   11568:	5e1050ef          	jal	ra,17348 <__retarget_lock_release_recursive>
   1156c:	00c41783          	lh	a5,12(s0)
   11570:	d41ff06f          	j	112b0 <_vfprintf_r+0x4d8>
   11574:	00098513          	mv	a0,s3
   11578:	031040ef          	jal	ra,15da8 <__sinit>
   1157c:	00c12783          	lw	a5,12(sp)
   11580:	8ddff06f          	j	10e5c <_vfprintf_r+0x84>
   11584:	0004ce03          	lbu	t3,0(s1)
   11588:	020b6b13          	ori	s6,s6,32
   1158c:	9f1ff06f          	j	10f7c <_vfprintf_r+0x1a4>
   11590:	01412703          	lw	a4,20(sp)
   11594:	04300793          	li	a5,67
   11598:	00470a13          	addi	s4,a4,4
   1159c:	72fe0ae3          	beq	t3,a5,124d0 <_vfprintf_r+0x16f8>
   115a0:	010b7793          	andi	a5,s6,16
   115a4:	720796e3          	bnez	a5,124d0 <_vfprintf_r+0x16f8>
   115a8:	01412783          	lw	a5,20(sp)
   115ac:	00100c13          	li	s8,1
   115b0:	00100c93          	li	s9,1
   115b4:	0007a783          	lw	a5,0(a5)
   115b8:	0ec10b93          	addi	s7,sp,236
   115bc:	0ef10623          	sb	a5,236(sp)
   115c0:	06010ba3          	sb	zero,119(sp)
   115c4:	01412a23          	sw	s4,20(sp)
   115c8:	00000613          	li	a2,0
   115cc:	00012823          	sw	zero,16(sp)
   115d0:	00000313          	li	t1,0
   115d4:	02012423          	sw	zero,40(sp)
   115d8:	02012223          	sw	zero,36(sp)
   115dc:	00012c23          	sw	zero,24(sp)
   115e0:	a29ff06f          	j	11008 <_vfprintf_r+0x230>
   115e4:	01412783          	lw	a5,20(sp)
   115e8:	06010ba3          	sb	zero,119(sp)
   115ec:	000a0313          	mv	t1,s4
   115f0:	0007ab83          	lw	s7,0(a5)
   115f4:	00478d93          	addi	s11,a5,4
   115f8:	6a0b80e3          	beqz	s7,12498 <_vfprintf_r+0x16c0>
   115fc:	05300713          	li	a4,83
   11600:	00ee1463          	bne	t3,a4,11608 <_vfprintf_r+0x830>
   11604:	2f80106f          	j	128fc <_vfprintf_r+0x1b24>
   11608:	010b7793          	andi	a5,s6,16
   1160c:	00f12c23          	sw	a5,24(sp)
   11610:	00078463          	beqz	a5,11618 <_vfprintf_r+0x840>
   11614:	2e80106f          	j	128fc <_vfprintf_r+0x1b24>
   11618:	fff00713          	li	a4,-1
   1161c:	00ea1463          	bne	s4,a4,11624 <_vfprintf_r+0x84c>
   11620:	6600106f          	j	12c80 <_vfprintf_r+0x1ea8>
   11624:	000a0613          	mv	a2,s4
   11628:	00000593          	li	a1,0
   1162c:	000b8513          	mv	a0,s7
   11630:	01412a23          	sw	s4,20(sp)
   11634:	065060ef          	jal	ra,17e98 <memchr>
   11638:	00a12823          	sw	a0,16(sp)
   1163c:	01412303          	lw	t1,20(sp)
   11640:	00051463          	bnez	a0,11648 <_vfprintf_r+0x870>
   11644:	2a40206f          	j	138e8 <_vfprintf_r+0x2b10>
   11648:	01012783          	lw	a5,16(sp)
   1164c:	41778cb3          	sub	s9,a5,s7
   11650:	07714603          	lbu	a2,119(sp)
   11654:	fffcc893          	not	a7,s9
   11658:	41f8d893          	srai	a7,a7,0x1f
   1165c:	01b12a23          	sw	s11,20(sp)
   11660:	02012423          	sw	zero,40(sp)
   11664:	02012223          	sw	zero,36(sp)
   11668:	00012823          	sw	zero,16(sp)
   1166c:	011cfc33          	and	s8,s9,a7
   11670:	00000313          	li	t1,0
   11674:	07300e13          	li	t3,115
   11678:	980608e3          	beqz	a2,11008 <_vfprintf_r+0x230>
   1167c:	d8dff06f          	j	11408 <_vfprintf_r+0x630>
   11680:	01412783          	lw	a5,20(sp)
   11684:	0007a903          	lw	s2,0(a5)
   11688:	00478793          	addi	a5,a5,4
   1168c:	380958e3          	bgez	s2,1221c <_vfprintf_r+0x1444>
   11690:	41200933          	neg	s2,s2
   11694:	00f12a23          	sw	a5,20(sp)
   11698:	0004ce03          	lbu	t3,0(s1)
   1169c:	004b6b13          	ori	s6,s6,4
   116a0:	8ddff06f          	j	10f7c <_vfprintf_r+0x1a4>
   116a4:	02b00793          	li	a5,43
   116a8:	0004ce03          	lbu	t3,0(s1)
   116ac:	06f10ba3          	sb	a5,119(sp)
   116b0:	8cdff06f          	j	10f7c <_vfprintf_r+0x1a4>
   116b4:	0004ce03          	lbu	t3,0(s1)
   116b8:	080b6b13          	ori	s6,s6,128
   116bc:	8c1ff06f          	j	10f7c <_vfprintf_r+0x1a4>
   116c0:	0004ce03          	lbu	t3,0(s1)
   116c4:	02a00793          	li	a5,42
   116c8:	00148713          	addi	a4,s1,1
   116cc:	00fe1463          	bne	t3,a5,116d4 <_vfprintf_r+0x8fc>
   116d0:	2680206f          	j	13938 <_vfprintf_r+0x2b60>
   116d4:	fd0e0693          	addi	a3,t3,-48
   116d8:	00900793          	li	a5,9
   116dc:	00070493          	mv	s1,a4
   116e0:	00000a13          	li	s4,0
   116e4:	00900713          	li	a4,9
   116e8:	88d7ece3          	bltu	a5,a3,10f80 <_vfprintf_r+0x1a8>
   116ec:	0004ce03          	lbu	t3,0(s1)
   116f0:	002a1793          	slli	a5,s4,0x2
   116f4:	014787b3          	add	a5,a5,s4
   116f8:	00179793          	slli	a5,a5,0x1
   116fc:	00d78a33          	add	s4,a5,a3
   11700:	fd0e0693          	addi	a3,t3,-48
   11704:	00148493          	addi	s1,s1,1
   11708:	fed772e3          	bgeu	a4,a3,116ec <_vfprintf_r+0x914>
   1170c:	875ff06f          	j	10f80 <_vfprintf_r+0x1a8>
   11710:	0004ce03          	lbu	t3,0(s1)
   11714:	001b6b13          	ori	s6,s6,1
   11718:	865ff06f          	j	10f7c <_vfprintf_r+0x1a4>
   1171c:	07714783          	lbu	a5,119(sp)
   11720:	0004ce03          	lbu	t3,0(s1)
   11724:	84079ce3          	bnez	a5,10f7c <_vfprintf_r+0x1a4>
   11728:	02000793          	li	a5,32
   1172c:	06f10ba3          	sb	a5,119(sp)
   11730:	84dff06f          	j	10f7c <_vfprintf_r+0x1a4>
   11734:	000a0313          	mv	t1,s4
   11738:	010b6b13          	ori	s6,s6,16
   1173c:	020b7793          	andi	a5,s6,32
   11740:	26078ae3          	beqz	a5,121b4 <_vfprintf_r+0x13dc>
   11744:	01412783          	lw	a5,20(sp)
   11748:	00778a13          	addi	s4,a5,7
   1174c:	ff8a7a13          	andi	s4,s4,-8
   11750:	000a2d83          	lw	s11,0(s4)
   11754:	004a2c83          	lw	s9,4(s4)
   11758:	008a0793          	addi	a5,s4,8
   1175c:	00f12a23          	sw	a5,20(sp)
   11760:	bffb7613          	andi	a2,s6,-1025
   11764:	00000793          	li	a5,0
   11768:	00000713          	li	a4,0
   1176c:	06e10ba3          	sb	a4,119(sp)
   11770:	fff00713          	li	a4,-1
   11774:	2ce30c63          	beq	t1,a4,11a4c <_vfprintf_r+0xc74>
   11778:	019de733          	or	a4,s11,s9
   1177c:	f7f67b13          	andi	s6,a2,-129
   11780:	2c071463          	bnez	a4,11a48 <_vfprintf_r+0xc70>
   11784:	32031a63          	bnez	t1,11ab8 <_vfprintf_r+0xce0>
   11788:	5c0796e3          	bnez	a5,12554 <_vfprintf_r+0x177c>
   1178c:	00167c93          	andi	s9,a2,1
   11790:	15010b93          	addi	s7,sp,336
   11794:	300c9ae3          	bnez	s9,122a8 <_vfprintf_r+0x14d0>
   11798:	07714603          	lbu	a2,119(sp)
   1179c:	00030c13          	mv	s8,t1
   117a0:	01935463          	bge	t1,s9,117a8 <_vfprintf_r+0x9d0>
   117a4:	000c8c13          	mv	s8,s9
   117a8:	00012823          	sw	zero,16(sp)
   117ac:	02012423          	sw	zero,40(sp)
   117b0:	02012223          	sw	zero,36(sp)
   117b4:	00012c23          	sw	zero,24(sp)
   117b8:	840608e3          	beqz	a2,11008 <_vfprintf_r+0x230>
   117bc:	c4dff06f          	j	11408 <_vfprintf_r+0x630>
   117c0:	0004ce03          	lbu	t3,0(s1)
   117c4:	06800793          	li	a5,104
   117c8:	4cfe00e3          	beq	t3,a5,12488 <_vfprintf_r+0x16b0>
   117cc:	040b6b13          	ori	s6,s6,64
   117d0:	facff06f          	j	10f7c <_vfprintf_r+0x1a4>
   117d4:	000a0313          	mv	t1,s4
   117d8:	010b6613          	ori	a2,s6,16
   117dc:	02067793          	andi	a5,a2,32
   117e0:	140786e3          	beqz	a5,1212c <_vfprintf_r+0x1354>
   117e4:	01412783          	lw	a5,20(sp)
   117e8:	00778a13          	addi	s4,a5,7
   117ec:	ff8a7a13          	andi	s4,s4,-8
   117f0:	008a0793          	addi	a5,s4,8
   117f4:	00f12a23          	sw	a5,20(sp)
   117f8:	000a2d83          	lw	s11,0(s4)
   117fc:	004a2c83          	lw	s9,4(s4)
   11800:	00100793          	li	a5,1
   11804:	f65ff06f          	j	11768 <_vfprintf_r+0x990>
   11808:	0004ce03          	lbu	t3,0(s1)
   1180c:	06c00793          	li	a5,108
   11810:	42fe04e3          	beq	t3,a5,12438 <_vfprintf_r+0x1660>
   11814:	010b6b13          	ori	s6,s6,16
   11818:	f64ff06f          	j	10f7c <_vfprintf_r+0x1a4>
   1181c:	0004ce03          	lbu	t3,0(s1)
   11820:	008b6b13          	ori	s6,s6,8
   11824:	f58ff06f          	j	10f7c <_vfprintf_r+0x1a4>
   11828:	000a0313          	mv	t1,s4
   1182c:	010b6b13          	ori	s6,s6,16
   11830:	020b7793          	andi	a5,s6,32
   11834:	120786e3          	beqz	a5,12160 <_vfprintf_r+0x1388>
   11838:	01412783          	lw	a5,20(sp)
   1183c:	00778a13          	addi	s4,a5,7
   11840:	ff8a7a13          	andi	s4,s4,-8
   11844:	004a2783          	lw	a5,4(s4)
   11848:	000a2d83          	lw	s11,0(s4)
   1184c:	008a0713          	addi	a4,s4,8
   11850:	00e12a23          	sw	a4,20(sp)
   11854:	00078c93          	mv	s9,a5
   11858:	1207cee3          	bltz	a5,12194 <_vfprintf_r+0x13bc>
   1185c:	fff00793          	li	a5,-1
   11860:	000b0613          	mv	a2,s6
   11864:	02f30263          	beq	t1,a5,11888 <_vfprintf_r+0xab0>
   11868:	019de7b3          	or	a5,s11,s9
   1186c:	f7fb7613          	andi	a2,s6,-129
   11870:	00079c63          	bnez	a5,11888 <_vfprintf_r+0xab0>
   11874:	02031063          	bnez	t1,11894 <_vfprintf_r+0xabc>
   11878:	00000c93          	li	s9,0
   1187c:	00060b13          	mv	s6,a2
   11880:	15010b93          	addi	s7,sp,336
   11884:	f15ff06f          	j	11798 <_vfprintf_r+0x9c0>
   11888:	520c9ce3          	bnez	s9,125c0 <_vfprintf_r+0x17e8>
   1188c:	00900793          	li	a5,9
   11890:	53b7e8e3          	bltu	a5,s11,125c0 <_vfprintf_r+0x17e8>
   11894:	030d8d93          	addi	s11,s11,48
   11898:	15b107a3          	sb	s11,335(sp)
   1189c:	00060b13          	mv	s6,a2
   118a0:	00100c93          	li	s9,1
   118a4:	14f10b93          	addi	s7,sp,335
   118a8:	ef1ff06f          	j	11798 <_vfprintf_r+0x9c0>
   118ac:	01412703          	lw	a4,20(sp)
   118b0:	ffff87b7          	lui	a5,0xffff8
   118b4:	8307c793          	xori	a5,a5,-2000
   118b8:	06f11c23          	sh	a5,120(sp)
   118bc:	00470793          	addi	a5,a4,4
   118c0:	00f12a23          	sw	a5,20(sp)
   118c4:	00010797          	auipc	a5,0x10
   118c8:	f5c78793          	addi	a5,a5,-164 # 21820 <__clzsi2+0xb8>
   118cc:	02f12e23          	sw	a5,60(sp)
   118d0:	00072d83          	lw	s11,0(a4)
   118d4:	000a0313          	mv	t1,s4
   118d8:	00000c93          	li	s9,0
   118dc:	002b6613          	ori	a2,s6,2
   118e0:	00200793          	li	a5,2
   118e4:	07800e13          	li	t3,120
   118e8:	e81ff06f          	j	11768 <_vfprintf_r+0x990>
   118ec:	020b7793          	andi	a5,s6,32
   118f0:	200782e3          	beqz	a5,122f4 <_vfprintf_r+0x151c>
   118f4:	01412783          	lw	a5,20(sp)
   118f8:	00c12683          	lw	a3,12(sp)
   118fc:	0007a783          	lw	a5,0(a5)
   11900:	41f6d713          	srai	a4,a3,0x1f
   11904:	00d7a023          	sw	a3,0(a5)
   11908:	00e7a223          	sw	a4,4(a5)
   1190c:	01412783          	lw	a5,20(sp)
   11910:	00048b93          	mv	s7,s1
   11914:	00478793          	addi	a5,a5,4
   11918:	00f12a23          	sw	a5,20(sp)
   1191c:	df8ff06f          	j	10f14 <_vfprintf_r+0x13c>
   11920:	06500693          	li	a3,101
   11924:	b3c6d2e3          	bge	a3,t3,11448 <_vfprintf_r+0x670>
   11928:	02c12603          	lw	a2,44(sp)
   1192c:	03012683          	lw	a3,48(sp)
   11930:	00060513          	mv	a0,a2
   11934:	00068593          	mv	a1,a3
   11938:	00000613          	li	a2,0
   1193c:	00000693          	li	a3,0
   11940:	3d80e0ef          	jal	ra,1fd18 <__eqdf2>
   11944:	54051e63          	bnez	a0,11ea0 <_vfprintf_r+0x10c8>
   11948:	0a412783          	lw	a5,164(sp)
   1194c:	00010697          	auipc	a3,0x10
   11950:	f0468693          	addi	a3,a3,-252 # 21850 <__clzsi2+0xe8>
   11954:	00d42023          	sw	a3,0(s0)
   11958:	001a0a13          	addi	s4,s4,1
   1195c:	00100693          	li	a3,1
   11960:	00178793          	addi	a5,a5,1
   11964:	00d42223          	sw	a3,4(s0)
   11968:	0b412423          	sw	s4,168(sp)
   1196c:	0af12223          	sw	a5,164(sp)
   11970:	00700693          	li	a3,7
   11974:	00840413          	addi	s0,s0,8
   11978:	76f6c0e3          	blt	a3,a5,128d8 <_vfprintf_r+0x1b00>
   1197c:	07c12783          	lw	a5,124(sp)
   11980:	02012703          	lw	a4,32(sp)
   11984:	06e7dee3          	bge	a5,a4,12200 <_vfprintf_r+0x1428>
   11988:	03812783          	lw	a5,56(sp)
   1198c:	03412683          	lw	a3,52(sp)
   11990:	00840413          	addi	s0,s0,8
   11994:	fef42c23          	sw	a5,-8(s0)
   11998:	0a412783          	lw	a5,164(sp)
   1199c:	01468733          	add	a4,a3,s4
   119a0:	fed42e23          	sw	a3,-4(s0)
   119a4:	00178793          	addi	a5,a5,1
   119a8:	0ae12423          	sw	a4,168(sp)
   119ac:	0af12223          	sw	a5,164(sp)
   119b0:	00700693          	li	a3,7
   119b4:	2af6c8e3          	blt	a3,a5,12464 <_vfprintf_r+0x168c>
   119b8:	02012783          	lw	a5,32(sp)
   119bc:	fff78c93          	addi	s9,a5,-1
   119c0:	f1905863          	blez	s9,110d0 <_vfprintf_r+0x2f8>
   119c4:	01000693          	li	a3,16
   119c8:	0a412783          	lw	a5,164(sp)
   119cc:	00010a17          	auipc	s4,0x10
   119d0:	08ca0a13          	addi	s4,s4,140 # 21a58 <zeroes.0>
   119d4:	0196c463          	blt	a3,s9,119dc <_vfprintf_r+0xc04>
   119d8:	06c0106f          	j	12a44 <_vfprintf_r+0x1c6c>
   119dc:	000a0693          	mv	a3,s4
   119e0:	01000d93          	li	s11,16
   119e4:	00090a13          	mv	s4,s2
   119e8:	00700b93          	li	s7,7
   119ec:	00048913          	mv	s2,s1
   119f0:	00068493          	mv	s1,a3
   119f4:	0100006f          	j	11a04 <_vfprintf_r+0xc2c>
   119f8:	ff0c8c93          	addi	s9,s9,-16
   119fc:	019dc463          	blt	s11,s9,11a04 <_vfprintf_r+0xc2c>
   11a00:	0340106f          	j	12a34 <_vfprintf_r+0x1c5c>
   11a04:	01070713          	addi	a4,a4,16
   11a08:	00178793          	addi	a5,a5,1
   11a0c:	00942023          	sw	s1,0(s0)
   11a10:	01b42223          	sw	s11,4(s0)
   11a14:	0ae12423          	sw	a4,168(sp)
   11a18:	0af12223          	sw	a5,164(sp)
   11a1c:	00840413          	addi	s0,s0,8
   11a20:	fcfbdce3          	bge	s7,a5,119f8 <_vfprintf_r+0xc20>
   11a24:	00812583          	lw	a1,8(sp)
   11a28:	0a010613          	addi	a2,sp,160
   11a2c:	00098513          	mv	a0,s3
   11a30:	74c080ef          	jal	ra,1a17c <__sprint_r>
   11a34:	840518e3          	bnez	a0,11284 <_vfprintf_r+0x4ac>
   11a38:	0a812703          	lw	a4,168(sp)
   11a3c:	0a412783          	lw	a5,164(sp)
   11a40:	0ac10413          	addi	s0,sp,172
   11a44:	fb5ff06f          	j	119f8 <_vfprintf_r+0xc20>
   11a48:	000b0613          	mv	a2,s6
   11a4c:	00100713          	li	a4,1
   11a50:	e2e78ce3          	beq	a5,a4,11888 <_vfprintf_r+0xab0>
   11a54:	00200713          	li	a4,2
   11a58:	06e78c63          	beq	a5,a4,11ad0 <_vfprintf_r+0xcf8>
   11a5c:	15010b93          	addi	s7,sp,336
   11a60:	01dc9793          	slli	a5,s9,0x1d
   11a64:	007df713          	andi	a4,s11,7
   11a68:	003ddd93          	srli	s11,s11,0x3
   11a6c:	03070713          	addi	a4,a4,48
   11a70:	01b7edb3          	or	s11,a5,s11
   11a74:	003cdc93          	srli	s9,s9,0x3
   11a78:	feeb8fa3          	sb	a4,-1(s7)
   11a7c:	019de7b3          	or	a5,s11,s9
   11a80:	000b8593          	mv	a1,s7
   11a84:	fffb8b93          	addi	s7,s7,-1
   11a88:	fc079ce3          	bnez	a5,11a60 <_vfprintf_r+0xc88>
   11a8c:	00167693          	andi	a3,a2,1
   11a90:	06068a63          	beqz	a3,11b04 <_vfprintf_r+0xd2c>
   11a94:	03000693          	li	a3,48
   11a98:	06d70663          	beq	a4,a3,11b04 <_vfprintf_r+0xd2c>
   11a9c:	ffe58593          	addi	a1,a1,-2
   11aa0:	15010793          	addi	a5,sp,336
   11aa4:	fedb8fa3          	sb	a3,-1(s7)
   11aa8:	40b78cb3          	sub	s9,a5,a1
   11aac:	00060b13          	mv	s6,a2
   11ab0:	00058b93          	mv	s7,a1
   11ab4:	ce5ff06f          	j	11798 <_vfprintf_r+0x9c0>
   11ab8:	00100713          	li	a4,1
   11abc:	00e79463          	bne	a5,a4,11ac4 <_vfprintf_r+0xcec>
   11ac0:	3a50106f          	j	13664 <_vfprintf_r+0x288c>
   11ac4:	00200713          	li	a4,2
   11ac8:	000b0613          	mv	a2,s6
   11acc:	f8e798e3          	bne	a5,a4,11a5c <_vfprintf_r+0xc84>
   11ad0:	03c12683          	lw	a3,60(sp)
   11ad4:	15010b93          	addi	s7,sp,336
   11ad8:	00fdf793          	andi	a5,s11,15
   11adc:	00f687b3          	add	a5,a3,a5
   11ae0:	0007c703          	lbu	a4,0(a5)
   11ae4:	004ddd93          	srli	s11,s11,0x4
   11ae8:	01cc9793          	slli	a5,s9,0x1c
   11aec:	01b7edb3          	or	s11,a5,s11
   11af0:	004cdc93          	srli	s9,s9,0x4
   11af4:	feeb8fa3          	sb	a4,-1(s7)
   11af8:	019de7b3          	or	a5,s11,s9
   11afc:	fffb8b93          	addi	s7,s7,-1
   11b00:	fc079ce3          	bnez	a5,11ad8 <_vfprintf_r+0xd00>
   11b04:	15010793          	addi	a5,sp,336
   11b08:	41778cb3          	sub	s9,a5,s7
   11b0c:	00060b13          	mv	s6,a2
   11b10:	c89ff06f          	j	11798 <_vfprintf_r+0x9c0>
   11b14:	41890db3          	sub	s11,s2,s8
   11b18:	d9b05063          	blez	s11,11098 <_vfprintf_r+0x2c0>
   11b1c:	01000593          	li	a1,16
   11b20:	000a0713          	mv	a4,s4
   11b24:	0a412603          	lw	a2,164(sp)
   11b28:	00010a17          	auipc	s4,0x10
   11b2c:	f30a0a13          	addi	s4,s4,-208 # 21a58 <zeroes.0>
   11b30:	0bb5d463          	bge	a1,s11,11bd8 <_vfprintf_r+0xe00>
   11b34:	04912823          	sw	s1,80(sp)
   11b38:	00040793          	mv	a5,s0
   11b3c:	000a0493          	mv	s1,s4
   11b40:	000d8413          	mv	s0,s11
   11b44:	00090a13          	mv	s4,s2
   11b48:	000b8d93          	mv	s11,s7
   11b4c:	01000f93          	li	t6,16
   11b50:	00700293          	li	t0,7
   11b54:	00030b93          	mv	s7,t1
   11b58:	000e0913          	mv	s2,t3
   11b5c:	00c0006f          	j	11b68 <_vfprintf_r+0xd90>
   11b60:	ff040413          	addi	s0,s0,-16
   11b64:	048fda63          	bge	t6,s0,11bb8 <_vfprintf_r+0xde0>
   11b68:	01070713          	addi	a4,a4,16
   11b6c:	00160613          	addi	a2,a2,1
   11b70:	0097a023          	sw	s1,0(a5)
   11b74:	01f7a223          	sw	t6,4(a5)
   11b78:	0ae12423          	sw	a4,168(sp)
   11b7c:	0ac12223          	sw	a2,164(sp)
   11b80:	00878793          	addi	a5,a5,8
   11b84:	fcc2dee3          	bge	t0,a2,11b60 <_vfprintf_r+0xd88>
   11b88:	00812583          	lw	a1,8(sp)
   11b8c:	0a010613          	addi	a2,sp,160
   11b90:	00098513          	mv	a0,s3
   11b94:	5e8080ef          	jal	ra,1a17c <__sprint_r>
   11b98:	ee051663          	bnez	a0,11284 <_vfprintf_r+0x4ac>
   11b9c:	01000f93          	li	t6,16
   11ba0:	ff040413          	addi	s0,s0,-16
   11ba4:	0a812703          	lw	a4,168(sp)
   11ba8:	0a412603          	lw	a2,164(sp)
   11bac:	0ac10793          	addi	a5,sp,172
   11bb0:	00700293          	li	t0,7
   11bb4:	fa8fcae3          	blt	t6,s0,11b68 <_vfprintf_r+0xd90>
   11bb8:	00090e13          	mv	t3,s2
   11bbc:	000a0913          	mv	s2,s4
   11bc0:	00048a13          	mv	s4,s1
   11bc4:	05012483          	lw	s1,80(sp)
   11bc8:	000b8313          	mv	t1,s7
   11bcc:	000d8b93          	mv	s7,s11
   11bd0:	00040d93          	mv	s11,s0
   11bd4:	00078413          	mv	s0,a5
   11bd8:	00ed8733          	add	a4,s11,a4
   11bdc:	00160613          	addi	a2,a2,1
   11be0:	01442023          	sw	s4,0(s0)
   11be4:	01b42223          	sw	s11,4(s0)
   11be8:	0ae12423          	sw	a4,168(sp)
   11bec:	0ac12223          	sw	a2,164(sp)
   11bf0:	00700593          	li	a1,7
   11bf4:	7ac5c263          	blt	a1,a2,12398 <_vfprintf_r+0x15c0>
   11bf8:	41930db3          	sub	s11,t1,s9
   11bfc:	00840413          	addi	s0,s0,8
   11c00:	00070a13          	mv	s4,a4
   11c04:	c9b05e63          	blez	s11,110a0 <_vfprintf_r+0x2c8>
   11c08:	01000593          	li	a1,16
   11c0c:	000a0713          	mv	a4,s4
   11c10:	0a412603          	lw	a2,164(sp)
   11c14:	00010a17          	auipc	s4,0x10
   11c18:	e44a0a13          	addi	s4,s4,-444 # 21a58 <zeroes.0>
   11c1c:	09b5dc63          	bge	a1,s11,11cb4 <_vfprintf_r+0xedc>
   11c20:	00040793          	mv	a5,s0
   11c24:	01000f13          	li	t5,16
   11c28:	000d8413          	mv	s0,s11
   11c2c:	00700f93          	li	t6,7
   11c30:	000a0d93          	mv	s11,s4
   11c34:	00090a13          	mv	s4,s2
   11c38:	000e0913          	mv	s2,t3
   11c3c:	00c0006f          	j	11c48 <_vfprintf_r+0xe70>
   11c40:	ff040413          	addi	s0,s0,-16
   11c44:	048f5e63          	bge	t5,s0,11ca0 <_vfprintf_r+0xec8>
   11c48:	01070713          	addi	a4,a4,16
   11c4c:	00160613          	addi	a2,a2,1
   11c50:	00010697          	auipc	a3,0x10
   11c54:	e0868693          	addi	a3,a3,-504 # 21a58 <zeroes.0>
   11c58:	00d7a023          	sw	a3,0(a5)
   11c5c:	01e7a223          	sw	t5,4(a5)
   11c60:	0ae12423          	sw	a4,168(sp)
   11c64:	0ac12223          	sw	a2,164(sp)
   11c68:	00878793          	addi	a5,a5,8
   11c6c:	fccfdae3          	bge	t6,a2,11c40 <_vfprintf_r+0xe68>
   11c70:	00812583          	lw	a1,8(sp)
   11c74:	0a010613          	addi	a2,sp,160
   11c78:	00098513          	mv	a0,s3
   11c7c:	500080ef          	jal	ra,1a17c <__sprint_r>
   11c80:	e0051263          	bnez	a0,11284 <_vfprintf_r+0x4ac>
   11c84:	01000f13          	li	t5,16
   11c88:	ff040413          	addi	s0,s0,-16
   11c8c:	0a812703          	lw	a4,168(sp)
   11c90:	0a412603          	lw	a2,164(sp)
   11c94:	0ac10793          	addi	a5,sp,172
   11c98:	00700f93          	li	t6,7
   11c9c:	fa8f46e3          	blt	t5,s0,11c48 <_vfprintf_r+0xe70>
   11ca0:	00090e13          	mv	t3,s2
   11ca4:	000a0913          	mv	s2,s4
   11ca8:	000d8a13          	mv	s4,s11
   11cac:	00040d93          	mv	s11,s0
   11cb0:	00078413          	mv	s0,a5
   11cb4:	00ed8733          	add	a4,s11,a4
   11cb8:	00160613          	addi	a2,a2,1
   11cbc:	01442023          	sw	s4,0(s0)
   11cc0:	01b42223          	sw	s11,4(s0)
   11cc4:	0ae12423          	sw	a4,168(sp)
   11cc8:	0ac12223          	sw	a2,164(sp)
   11ccc:	00700593          	li	a1,7
   11cd0:	42c5ca63          	blt	a1,a2,12104 <_vfprintf_r+0x132c>
   11cd4:	00840413          	addi	s0,s0,8
   11cd8:	00070a13          	mv	s4,a4
   11cdc:	bc4ff06f          	j	110a0 <_vfprintf_r+0x2c8>
   11ce0:	01000513          	li	a0,16
   11ce4:	0a812583          	lw	a1,168(sp)
   11ce8:	0a412603          	lw	a2,164(sp)
   11cec:	00010a17          	auipc	s4,0x10
   11cf0:	d7ca0a13          	addi	s4,s4,-644 # 21a68 <blanks.1>
   11cf4:	0ae55063          	bge	a0,a4,11d94 <_vfprintf_r+0xfbc>
   11cf8:	04912a23          	sw	s1,84(sp)
   11cfc:	00040793          	mv	a5,s0
   11d00:	000a0493          	mv	s1,s4
   11d04:	01000f13          	li	t5,16
   11d08:	00700393          	li	t2,7
   11d0c:	04512823          	sw	t0,80(sp)
   11d10:	05c12c23          	sw	t3,88(sp)
   11d14:	00070413          	mv	s0,a4
   11d18:	00030a13          	mv	s4,t1
   11d1c:	00c0006f          	j	11d28 <_vfprintf_r+0xf50>
   11d20:	ff040413          	addi	s0,s0,-16
   11d24:	048f5a63          	bge	t5,s0,11d78 <_vfprintf_r+0xfa0>
   11d28:	01058593          	addi	a1,a1,16
   11d2c:	00160613          	addi	a2,a2,1
   11d30:	0097a023          	sw	s1,0(a5)
   11d34:	01e7a223          	sw	t5,4(a5)
   11d38:	0ab12423          	sw	a1,168(sp)
   11d3c:	0ac12223          	sw	a2,164(sp)
   11d40:	00878793          	addi	a5,a5,8
   11d44:	fcc3dee3          	bge	t2,a2,11d20 <_vfprintf_r+0xf48>
   11d48:	00812583          	lw	a1,8(sp)
   11d4c:	0a010613          	addi	a2,sp,160
   11d50:	00098513          	mv	a0,s3
   11d54:	428080ef          	jal	ra,1a17c <__sprint_r>
   11d58:	d2051663          	bnez	a0,11284 <_vfprintf_r+0x4ac>
   11d5c:	01000f13          	li	t5,16
   11d60:	ff040413          	addi	s0,s0,-16
   11d64:	0a812583          	lw	a1,168(sp)
   11d68:	0a412603          	lw	a2,164(sp)
   11d6c:	0ac10793          	addi	a5,sp,172
   11d70:	00700393          	li	t2,7
   11d74:	fa8f4ae3          	blt	t5,s0,11d28 <_vfprintf_r+0xf50>
   11d78:	000a0313          	mv	t1,s4
   11d7c:	05012283          	lw	t0,80(sp)
   11d80:	00048a13          	mv	s4,s1
   11d84:	05812e03          	lw	t3,88(sp)
   11d88:	05412483          	lw	s1,84(sp)
   11d8c:	00040713          	mv	a4,s0
   11d90:	00078413          	mv	s0,a5
   11d94:	00b705b3          	add	a1,a4,a1
   11d98:	00160613          	addi	a2,a2,1
   11d9c:	00e42223          	sw	a4,4(s0)
   11da0:	01442023          	sw	s4,0(s0)
   11da4:	0ab12423          	sw	a1,168(sp)
   11da8:	0ac12223          	sw	a2,164(sp)
   11dac:	00700713          	li	a4,7
   11db0:	0ec742e3          	blt	a4,a2,12694 <_vfprintf_r+0x18bc>
   11db4:	07714603          	lbu	a2,119(sp)
   11db8:	00840413          	addi	s0,s0,8
   11dbc:	a68ff06f          	j	11024 <_vfprintf_r+0x24c>
   11dc0:	00812583          	lw	a1,8(sp)
   11dc4:	0a010613          	addi	a2,sp,160
   11dc8:	00098513          	mv	a0,s3
   11dcc:	04612a23          	sw	t1,84(sp)
   11dd0:	05c12823          	sw	t3,80(sp)
   11dd4:	3a8080ef          	jal	ra,1a17c <__sprint_r>
   11dd8:	ca051663          	bnez	a0,11284 <_vfprintf_r+0x4ac>
   11ddc:	0a812a03          	lw	s4,168(sp)
   11de0:	05412303          	lw	t1,84(sp)
   11de4:	05012e03          	lw	t3,80(sp)
   11de8:	0ac10413          	addi	s0,sp,172
   11dec:	aa4ff06f          	j	11090 <_vfprintf_r+0x2b8>
   11df0:	01000693          	li	a3,16
   11df4:	0a412783          	lw	a5,164(sp)
   11df8:	00010a17          	auipc	s4,0x10
   11dfc:	c70a0a13          	addi	s4,s4,-912 # 21a68 <blanks.1>
   11e00:	0796d263          	bge	a3,s9,11e64 <_vfprintf_r+0x108c>
   11e04:	00812b83          	lw	s7,8(sp)
   11e08:	01000d93          	li	s11,16
   11e0c:	00700b13          	li	s6,7
   11e10:	00c0006f          	j	11e1c <_vfprintf_r+0x1044>
   11e14:	ff0c8c93          	addi	s9,s9,-16
   11e18:	059dd663          	bge	s11,s9,11e64 <_vfprintf_r+0x108c>
   11e1c:	01070713          	addi	a4,a4,16
   11e20:	00178793          	addi	a5,a5,1
   11e24:	01442023          	sw	s4,0(s0)
   11e28:	01b42223          	sw	s11,4(s0)
   11e2c:	0ae12423          	sw	a4,168(sp)
   11e30:	0af12223          	sw	a5,164(sp)
   11e34:	00840413          	addi	s0,s0,8
   11e38:	fcfb5ee3          	bge	s6,a5,11e14 <_vfprintf_r+0x103c>
   11e3c:	0a010613          	addi	a2,sp,160
   11e40:	000b8593          	mv	a1,s7
   11e44:	00098513          	mv	a0,s3
   11e48:	334080ef          	jal	ra,1a17c <__sprint_r>
   11e4c:	c2051c63          	bnez	a0,11284 <_vfprintf_r+0x4ac>
   11e50:	ff0c8c93          	addi	s9,s9,-16
   11e54:	0a812703          	lw	a4,168(sp)
   11e58:	0a412783          	lw	a5,164(sp)
   11e5c:	0ac10413          	addi	s0,sp,172
   11e60:	fb9dcee3          	blt	s11,s9,11e1c <_vfprintf_r+0x1044>
   11e64:	01970733          	add	a4,a4,s9
   11e68:	00178793          	addi	a5,a5,1
   11e6c:	01442023          	sw	s4,0(s0)
   11e70:	01942223          	sw	s9,4(s0)
   11e74:	0ae12423          	sw	a4,168(sp)
   11e78:	0af12223          	sw	a5,164(sp)
   11e7c:	00700693          	li	a3,7
   11e80:	a6f6d063          	bge	a3,a5,110e0 <_vfprintf_r+0x308>
   11e84:	00812583          	lw	a1,8(sp)
   11e88:	0a010613          	addi	a2,sp,160
   11e8c:	00098513          	mv	a0,s3
   11e90:	2ec080ef          	jal	ra,1a17c <__sprint_r>
   11e94:	be051863          	bnez	a0,11284 <_vfprintf_r+0x4ac>
   11e98:	0a812703          	lw	a4,168(sp)
   11e9c:	a44ff06f          	j	110e0 <_vfprintf_r+0x308>
   11ea0:	07c12603          	lw	a2,124(sp)
   11ea4:	38c05263          	blez	a2,12228 <_vfprintf_r+0x1450>
   11ea8:	02012783          	lw	a5,32(sp)
   11eac:	01812703          	lw	a4,24(sp)
   11eb0:	00fb8333          	add	t1,s7,a5
   11eb4:	00070c93          	mv	s9,a4
   11eb8:	00e7d463          	bge	a5,a4,11ec0 <_vfprintf_r+0x10e8>
   11ebc:	00078c93          	mv	s9,a5
   11ec0:	03905863          	blez	s9,11ef0 <_vfprintf_r+0x1118>
   11ec4:	0a412603          	lw	a2,164(sp)
   11ec8:	019a0a33          	add	s4,s4,s9
   11ecc:	01742023          	sw	s7,0(s0)
   11ed0:	00160613          	addi	a2,a2,1
   11ed4:	01942223          	sw	s9,4(s0)
   11ed8:	0b412423          	sw	s4,168(sp)
   11edc:	0ac12223          	sw	a2,164(sp)
   11ee0:	00700593          	li	a1,7
   11ee4:	00840413          	addi	s0,s0,8
   11ee8:	00c5d463          	bge	a1,a2,11ef0 <_vfprintf_r+0x1118>
   11eec:	5a80106f          	j	13494 <_vfprintf_r+0x26bc>
   11ef0:	fffcc613          	not	a2,s9
   11ef4:	01812783          	lw	a5,24(sp)
   11ef8:	41f65613          	srai	a2,a2,0x1f
   11efc:	00ccf6b3          	and	a3,s9,a2
   11f00:	40d78cb3          	sub	s9,a5,a3
   11f04:	399040e3          	bgtz	s9,12a84 <_vfprintf_r+0x1cac>
   11f08:	01812783          	lw	a5,24(sp)
   11f0c:	400b7693          	andi	a3,s6,1024
   11f10:	00fb8bb3          	add	s7,s7,a5
   11f14:	00068463          	beqz	a3,11f1c <_vfprintf_r+0x1144>
   11f18:	2d80106f          	j	131f0 <_vfprintf_r+0x2418>
   11f1c:	07c12683          	lw	a3,124(sp)
   11f20:	02012783          	lw	a5,32(sp)
   11f24:	00f6c663          	blt	a3,a5,11f30 <_vfprintf_r+0x1158>
   11f28:	001b7613          	andi	a2,s6,1
   11f2c:	4c0602e3          	beqz	a2,12bf0 <_vfprintf_r+0x1e18>
   11f30:	03812603          	lw	a2,56(sp)
   11f34:	03412783          	lw	a5,52(sp)
   11f38:	00700593          	li	a1,7
   11f3c:	00c42023          	sw	a2,0(s0)
   11f40:	0a412603          	lw	a2,164(sp)
   11f44:	01478733          	add	a4,a5,s4
   11f48:	00f42223          	sw	a5,4(s0)
   11f4c:	00160613          	addi	a2,a2,1
   11f50:	0ae12423          	sw	a4,168(sp)
   11f54:	0ac12223          	sw	a2,164(sp)
   11f58:	00840413          	addi	s0,s0,8
   11f5c:	00c5d463          	bge	a1,a2,11f64 <_vfprintf_r+0x118c>
   11f60:	56c0106f          	j	134cc <_vfprintf_r+0x26f4>
   11f64:	02012783          	lw	a5,32(sp)
   11f68:	41730cb3          	sub	s9,t1,s7
   11f6c:	40d786b3          	sub	a3,a5,a3
   11f70:	4596c4e3          	blt	a3,s9,12bb8 <_vfprintf_r+0x1de0>
   11f74:	03905863          	blez	s9,11fa4 <_vfprintf_r+0x11cc>
   11f78:	0a412783          	lw	a5,164(sp)
   11f7c:	01970733          	add	a4,a4,s9
   11f80:	01742023          	sw	s7,0(s0)
   11f84:	00178793          	addi	a5,a5,1
   11f88:	01942223          	sw	s9,4(s0)
   11f8c:	0ae12423          	sw	a4,168(sp)
   11f90:	0af12223          	sw	a5,164(sp)
   11f94:	00700613          	li	a2,7
   11f98:	00840413          	addi	s0,s0,8
   11f9c:	00f65463          	bge	a2,a5,11fa4 <_vfprintf_r+0x11cc>
   11fa0:	59c0106f          	j	1353c <_vfprintf_r+0x2764>
   11fa4:	fffcc793          	not	a5,s9
   11fa8:	41f7d793          	srai	a5,a5,0x1f
   11fac:	00fcfcb3          	and	s9,s9,a5
   11fb0:	41968cb3          	sub	s9,a3,s9
   11fb4:	91905e63          	blez	s9,110d0 <_vfprintf_r+0x2f8>
   11fb8:	01000693          	li	a3,16
   11fbc:	0a412783          	lw	a5,164(sp)
   11fc0:	00010a17          	auipc	s4,0x10
   11fc4:	a98a0a13          	addi	s4,s4,-1384 # 21a58 <zeroes.0>
   11fc8:	2796dee3          	bge	a3,s9,12a44 <_vfprintf_r+0x1c6c>
   11fcc:	000a0693          	mv	a3,s4
   11fd0:	01000d93          	li	s11,16
   11fd4:	00090a13          	mv	s4,s2
   11fd8:	00700b93          	li	s7,7
   11fdc:	00048913          	mv	s2,s1
   11fe0:	00068493          	mv	s1,a3
   11fe4:	00c0006f          	j	11ff0 <_vfprintf_r+0x1218>
   11fe8:	ff0c8c93          	addi	s9,s9,-16
   11fec:	259dd4e3          	bge	s11,s9,12a34 <_vfprintf_r+0x1c5c>
   11ff0:	01070713          	addi	a4,a4,16
   11ff4:	00178793          	addi	a5,a5,1
   11ff8:	00942023          	sw	s1,0(s0)
   11ffc:	01b42223          	sw	s11,4(s0)
   12000:	0ae12423          	sw	a4,168(sp)
   12004:	0af12223          	sw	a5,164(sp)
   12008:	00840413          	addi	s0,s0,8
   1200c:	fcfbdee3          	bge	s7,a5,11fe8 <_vfprintf_r+0x1210>
   12010:	00812583          	lw	a1,8(sp)
   12014:	0a010613          	addi	a2,sp,160
   12018:	00098513          	mv	a0,s3
   1201c:	160080ef          	jal	ra,1a17c <__sprint_r>
   12020:	a6051263          	bnez	a0,11284 <_vfprintf_r+0x4ac>
   12024:	0a812703          	lw	a4,168(sp)
   12028:	0a412783          	lw	a5,164(sp)
   1202c:	0ac10413          	addi	s0,sp,172
   12030:	fb9ff06f          	j	11fe8 <_vfprintf_r+0x1210>
   12034:	001b7613          	andi	a2,s6,1
   12038:	c2061263          	bnez	a2,1145c <_vfprintf_r+0x684>
   1203c:	0a412c83          	lw	s9,164(sp)
   12040:	01742023          	sw	s7,0(s0)
   12044:	00d42223          	sw	a3,4(s0)
   12048:	001c8c93          	addi	s9,s9,1
   1204c:	0ae12423          	sw	a4,168(sp)
   12050:	0b912223          	sw	s9,164(sp)
   12054:	00700793          	li	a5,7
   12058:	cb97da63          	bge	a5,s9,1150c <_vfprintf_r+0x734>
   1205c:	00812583          	lw	a1,8(sp)
   12060:	0a010613          	addi	a2,sp,160
   12064:	00098513          	mv	a0,s3
   12068:	114080ef          	jal	ra,1a17c <__sprint_r>
   1206c:	a0051c63          	bnez	a0,11284 <_vfprintf_r+0x4ac>
   12070:	0a812703          	lw	a4,168(sp)
   12074:	0a412c83          	lw	s9,164(sp)
   12078:	0ac10d93          	addi	s11,sp,172
   1207c:	c90ff06f          	j	1150c <_vfprintf_r+0x734>
   12080:	02012683          	lw	a3,32(sp)
   12084:	00100793          	li	a5,1
   12088:	c8d7d263          	bge	a5,a3,1150c <_vfprintf_r+0x734>
   1208c:	01100793          	li	a5,17
   12090:	00010a17          	auipc	s4,0x10
   12094:	9c8a0a13          	addi	s4,s4,-1592 # 21a58 <zeroes.0>
   12098:	1cd7dee3          	bge	a5,a3,12a74 <_vfprintf_r+0x1c9c>
   1209c:	000a0693          	mv	a3,s4
   120a0:	01000793          	li	a5,16
   120a4:	00040a13          	mv	s4,s0
   120a8:	00700b93          	li	s7,7
   120ac:	00068413          	mv	s0,a3
   120b0:	00c0006f          	j	120bc <_vfprintf_r+0x12e4>
   120b4:	ff0a0a13          	addi	s4,s4,-16
   120b8:	1b47d8e3          	bge	a5,s4,12a68 <_vfprintf_r+0x1c90>
   120bc:	01070713          	addi	a4,a4,16
   120c0:	001c8c93          	addi	s9,s9,1
   120c4:	008da023          	sw	s0,0(s11)
   120c8:	00fda223          	sw	a5,4(s11)
   120cc:	0ae12423          	sw	a4,168(sp)
   120d0:	0b912223          	sw	s9,164(sp)
   120d4:	008d8d93          	addi	s11,s11,8
   120d8:	fd9bdee3          	bge	s7,s9,120b4 <_vfprintf_r+0x12dc>
   120dc:	00812583          	lw	a1,8(sp)
   120e0:	0a010613          	addi	a2,sp,160
   120e4:	00098513          	mv	a0,s3
   120e8:	094080ef          	jal	ra,1a17c <__sprint_r>
   120ec:	98051c63          	bnez	a0,11284 <_vfprintf_r+0x4ac>
   120f0:	0a812703          	lw	a4,168(sp)
   120f4:	0a412c83          	lw	s9,164(sp)
   120f8:	0ac10d93          	addi	s11,sp,172
   120fc:	01000793          	li	a5,16
   12100:	fb5ff06f          	j	120b4 <_vfprintf_r+0x12dc>
   12104:	00812583          	lw	a1,8(sp)
   12108:	0a010613          	addi	a2,sp,160
   1210c:	00098513          	mv	a0,s3
   12110:	05c12823          	sw	t3,80(sp)
   12114:	068080ef          	jal	ra,1a17c <__sprint_r>
   12118:	96051663          	bnez	a0,11284 <_vfprintf_r+0x4ac>
   1211c:	0a812a03          	lw	s4,168(sp)
   12120:	05012e03          	lw	t3,80(sp)
   12124:	0ac10413          	addi	s0,sp,172
   12128:	f79fe06f          	j	110a0 <_vfprintf_r+0x2c8>
   1212c:	01412703          	lw	a4,20(sp)
   12130:	01067793          	andi	a5,a2,16
   12134:	00072d83          	lw	s11,0(a4)
   12138:	00470713          	addi	a4,a4,4
   1213c:	00e12a23          	sw	a4,20(sp)
   12140:	18079263          	bnez	a5,122c4 <_vfprintf_r+0x14ec>
   12144:	04067793          	andi	a5,a2,64
   12148:	16078863          	beqz	a5,122b8 <_vfprintf_r+0x14e0>
   1214c:	010d9d93          	slli	s11,s11,0x10
   12150:	010ddd93          	srli	s11,s11,0x10
   12154:	00000c93          	li	s9,0
   12158:	00100793          	li	a5,1
   1215c:	e0cff06f          	j	11768 <_vfprintf_r+0x990>
   12160:	01412703          	lw	a4,20(sp)
   12164:	010b7793          	andi	a5,s6,16
   12168:	00072d83          	lw	s11,0(a4)
   1216c:	00470713          	addi	a4,a4,4
   12170:	00e12a23          	sw	a4,20(sp)
   12174:	16079a63          	bnez	a5,122e8 <_vfprintf_r+0x1510>
   12178:	040b7793          	andi	a5,s6,64
   1217c:	16078263          	beqz	a5,122e0 <_vfprintf_r+0x1508>
   12180:	010d9d93          	slli	s11,s11,0x10
   12184:	410ddd93          	srai	s11,s11,0x10
   12188:	41fddc93          	srai	s9,s11,0x1f
   1218c:	000c8793          	mv	a5,s9
   12190:	ec07d663          	bgez	a5,1185c <_vfprintf_r+0xa84>
   12194:	01b037b3          	snez	a5,s11
   12198:	419000b3          	neg	ra,s9
   1219c:	40f08cb3          	sub	s9,ra,a5
   121a0:	41b00db3          	neg	s11,s11
   121a4:	000b0613          	mv	a2,s6
   121a8:	02d00713          	li	a4,45
   121ac:	00100793          	li	a5,1
   121b0:	dbcff06f          	j	1176c <_vfprintf_r+0x994>
   121b4:	01412703          	lw	a4,20(sp)
   121b8:	010b7793          	andi	a5,s6,16
   121bc:	00072d83          	lw	s11,0(a4)
   121c0:	00470713          	addi	a4,a4,4
   121c4:	00e12a23          	sw	a4,20(sp)
   121c8:	10079863          	bnez	a5,122d8 <_vfprintf_r+0x1500>
   121cc:	040b7793          	andi	a5,s6,64
   121d0:	10078063          	beqz	a5,122d0 <_vfprintf_r+0x14f8>
   121d4:	010d9d93          	slli	s11,s11,0x10
   121d8:	010ddd93          	srli	s11,s11,0x10
   121dc:	00000c93          	li	s9,0
   121e0:	d80ff06f          	j	11760 <_vfprintf_r+0x988>
   121e4:	00812403          	lw	s0,8(sp)
   121e8:	00f12623          	sw	a5,12(sp)
   121ec:	05842503          	lw	a0,88(s0)
   121f0:	140050ef          	jal	ra,17330 <__retarget_lock_acquire_recursive>
   121f4:	00c41703          	lh	a4,12(s0)
   121f8:	00c12783          	lw	a5,12(sp)
   121fc:	c81fe06f          	j	10e7c <_vfprintf_r+0xa4>
   12200:	001b7793          	andi	a5,s6,1
   12204:	000a0713          	mv	a4,s4
   12208:	00079463          	bnez	a5,12210 <_vfprintf_r+0x1438>
   1220c:	ec5fe06f          	j	110d0 <_vfprintf_r+0x2f8>
   12210:	f78ff06f          	j	11988 <_vfprintf_r+0xbb0>
   12214:	000a0313          	mv	t1,s4
   12218:	e18ff06f          	j	11830 <_vfprintf_r+0xa58>
   1221c:	0004ce03          	lbu	t3,0(s1)
   12220:	00f12a23          	sw	a5,20(sp)
   12224:	d59fe06f          	j	10f7c <_vfprintf_r+0x1a4>
   12228:	0a412683          	lw	a3,164(sp)
   1222c:	0000f597          	auipc	a1,0xf
   12230:	62458593          	addi	a1,a1,1572 # 21850 <__clzsi2+0xe8>
   12234:	00b42023          	sw	a1,0(s0)
   12238:	001a0713          	addi	a4,s4,1
   1223c:	00100593          	li	a1,1
   12240:	00168693          	addi	a3,a3,1
   12244:	00b42223          	sw	a1,4(s0)
   12248:	0ae12423          	sw	a4,168(sp)
   1224c:	0ad12223          	sw	a3,164(sp)
   12250:	00700593          	li	a1,7
   12254:	00840413          	addi	s0,s0,8
   12258:	16d5c4e3          	blt	a1,a3,12bc0 <_vfprintf_r+0x1de8>
   1225c:	0a061ee3          	bnez	a2,12b18 <_vfprintf_r+0x1d40>
   12260:	02012783          	lw	a5,32(sp)
   12264:	001b7693          	andi	a3,s6,1
   12268:	00f6e6b3          	or	a3,a3,a5
   1226c:	00069463          	bnez	a3,12274 <_vfprintf_r+0x149c>
   12270:	e61fe06f          	j	110d0 <_vfprintf_r+0x2f8>
   12274:	03812683          	lw	a3,56(sp)
   12278:	03412783          	lw	a5,52(sp)
   1227c:	00700613          	li	a2,7
   12280:	00d42023          	sw	a3,0(s0)
   12284:	0a412683          	lw	a3,164(sp)
   12288:	00e78733          	add	a4,a5,a4
   1228c:	00f42223          	sw	a5,4(s0)
   12290:	00168693          	addi	a3,a3,1
   12294:	0ae12423          	sw	a4,168(sp)
   12298:	0ad12223          	sw	a3,164(sp)
   1229c:	1ed64ae3          	blt	a2,a3,12c90 <_vfprintf_r+0x1eb8>
   122a0:	00840413          	addi	s0,s0,8
   122a4:	0a90006f          	j	12b4c <_vfprintf_r+0x1d74>
   122a8:	03000793          	li	a5,48
   122ac:	14f107a3          	sb	a5,335(sp)
   122b0:	14f10b93          	addi	s7,sp,335
   122b4:	ce4ff06f          	j	11798 <_vfprintf_r+0x9c0>
   122b8:	20067793          	andi	a5,a2,512
   122bc:	00078463          	beqz	a5,122c4 <_vfprintf_r+0x14ec>
   122c0:	0ffdfd93          	zext.b	s11,s11
   122c4:	00000c93          	li	s9,0
   122c8:	00100793          	li	a5,1
   122cc:	c9cff06f          	j	11768 <_vfprintf_r+0x990>
   122d0:	200b7793          	andi	a5,s6,512
   122d4:	160794e3          	bnez	a5,12c3c <_vfprintf_r+0x1e64>
   122d8:	00000c93          	li	s9,0
   122dc:	c84ff06f          	j	11760 <_vfprintf_r+0x988>
   122e0:	200b7793          	andi	a5,s6,512
   122e4:	120798e3          	bnez	a5,12c14 <_vfprintf_r+0x1e3c>
   122e8:	41fddc93          	srai	s9,s11,0x1f
   122ec:	000c8793          	mv	a5,s9
   122f0:	d68ff06f          	j	11858 <_vfprintf_r+0xa80>
   122f4:	010b7793          	andi	a5,s6,16
   122f8:	74079e63          	bnez	a5,12a54 <_vfprintf_r+0x1c7c>
   122fc:	040b7793          	andi	a5,s6,64
   12300:	120794e3          	bnez	a5,12c28 <_vfprintf_r+0x1e50>
   12304:	200b7813          	andi	a6,s6,512
   12308:	74080663          	beqz	a6,12a54 <_vfprintf_r+0x1c7c>
   1230c:	01412783          	lw	a5,20(sp)
   12310:	00c12703          	lw	a4,12(sp)
   12314:	0007a783          	lw	a5,0(a5)
   12318:	00e78023          	sb	a4,0(a5)
   1231c:	df0ff06f          	j	1190c <_vfprintf_r+0xb34>
   12320:	01412783          	lw	a5,20(sp)
   12324:	01412c23          	sw	s4,24(sp)
   12328:	06010513          	addi	a0,sp,96
   1232c:	0007a703          	lw	a4,0(a5)
   12330:	00478a13          	addi	s4,a5,4
   12334:	01c12823          	sw	t3,16(sp)
   12338:	00072683          	lw	a3,0(a4)
   1233c:	01412a23          	sw	s4,20(sp)
   12340:	06d12023          	sw	a3,96(sp)
   12344:	00472683          	lw	a3,4(a4)
   12348:	06d12223          	sw	a3,100(sp)
   1234c:	00872683          	lw	a3,8(a4)
   12350:	06d12423          	sw	a3,104(sp)
   12354:	00c72703          	lw	a4,12(a4)
   12358:	06e12623          	sw	a4,108(sp)
   1235c:	7910e0ef          	jal	ra,212ec <__trunctfdf2>
   12360:	01012e03          	lw	t3,16(sp)
   12364:	01812303          	lw	t1,24(sp)
   12368:	02a12623          	sw	a0,44(sp)
   1236c:	02b12823          	sw	a1,48(sp)
   12370:	fc1fe06f          	j	11330 <_vfprintf_r+0x558>
   12374:	04012783          	lw	a5,64(sp)
   12378:	0004ce03          	lbu	t3,0(s1)
   1237c:	00079463          	bnez	a5,12384 <_vfprintf_r+0x15ac>
   12380:	bfdfe06f          	j	10f7c <_vfprintf_r+0x1a4>
   12384:	0007c783          	lbu	a5,0(a5)
   12388:	00079463          	bnez	a5,12390 <_vfprintf_r+0x15b8>
   1238c:	bf1fe06f          	j	10f7c <_vfprintf_r+0x1a4>
   12390:	400b6b13          	ori	s6,s6,1024
   12394:	be9fe06f          	j	10f7c <_vfprintf_r+0x1a4>
   12398:	00812583          	lw	a1,8(sp)
   1239c:	0a010613          	addi	a2,sp,160
   123a0:	00098513          	mv	a0,s3
   123a4:	04612a23          	sw	t1,84(sp)
   123a8:	05c12823          	sw	t3,80(sp)
   123ac:	5d1070ef          	jal	ra,1a17c <__sprint_r>
   123b0:	00050463          	beqz	a0,123b8 <_vfprintf_r+0x15e0>
   123b4:	ed1fe06f          	j	11284 <_vfprintf_r+0x4ac>
   123b8:	0a812a03          	lw	s4,168(sp)
   123bc:	05412303          	lw	t1,84(sp)
   123c0:	05012e03          	lw	t3,80(sp)
   123c4:	0ac10413          	addi	s0,sp,172
   123c8:	cd1fe06f          	j	11098 <_vfprintf_r+0x2c0>
   123cc:	000a0313          	mv	t1,s4
   123d0:	000b0613          	mv	a2,s6
   123d4:	c08ff06f          	j	117dc <_vfprintf_r+0xa04>
   123d8:	0000f797          	auipc	a5,0xf
   123dc:	45c78793          	addi	a5,a5,1116 # 21834 <__clzsi2+0xcc>
   123e0:	000a0313          	mv	t1,s4
   123e4:	02f12e23          	sw	a5,60(sp)
   123e8:	020b7793          	andi	a5,s6,32
   123ec:	12078c63          	beqz	a5,12524 <_vfprintf_r+0x174c>
   123f0:	01412783          	lw	a5,20(sp)
   123f4:	00778a13          	addi	s4,a5,7
   123f8:	ff8a7a13          	andi	s4,s4,-8
   123fc:	000a2d83          	lw	s11,0(s4)
   12400:	004a2c83          	lw	s9,4(s4)
   12404:	008a0793          	addi	a5,s4,8
   12408:	00f12a23          	sw	a5,20(sp)
   1240c:	001b7793          	andi	a5,s6,1
   12410:	00078e63          	beqz	a5,1242c <_vfprintf_r+0x1654>
   12414:	019de7b3          	or	a5,s11,s9
   12418:	00078a63          	beqz	a5,1242c <_vfprintf_r+0x1654>
   1241c:	03000793          	li	a5,48
   12420:	06f10c23          	sb	a5,120(sp)
   12424:	07c10ca3          	sb	t3,121(sp)
   12428:	002b6b13          	ori	s6,s6,2
   1242c:	bffb7613          	andi	a2,s6,-1025
   12430:	00200793          	li	a5,2
   12434:	b34ff06f          	j	11768 <_vfprintf_r+0x990>
   12438:	0014ce03          	lbu	t3,1(s1)
   1243c:	020b6b13          	ori	s6,s6,32
   12440:	00148493          	addi	s1,s1,1
   12444:	b39fe06f          	j	10f7c <_vfprintf_r+0x1a4>
   12448:	0000f797          	auipc	a5,0xf
   1244c:	3d878793          	addi	a5,a5,984 # 21820 <__clzsi2+0xb8>
   12450:	000a0313          	mv	t1,s4
   12454:	02f12e23          	sw	a5,60(sp)
   12458:	f91ff06f          	j	123e8 <_vfprintf_r+0x1610>
   1245c:	000a0313          	mv	t1,s4
   12460:	adcff06f          	j	1173c <_vfprintf_r+0x964>
   12464:	00812583          	lw	a1,8(sp)
   12468:	0a010613          	addi	a2,sp,160
   1246c:	00098513          	mv	a0,s3
   12470:	50d070ef          	jal	ra,1a17c <__sprint_r>
   12474:	00050463          	beqz	a0,1247c <_vfprintf_r+0x16a4>
   12478:	e0dfe06f          	j	11284 <_vfprintf_r+0x4ac>
   1247c:	0a812703          	lw	a4,168(sp)
   12480:	0ac10413          	addi	s0,sp,172
   12484:	d34ff06f          	j	119b8 <_vfprintf_r+0xbe0>
   12488:	0014ce03          	lbu	t3,1(s1)
   1248c:	200b6b13          	ori	s6,s6,512
   12490:	00148493          	addi	s1,s1,1
   12494:	ae9fe06f          	j	10f7c <_vfprintf_r+0x1a4>
   12498:	00600793          	li	a5,6
   1249c:	000a0c13          	mv	s8,s4
   124a0:	7547e463          	bltu	a5,s4,12be8 <_vfprintf_r+0x1e10>
   124a4:	01b12a23          	sw	s11,20(sp)
   124a8:	00012823          	sw	zero,16(sp)
   124ac:	000c0c93          	mv	s9,s8
   124b0:	00000613          	li	a2,0
   124b4:	00000313          	li	t1,0
   124b8:	02012423          	sw	zero,40(sp)
   124bc:	02012223          	sw	zero,36(sp)
   124c0:	00012c23          	sw	zero,24(sp)
   124c4:	0000fb97          	auipc	s7,0xf
   124c8:	384b8b93          	addi	s7,s7,900 # 21848 <__clzsi2+0xe0>
   124cc:	b3dfe06f          	j	11008 <_vfprintf_r+0x230>
   124d0:	00800613          	li	a2,8
   124d4:	00000593          	li	a1,0
   124d8:	09810513          	addi	a0,sp,152
   124dc:	01c12823          	sw	t3,16(sp)
   124e0:	f30fe0ef          	jal	ra,10c10 <memset>
   124e4:	01412783          	lw	a5,20(sp)
   124e8:	0ec10b93          	addi	s7,sp,236
   124ec:	09810693          	addi	a3,sp,152
   124f0:	0007a603          	lw	a2,0(a5)
   124f4:	000b8593          	mv	a1,s7
   124f8:	00098513          	mv	a0,s3
   124fc:	5e4010ef          	jal	ra,13ae0 <_wcrtomb_r>
   12500:	fff00713          	li	a4,-1
   12504:	01012e03          	lw	t3,16(sp)
   12508:	00050c93          	mv	s9,a0
   1250c:	00e51463          	bne	a0,a4,12514 <_vfprintf_r+0x173c>
   12510:	2140106f          	j	13724 <_vfprintf_r+0x294c>
   12514:	fff54893          	not	a7,a0
   12518:	41f8d893          	srai	a7,a7,0x1f
   1251c:	01157c33          	and	s8,a0,a7
   12520:	8a0ff06f          	j	115c0 <_vfprintf_r+0x7e8>
   12524:	01412703          	lw	a4,20(sp)
   12528:	010b7793          	andi	a5,s6,16
   1252c:	00072d83          	lw	s11,0(a4)
   12530:	00470713          	addi	a4,a4,4
   12534:	00e12a23          	sw	a4,20(sp)
   12538:	08079063          	bnez	a5,125b8 <_vfprintf_r+0x17e0>
   1253c:	040b7793          	andi	a5,s6,64
   12540:	06078863          	beqz	a5,125b0 <_vfprintf_r+0x17d8>
   12544:	010d9d93          	slli	s11,s11,0x10
   12548:	010ddd93          	srli	s11,s11,0x10
   1254c:	00000c93          	li	s9,0
   12550:	ebdff06f          	j	1240c <_vfprintf_r+0x1634>
   12554:	00000c93          	li	s9,0
   12558:	15010b93          	addi	s7,sp,336
   1255c:	a3cff06f          	j	11798 <_vfprintf_r+0x9c0>
   12560:	00812583          	lw	a1,8(sp)
   12564:	0a010613          	addi	a2,sp,160
   12568:	00098513          	mv	a0,s3
   1256c:	411070ef          	jal	ra,1a17c <__sprint_r>
   12570:	00050463          	beqz	a0,12578 <_vfprintf_r+0x17a0>
   12574:	d11fe06f          	j	11284 <_vfprintf_r+0x4ac>
   12578:	0a812703          	lw	a4,168(sp)
   1257c:	0a412c83          	lw	s9,164(sp)
   12580:	0ac10d93          	addi	s11,sp,172
   12584:	f01fe06f          	j	11484 <_vfprintf_r+0x6ac>
   12588:	00812583          	lw	a1,8(sp)
   1258c:	0a010613          	addi	a2,sp,160
   12590:	00098513          	mv	a0,s3
   12594:	3e9070ef          	jal	ra,1a17c <__sprint_r>
   12598:	00050463          	beqz	a0,125a0 <_vfprintf_r+0x17c8>
   1259c:	ce9fe06f          	j	11284 <_vfprintf_r+0x4ac>
   125a0:	0a812703          	lw	a4,168(sp)
   125a4:	0a412c83          	lw	s9,164(sp)
   125a8:	0ac10d93          	addi	s11,sp,172
   125ac:	f09fe06f          	j	114b4 <_vfprintf_r+0x6dc>
   125b0:	200b7793          	andi	a5,s6,512
   125b4:	64079a63          	bnez	a5,12c08 <_vfprintf_r+0x1e30>
   125b8:	00000c93          	li	s9,0
   125bc:	e51ff06f          	j	1240c <_vfprintf_r+0x1634>
   125c0:	00000793          	li	a5,0
   125c4:	15010b93          	addi	s7,sp,336
   125c8:	00912823          	sw	s1,16(sp)
   125cc:	00078493          	mv	s1,a5
   125d0:	00098793          	mv	a5,s3
   125d4:	04012b03          	lw	s6,64(sp)
   125d8:	00040993          	mv	s3,s0
   125dc:	40067c13          	andi	s8,a2,1024
   125e0:	000b8413          	mv	s0,s7
   125e4:	0ff00a13          	li	s4,255
   125e8:	01c12c23          	sw	t3,24(sp)
   125ec:	02c12023          	sw	a2,32(sp)
   125f0:	02612223          	sw	t1,36(sp)
   125f4:	00078b93          	mv	s7,a5
   125f8:	0240006f          	j	1261c <_vfprintf_r+0x1844>
   125fc:	00a00613          	li	a2,10
   12600:	00000693          	li	a3,0
   12604:	000d8513          	mv	a0,s11
   12608:	000c8593          	mv	a1,s9
   1260c:	1750b0ef          	jal	ra,1df80 <__udivdi3>
   12610:	6a0c88e3          	beqz	s9,134c0 <_vfprintf_r+0x26e8>
   12614:	00050d93          	mv	s11,a0
   12618:	00058c93          	mv	s9,a1
   1261c:	00a00613          	li	a2,10
   12620:	00000693          	li	a3,0
   12624:	000d8513          	mv	a0,s11
   12628:	000c8593          	mv	a1,s9
   1262c:	7ad0b0ef          	jal	ra,1e5d8 <__umoddi3>
   12630:	03050513          	addi	a0,a0,48
   12634:	fea40fa3          	sb	a0,-1(s0)
   12638:	00148493          	addi	s1,s1,1
   1263c:	fff40413          	addi	s0,s0,-1
   12640:	fa0c0ee3          	beqz	s8,125fc <_vfprintf_r+0x1824>
   12644:	000b4703          	lbu	a4,0(s6)
   12648:	fae49ae3          	bne	s1,a4,125fc <_vfprintf_r+0x1824>
   1264c:	fb4488e3          	beq	s1,s4,125fc <_vfprintf_r+0x1824>
   12650:	360c90e3          	bnez	s9,131b0 <_vfprintf_r+0x23d8>
   12654:	00900713          	li	a4,9
   12658:	35b76ce3          	bltu	a4,s11,131b0 <_vfprintf_r+0x23d8>
   1265c:	02012603          	lw	a2,32(sp)
   12660:	00040793          	mv	a5,s0
   12664:	00098413          	mv	s0,s3
   12668:	000b8993          	mv	s3,s7
   1266c:	00078b93          	mv	s7,a5
   12670:	15010793          	addi	a5,sp,336
   12674:	05612023          	sw	s6,64(sp)
   12678:	02912023          	sw	s1,32(sp)
   1267c:	01812e03          	lw	t3,24(sp)
   12680:	02412303          	lw	t1,36(sp)
   12684:	01012483          	lw	s1,16(sp)
   12688:	41778cb3          	sub	s9,a5,s7
   1268c:	00060b13          	mv	s6,a2
   12690:	908ff06f          	j	11798 <_vfprintf_r+0x9c0>
   12694:	00812583          	lw	a1,8(sp)
   12698:	0a010613          	addi	a2,sp,160
   1269c:	00098513          	mv	a0,s3
   126a0:	04612c23          	sw	t1,88(sp)
   126a4:	05c12a23          	sw	t3,84(sp)
   126a8:	04512823          	sw	t0,80(sp)
   126ac:	2d1070ef          	jal	ra,1a17c <__sprint_r>
   126b0:	00050463          	beqz	a0,126b8 <_vfprintf_r+0x18e0>
   126b4:	bd1fe06f          	j	11284 <_vfprintf_r+0x4ac>
   126b8:	07714603          	lbu	a2,119(sp)
   126bc:	05812303          	lw	t1,88(sp)
   126c0:	05412e03          	lw	t3,84(sp)
   126c4:	05012283          	lw	t0,80(sp)
   126c8:	0ac10413          	addi	s0,sp,172
   126cc:	959fe06f          	j	11024 <_vfprintf_r+0x24c>
   126d0:	02c12f03          	lw	t5,44(sp)
   126d4:	03012703          	lw	a4,48(sp)
   126d8:	00612c23          	sw	t1,24(sp)
   126dc:	000f0613          	mv	a2,t5
   126e0:	000f0513          	mv	a0,t5
   126e4:	00070693          	mv	a3,a4
   126e8:	00070593          	mv	a1,a4
   126ec:	01c12823          	sw	t3,16(sp)
   126f0:	1a90e0ef          	jal	ra,21098 <__unorddf2>
   126f4:	01012e03          	lw	t3,16(sp)
   126f8:	01812303          	lw	t1,24(sp)
   126fc:	00050463          	beqz	a0,12704 <_vfprintf_r+0x192c>
   12700:	1bc0106f          	j	138bc <_vfprintf_r+0x2ae4>
   12704:	06100713          	li	a4,97
   12708:	04ee0663          	beq	t3,a4,12754 <_vfprintf_r+0x197c>
   1270c:	04100713          	li	a4,65
   12710:	05800793          	li	a5,88
   12714:	04ee0263          	beq	t3,a4,12758 <_vfprintf_r+0x1980>
   12718:	fff00713          	li	a4,-1
   1271c:	00e31463          	bne	t1,a4,12724 <_vfprintf_r+0x194c>
   12720:	0900106f          	j	137b0 <_vfprintf_r+0x29d8>
   12724:	fdfe7713          	andi	a4,t3,-33
   12728:	04700693          	li	a3,71
   1272c:	00d71463          	bne	a4,a3,12734 <_vfprintf_r+0x195c>
   12730:	78d0006f          	j	136bc <_vfprintf_r+0x28e4>
   12734:	03012d83          	lw	s11,48(sp)
   12738:	100b6793          	ori	a5,s6,256
   1273c:	04f12823          	sw	a5,80(sp)
   12740:	03612223          	sw	s6,36(sp)
   12744:	500dc263          	bltz	s11,12c48 <_vfprintf_r+0x1e70>
   12748:	04012a23          	sw	zero,84(sp)
   1274c:	00012823          	sw	zero,16(sp)
   12750:	0500006f          	j	127a0 <_vfprintf_r+0x19c8>
   12754:	07800793          	li	a5,120
   12758:	03000713          	li	a4,48
   1275c:	06f10ca3          	sb	a5,121(sp)
   12760:	002b6793          	ori	a5,s6,2
   12764:	06e10c23          	sb	a4,120(sp)
   12768:	02f12223          	sw	a5,36(sp)
   1276c:	06300713          	li	a4,99
   12770:	00012823          	sw	zero,16(sp)
   12774:	0ec10b93          	addi	s7,sp,236
   12778:	6e674a63          	blt	a4,t1,12e6c <_vfprintf_r+0x2094>
   1277c:	102b6793          	ori	a5,s6,258
   12780:	04f12823          	sw	a5,80(sp)
   12784:	03012783          	lw	a5,48(sp)
   12788:	04012a23          	sw	zero,84(sp)
   1278c:	00078d93          	mv	s11,a5
   12790:	4a07ce63          	bltz	a5,12c4c <_vfprintf_r+0x1e74>
   12794:	06100713          	li	a4,97
   12798:	00ee1463          	bne	t3,a4,127a0 <_vfprintf_r+0x19c8>
   1279c:	0a80106f          	j	13844 <_vfprintf_r+0x2a6c>
   127a0:	fbfe0713          	addi	a4,t3,-65
   127a4:	02500693          	li	a3,37
   127a8:	02e6e063          	bltu	a3,a4,127c8 <_vfprintf_r+0x19f0>
   127ac:	0000f697          	auipc	a3,0xf
   127b0:	21468693          	addi	a3,a3,532 # 219c0 <__clzsi2+0x258>
   127b4:	00271713          	slli	a4,a4,0x2
   127b8:	00d70733          	add	a4,a4,a3
   127bc:	00072703          	lw	a4,0(a4)
   127c0:	00d70733          	add	a4,a4,a3
   127c4:	00070067          	jr	a4
   127c8:	00030c93          	mv	s9,t1
   127cc:	00200693          	li	a3,2
   127d0:	02c12703          	lw	a4,44(sp)
   127d4:	09810893          	addi	a7,sp,152
   127d8:	08410813          	addi	a6,sp,132
   127dc:	00070513          	mv	a0,a4
   127e0:	00050593          	mv	a1,a0
   127e4:	000c8713          	mv	a4,s9
   127e8:	07c10793          	addi	a5,sp,124
   127ec:	000d8613          	mv	a2,s11
   127f0:	00098513          	mv	a0,s3
   127f4:	02612023          	sw	t1,32(sp)
   127f8:	01c12c23          	sw	t3,24(sp)
   127fc:	1c5010ef          	jal	ra,141c0 <_dtoa_r>
   12800:	01812e03          	lw	t3,24(sp)
   12804:	06700713          	li	a4,103
   12808:	02012303          	lw	t1,32(sp)
   1280c:	00050b93          	mv	s7,a0
   12810:	4cee0063          	beq	t3,a4,12cd0 <_vfprintf_r+0x1ef8>
   12814:	04700713          	li	a4,71
   12818:	4aee0c63          	beq	t3,a4,12cd0 <_vfprintf_r+0x1ef8>
   1281c:	fdfe7a13          	andi	s4,t3,-33
   12820:	04600693          	li	a3,70
   12824:	01950c33          	add	s8,a0,s9
   12828:	00da1c63          	bne	s4,a3,12840 <_vfprintf_r+0x1a68>
   1282c:	00054603          	lbu	a2,0(a0)
   12830:	03000693          	li	a3,48
   12834:	66d60263          	beq	a2,a3,12e98 <_vfprintf_r+0x20c0>
   12838:	07c12683          	lw	a3,124(sp)
   1283c:	00dc0c33          	add	s8,s8,a3
   12840:	02c12683          	lw	a3,44(sp)
   12844:	000d8593          	mv	a1,s11
   12848:	00000613          	li	a2,0
   1284c:	00068513          	mv	a0,a3
   12850:	00000693          	li	a3,0
   12854:	02612023          	sw	t1,32(sp)
   12858:	01c12c23          	sw	t3,24(sp)
   1285c:	4bc0d0ef          	jal	ra,1fd18 <__eqdf2>
   12860:	01812e03          	lw	t3,24(sp)
   12864:	02012303          	lw	t1,32(sp)
   12868:	000c0b13          	mv	s6,s8
   1286c:	02050263          	beqz	a0,12890 <_vfprintf_r+0x1ab8>
   12870:	09812b03          	lw	s6,152(sp)
   12874:	018b7e63          	bgeu	s6,s8,12890 <_vfprintf_r+0x1ab8>
   12878:	03000613          	li	a2,48
   1287c:	001b0793          	addi	a5,s6,1
   12880:	08f12c23          	sw	a5,152(sp)
   12884:	00cb0023          	sb	a2,0(s6)
   12888:	09812b03          	lw	s6,152(sp)
   1288c:	ff8b68e3          	bltu	s6,s8,1287c <_vfprintf_r+0x1aa4>
   12890:	417b07b3          	sub	a5,s6,s7
   12894:	02f12023          	sw	a5,32(sp)
   12898:	07c12603          	lw	a2,124(sp)
   1289c:	04700713          	li	a4,71
   128a0:	00c12c23          	sw	a2,24(sp)
   128a4:	44ea0463          	beq	s4,a4,12cec <_vfprintf_r+0x1f14>
   128a8:	04600713          	li	a4,70
   128ac:	44ea08e3          	beq	s4,a4,134fc <_vfprintf_r+0x2724>
   128b0:	fff60b13          	addi	s6,a2,-1
   128b4:	07612e23          	sw	s6,124(sp)
   128b8:	06100693          	li	a3,97
   128bc:	00de1463          	bne	t3,a3,128c4 <_vfprintf_r+0x1aec>
   128c0:	0e40106f          	j	139a4 <_vfprintf_r+0x2bcc>
   128c4:	04100593          	li	a1,65
   128c8:	05000693          	li	a3,80
   128cc:	42be1e63          	bne	t3,a1,12d08 <_vfprintf_r+0x1f30>
   128d0:	00100593          	li	a1,1
   128d4:	43c0006f          	j	12d10 <_vfprintf_r+0x1f38>
   128d8:	00812583          	lw	a1,8(sp)
   128dc:	0a010613          	addi	a2,sp,160
   128e0:	00098513          	mv	a0,s3
   128e4:	099070ef          	jal	ra,1a17c <__sprint_r>
   128e8:	00050463          	beqz	a0,128f0 <_vfprintf_r+0x1b18>
   128ec:	999fe06f          	j	11284 <_vfprintf_r+0x4ac>
   128f0:	0a812a03          	lw	s4,168(sp)
   128f4:	0ac10413          	addi	s0,sp,172
   128f8:	884ff06f          	j	1197c <_vfprintf_r+0xba4>
   128fc:	00800613          	li	a2,8
   12900:	00000593          	li	a1,0
   12904:	09810513          	addi	a0,sp,152
   12908:	00612a23          	sw	t1,20(sp)
   1290c:	01c12823          	sw	t3,16(sp)
   12910:	09712223          	sw	s7,132(sp)
   12914:	afcfe0ef          	jal	ra,10c10 <memset>
   12918:	01412303          	lw	t1,20(sp)
   1291c:	fff00713          	li	a4,-1
   12920:	01012e03          	lw	t3,16(sp)
   12924:	7ee30a63          	beq	t1,a4,13118 <_vfprintf_r+0x2340>
   12928:	00000c93          	li	s9,0
   1292c:	00912823          	sw	s1,16(sp)
   12930:	000b8c13          	mv	s8,s7
   12934:	fff00a13          	li	s4,-1
   12938:	00040b93          	mv	s7,s0
   1293c:	01c12a23          	sw	t3,20(sp)
   12940:	000c8493          	mv	s1,s9
   12944:	00030413          	mv	s0,t1
   12948:	02c0006f          	j	12974 <_vfprintf_r+0x1b9c>
   1294c:	09810693          	addi	a3,sp,152
   12950:	0ec10593          	addi	a1,sp,236
   12954:	00098513          	mv	a0,s3
   12958:	188010ef          	jal	ra,13ae0 <_wcrtomb_r>
   1295c:	5d4504e3          	beq	a0,s4,13724 <_vfprintf_r+0x294c>
   12960:	00a487b3          	add	a5,s1,a0
   12964:	02f44063          	blt	s0,a5,12984 <_vfprintf_r+0x1bac>
   12968:	004c8c93          	addi	s9,s9,4
   1296c:	72878ae3          	beq	a5,s0,138a0 <_vfprintf_r+0x2ac8>
   12970:	00078493          	mv	s1,a5
   12974:	08412783          	lw	a5,132(sp)
   12978:	019787b3          	add	a5,a5,s9
   1297c:	0007a603          	lw	a2,0(a5)
   12980:	fc0616e3          	bnez	a2,1294c <_vfprintf_r+0x1b74>
   12984:	00048c93          	mv	s9,s1
   12988:	01412e03          	lw	t3,20(sp)
   1298c:	01012483          	lw	s1,16(sp)
   12990:	000b8413          	mv	s0,s7
   12994:	000c0b93          	mv	s7,s8
   12998:	280c8ae3          	beqz	s9,1342c <_vfprintf_r+0x2654>
   1299c:	06300793          	li	a5,99
   129a0:	3d97d6e3          	bge	a5,s9,1356c <_vfprintf_r+0x2794>
   129a4:	001c8593          	addi	a1,s9,1
   129a8:	00098513          	mv	a0,s3
   129ac:	01c12823          	sw	t3,16(sp)
   129b0:	ae1fd0ef          	jal	ra,10490 <_malloc_r>
   129b4:	01012e03          	lw	t3,16(sp)
   129b8:	00050b93          	mv	s7,a0
   129bc:	560504e3          	beqz	a0,13724 <_vfprintf_r+0x294c>
   129c0:	00a12823          	sw	a0,16(sp)
   129c4:	00800613          	li	a2,8
   129c8:	00000593          	li	a1,0
   129cc:	09810513          	addi	a0,sp,152
   129d0:	01c12a23          	sw	t3,20(sp)
   129d4:	a3cfe0ef          	jal	ra,10c10 <memset>
   129d8:	09810713          	addi	a4,sp,152
   129dc:	000c8693          	mv	a3,s9
   129e0:	08410613          	addi	a2,sp,132
   129e4:	000b8593          	mv	a1,s7
   129e8:	00098513          	mv	a0,s3
   129ec:	218010ef          	jal	ra,13c04 <_wcsrtombs_r>
   129f0:	01412e03          	lw	t3,20(sp)
   129f4:	00ac8463          	beq	s9,a0,129fc <_vfprintf_r+0x1c24>
   129f8:	7c50006f          	j	139bc <_vfprintf_r+0x2be4>
   129fc:	019b8733          	add	a4,s7,s9
   12a00:	00070023          	sb	zero,0(a4)
   12a04:	07714603          	lbu	a2,119(sp)
   12a08:	fffcc893          	not	a7,s9
   12a0c:	41f8d893          	srai	a7,a7,0x1f
   12a10:	01b12a23          	sw	s11,20(sp)
   12a14:	02012423          	sw	zero,40(sp)
   12a18:	02012223          	sw	zero,36(sp)
   12a1c:	00012c23          	sw	zero,24(sp)
   12a20:	011cfc33          	and	s8,s9,a7
   12a24:	00000313          	li	t1,0
   12a28:	00061463          	bnez	a2,12a30 <_vfprintf_r+0x1c58>
   12a2c:	ddcfe06f          	j	11008 <_vfprintf_r+0x230>
   12a30:	9d9fe06f          	j	11408 <_vfprintf_r+0x630>
   12a34:	00048693          	mv	a3,s1
   12a38:	00090493          	mv	s1,s2
   12a3c:	000a0913          	mv	s2,s4
   12a40:	00068a13          	mv	s4,a3
   12a44:	01970733          	add	a4,a4,s9
   12a48:	00178793          	addi	a5,a5,1
   12a4c:	01442023          	sw	s4,0(s0)
   12a50:	e68fe06f          	j	110b8 <_vfprintf_r+0x2e0>
   12a54:	01412783          	lw	a5,20(sp)
   12a58:	00c12703          	lw	a4,12(sp)
   12a5c:	0007a783          	lw	a5,0(a5)
   12a60:	00e7a023          	sw	a4,0(a5)
   12a64:	ea9fe06f          	j	1190c <_vfprintf_r+0xb34>
   12a68:	00040793          	mv	a5,s0
   12a6c:	000a0413          	mv	s0,s4
   12a70:	00078a13          	mv	s4,a5
   12a74:	00870733          	add	a4,a4,s0
   12a78:	001c8c93          	addi	s9,s9,1
   12a7c:	014da023          	sw	s4,0(s11)
   12a80:	a75fe06f          	j	114f4 <_vfprintf_r+0x71c>
   12a84:	01000593          	li	a1,16
   12a88:	000a0713          	mv	a4,s4
   12a8c:	0a412603          	lw	a2,164(sp)
   12a90:	0000fa17          	auipc	s4,0xf
   12a94:	fc8a0a13          	addi	s4,s4,-56 # 21a58 <zeroes.0>
   12a98:	0f95da63          	bge	a1,s9,12b8c <_vfprintf_r+0x1db4>
   12a9c:	000a0793          	mv	a5,s4
   12aa0:	00812d83          	lw	s11,8(sp)
   12aa4:	00090a13          	mv	s4,s2
   12aa8:	01000e13          	li	t3,16
   12aac:	00048913          	mv	s2,s1
   12ab0:	00700f13          	li	t5,7
   12ab4:	04612823          	sw	t1,80(sp)
   12ab8:	00078493          	mv	s1,a5
   12abc:	00c0006f          	j	12ac8 <_vfprintf_r+0x1cf0>
   12ac0:	ff0c8c93          	addi	s9,s9,-16
   12ac4:	0b9e5a63          	bge	t3,s9,12b78 <_vfprintf_r+0x1da0>
   12ac8:	01070713          	addi	a4,a4,16
   12acc:	00160613          	addi	a2,a2,1
   12ad0:	00942023          	sw	s1,0(s0)
   12ad4:	01c42223          	sw	t3,4(s0)
   12ad8:	0ae12423          	sw	a4,168(sp)
   12adc:	0ac12223          	sw	a2,164(sp)
   12ae0:	00840413          	addi	s0,s0,8
   12ae4:	fccf5ee3          	bge	t5,a2,12ac0 <_vfprintf_r+0x1ce8>
   12ae8:	0a010613          	addi	a2,sp,160
   12aec:	000d8593          	mv	a1,s11
   12af0:	00098513          	mv	a0,s3
   12af4:	688070ef          	jal	ra,1a17c <__sprint_r>
   12af8:	00050463          	beqz	a0,12b00 <_vfprintf_r+0x1d28>
   12afc:	f88fe06f          	j	11284 <_vfprintf_r+0x4ac>
   12b00:	0a812703          	lw	a4,168(sp)
   12b04:	0a412603          	lw	a2,164(sp)
   12b08:	0ac10413          	addi	s0,sp,172
   12b0c:	00700f13          	li	t5,7
   12b10:	01000e13          	li	t3,16
   12b14:	fadff06f          	j	12ac0 <_vfprintf_r+0x1ce8>
   12b18:	03812683          	lw	a3,56(sp)
   12b1c:	03412783          	lw	a5,52(sp)
   12b20:	00700593          	li	a1,7
   12b24:	00d42023          	sw	a3,0(s0)
   12b28:	0a412683          	lw	a3,164(sp)
   12b2c:	00e78733          	add	a4,a5,a4
   12b30:	00f42223          	sw	a5,4(s0)
   12b34:	00168693          	addi	a3,a3,1
   12b38:	0ae12423          	sw	a4,168(sp)
   12b3c:	0ad12223          	sw	a3,164(sp)
   12b40:	00840413          	addi	s0,s0,8
   12b44:	14d5c663          	blt	a1,a3,12c90 <_vfprintf_r+0x1eb8>
   12b48:	220648e3          	bltz	a2,13578 <_vfprintf_r+0x27a0>
   12b4c:	02012783          	lw	a5,32(sp)
   12b50:	00168693          	addi	a3,a3,1
   12b54:	01742023          	sw	s7,0(s0)
   12b58:	00e78733          	add	a4,a5,a4
   12b5c:	00f42223          	sw	a5,4(s0)
   12b60:	0ae12423          	sw	a4,168(sp)
   12b64:	0ad12223          	sw	a3,164(sp)
   12b68:	00700793          	li	a5,7
   12b6c:	00d7c463          	blt	a5,a3,12b74 <_vfprintf_r+0x1d9c>
   12b70:	d5cfe06f          	j	110cc <_vfprintf_r+0x2f4>
   12b74:	9c5fe06f          	j	11538 <_vfprintf_r+0x760>
   12b78:	05012303          	lw	t1,80(sp)
   12b7c:	00048793          	mv	a5,s1
   12b80:	00090493          	mv	s1,s2
   12b84:	000a0913          	mv	s2,s4
   12b88:	00078a13          	mv	s4,a5
   12b8c:	00ec8733          	add	a4,s9,a4
   12b90:	00160613          	addi	a2,a2,1
   12b94:	01442023          	sw	s4,0(s0)
   12b98:	01942223          	sw	s9,4(s0)
   12b9c:	0ae12423          	sw	a4,168(sp)
   12ba0:	0ac12223          	sw	a2,164(sp)
   12ba4:	00700693          	li	a3,7
   12ba8:	28c6cc63          	blt	a3,a2,12e40 <_vfprintf_r+0x2068>
   12bac:	00840413          	addi	s0,s0,8
   12bb0:	00070a13          	mv	s4,a4
   12bb4:	b54ff06f          	j	11f08 <_vfprintf_r+0x1130>
   12bb8:	00068c93          	mv	s9,a3
   12bbc:	bb8ff06f          	j	11f74 <_vfprintf_r+0x119c>
   12bc0:	00812583          	lw	a1,8(sp)
   12bc4:	0a010613          	addi	a2,sp,160
   12bc8:	00098513          	mv	a0,s3
   12bcc:	5b0070ef          	jal	ra,1a17c <__sprint_r>
   12bd0:	00050463          	beqz	a0,12bd8 <_vfprintf_r+0x1e00>
   12bd4:	eb0fe06f          	j	11284 <_vfprintf_r+0x4ac>
   12bd8:	07c12603          	lw	a2,124(sp)
   12bdc:	0a812703          	lw	a4,168(sp)
   12be0:	0ac10413          	addi	s0,sp,172
   12be4:	e78ff06f          	j	1225c <_vfprintf_r+0x1484>
   12be8:	00600c13          	li	s8,6
   12bec:	8b9ff06f          	j	124a4 <_vfprintf_r+0x16cc>
   12bf0:	40d786b3          	sub	a3,a5,a3
   12bf4:	41730cb3          	sub	s9,t1,s7
   12bf8:	000a0713          	mv	a4,s4
   12bfc:	bb96d463          	bge	a3,s9,11fa4 <_vfprintf_r+0x11cc>
   12c00:	00068c93          	mv	s9,a3
   12c04:	ba0ff06f          	j	11fa4 <_vfprintf_r+0x11cc>
   12c08:	0ffdfd93          	zext.b	s11,s11
   12c0c:	00000c93          	li	s9,0
   12c10:	ffcff06f          	j	1240c <_vfprintf_r+0x1634>
   12c14:	018d9d93          	slli	s11,s11,0x18
   12c18:	418ddd93          	srai	s11,s11,0x18
   12c1c:	41fddc93          	srai	s9,s11,0x1f
   12c20:	000c8793          	mv	a5,s9
   12c24:	c35fe06f          	j	11858 <_vfprintf_r+0xa80>
   12c28:	01412783          	lw	a5,20(sp)
   12c2c:	00c12703          	lw	a4,12(sp)
   12c30:	0007a783          	lw	a5,0(a5)
   12c34:	00e79023          	sh	a4,0(a5)
   12c38:	cd5fe06f          	j	1190c <_vfprintf_r+0xb34>
   12c3c:	0ffdfd93          	zext.b	s11,s11
   12c40:	00000c93          	li	s9,0
   12c44:	b1dfe06f          	j	11760 <_vfprintf_r+0x988>
   12c48:	00012823          	sw	zero,16(sp)
   12c4c:	03012783          	lw	a5,48(sp)
   12c50:	80000737          	lui	a4,0x80000
   12c54:	00f74db3          	xor	s11,a4,a5
   12c58:	02d00793          	li	a5,45
   12c5c:	04f12a23          	sw	a5,84(sp)
   12c60:	b35ff06f          	j	12794 <_vfprintf_r+0x19bc>
   12c64:	00812583          	lw	a1,8(sp)
   12c68:	0a010613          	addi	a2,sp,160
   12c6c:	00098513          	mv	a0,s3
   12c70:	50c070ef          	jal	ra,1a17c <__sprint_r>
   12c74:	00051463          	bnez	a0,12c7c <_vfprintf_r+0x1ea4>
   12c78:	dccfe06f          	j	11244 <_vfprintf_r+0x46c>
   12c7c:	e1cfe06f          	j	11298 <_vfprintf_r+0x4c0>
   12c80:	000b8513          	mv	a0,s7
   12c84:	7b5060ef          	jal	ra,19c38 <strlen>
   12c88:	00050c93          	mv	s9,a0
   12c8c:	9c5fe06f          	j	11650 <_vfprintf_r+0x878>
   12c90:	00812583          	lw	a1,8(sp)
   12c94:	0a010613          	addi	a2,sp,160
   12c98:	00098513          	mv	a0,s3
   12c9c:	4e0070ef          	jal	ra,1a17c <__sprint_r>
   12ca0:	00050463          	beqz	a0,12ca8 <_vfprintf_r+0x1ed0>
   12ca4:	de0fe06f          	j	11284 <_vfprintf_r+0x4ac>
   12ca8:	07c12603          	lw	a2,124(sp)
   12cac:	0a812703          	lw	a4,168(sp)
   12cb0:	0a412683          	lw	a3,164(sp)
   12cb4:	0ac10413          	addi	s0,sp,172
   12cb8:	e91ff06f          	j	12b48 <_vfprintf_r+0x1d70>
   12cbc:	05862503          	lw	a0,88(a2)
   12cc0:	00f12623          	sw	a5,12(sp)
   12cc4:	684040ef          	jal	ra,17348 <__retarget_lock_release_recursive>
   12cc8:	00c12783          	lw	a5,12(sp)
   12ccc:	ca8fe06f          	j	11174 <_vfprintf_r+0x39c>
   12cd0:	02412783          	lw	a5,36(sp)
   12cd4:	0017f713          	andi	a4,a5,1
   12cd8:	10071ae3          	bnez	a4,135ec <_vfprintf_r+0x2814>
   12cdc:	09812b03          	lw	s6,152(sp)
   12ce0:	07c12603          	lw	a2,124(sp)
   12ce4:	417b07b3          	sub	a5,s6,s7
   12ce8:	02f12023          	sw	a5,32(sp)
   12cec:	ffd00713          	li	a4,-3
   12cf0:	00c12c23          	sw	a2,24(sp)
   12cf4:	00e64463          	blt	a2,a4,12cfc <_vfprintf_r+0x1f24>
   12cf8:	46c35463          	bge	t1,a2,13160 <_vfprintf_r+0x2388>
   12cfc:	fff60b13          	addi	s6,a2,-1
   12d00:	ffee0e13          	addi	t3,t3,-2
   12d04:	07612e23          	sw	s6,124(sp)
   12d08:	0ffe7693          	zext.b	a3,t3
   12d0c:	00000593          	li	a1,0
   12d10:	08d10423          	sb	a3,136(sp)
   12d14:	02b00693          	li	a3,43
   12d18:	000b5863          	bgez	s6,12d28 <_vfprintf_r+0x1f50>
   12d1c:	00100713          	li	a4,1
   12d20:	40c70b33          	sub	s6,a4,a2
   12d24:	02d00693          	li	a3,45
   12d28:	08d104a3          	sb	a3,137(sp)
   12d2c:	00900693          	li	a3,9
   12d30:	2166d4e3          	bge	a3,s6,13738 <_vfprintf_r+0x2960>
   12d34:	09f10c93          	addi	s9,sp,159
   12d38:	00098a13          	mv	s4,s3
   12d3c:	06300d93          	li	s11,99
   12d40:	00040993          	mv	s3,s0
   12d44:	00912c23          	sw	s1,24(sp)
   12d48:	03c12423          	sw	t3,40(sp)
   12d4c:	000c8413          	mv	s0,s9
   12d50:	00a00593          	li	a1,10
   12d54:	000b0513          	mv	a0,s6
   12d58:	1e10e0ef          	jal	ra,21738 <__modsi3>
   12d5c:	03050793          	addi	a5,a0,48
   12d60:	fef40fa3          	sb	a5,-1(s0)
   12d64:	000b0513          	mv	a0,s6
   12d68:	00a00593          	li	a1,10
   12d6c:	000b0493          	mv	s1,s6
   12d70:	1450e0ef          	jal	ra,216b4 <__divsi3>
   12d74:	00040c13          	mv	s8,s0
   12d78:	00050b13          	mv	s6,a0
   12d7c:	fff40413          	addi	s0,s0,-1
   12d80:	fc9dc8e3          	blt	s11,s1,12d50 <_vfprintf_r+0x1f78>
   12d84:	000a0793          	mv	a5,s4
   12d88:	03050713          	addi	a4,a0,48
   12d8c:	000c0a13          	mv	s4,s8
   12d90:	00040c13          	mv	s8,s0
   12d94:	ffea0693          	addi	a3,s4,-2
   12d98:	feec0fa3          	sb	a4,-1(s8)
   12d9c:	00098413          	mv	s0,s3
   12da0:	01812483          	lw	s1,24(sp)
   12da4:	02812e03          	lw	t3,40(sp)
   12da8:	00078993          	mv	s3,a5
   12dac:	3f96f6e3          	bgeu	a3,s9,13998 <_vfprintf_r+0x2bc0>
   12db0:	08a10713          	addi	a4,sp,138
   12db4:	0006c783          	lbu	a5,0(a3)
   12db8:	00168693          	addi	a3,a3,1
   12dbc:	00170713          	addi	a4,a4,1 # 80000001 <__BSS_END__+0x7ffdc1d1>
   12dc0:	fef70fa3          	sb	a5,-1(a4)
   12dc4:	ff9698e3          	bne	a3,s9,12db4 <_vfprintf_r+0x1fdc>
   12dc8:	0a110713          	addi	a4,sp,161
   12dcc:	08a10793          	addi	a5,sp,138
   12dd0:	41470733          	sub	a4,a4,s4
   12dd4:	00e78733          	add	a4,a5,a4
   12dd8:	08810693          	addi	a3,sp,136
   12ddc:	40d707b3          	sub	a5,a4,a3
   12de0:	04f12223          	sw	a5,68(sp)
   12de4:	02012783          	lw	a5,32(sp)
   12de8:	04412683          	lw	a3,68(sp)
   12dec:	00100713          	li	a4,1
   12df0:	00d78cb3          	add	s9,a5,a3
   12df4:	1af756e3          	bge	a4,a5,137a0 <_vfprintf_r+0x29c8>
   12df8:	03412783          	lw	a5,52(sp)
   12dfc:	00fc8cb3          	add	s9,s9,a5
   12e00:	02412783          	lw	a5,36(sp)
   12e04:	fffcc893          	not	a7,s9
   12e08:	41f8d893          	srai	a7,a7,0x1f
   12e0c:	bff7f813          	andi	a6,a5,-1025
   12e10:	10086b13          	ori	s6,a6,256
   12e14:	011cfc33          	and	s8,s9,a7
   12e18:	02012423          	sw	zero,40(sp)
   12e1c:	02012223          	sw	zero,36(sp)
   12e20:	00012c23          	sw	zero,24(sp)
   12e24:	05412783          	lw	a5,84(sp)
   12e28:	2c079c63          	bnez	a5,13100 <_vfprintf_r+0x2328>
   12e2c:	07714603          	lbu	a2,119(sp)
   12e30:	00000313          	li	t1,0
   12e34:	00061463          	bnez	a2,12e3c <_vfprintf_r+0x2064>
   12e38:	9d0fe06f          	j	11008 <_vfprintf_r+0x230>
   12e3c:	dccfe06f          	j	11408 <_vfprintf_r+0x630>
   12e40:	00812583          	lw	a1,8(sp)
   12e44:	0a010613          	addi	a2,sp,160
   12e48:	00098513          	mv	a0,s3
   12e4c:	04612823          	sw	t1,80(sp)
   12e50:	32c070ef          	jal	ra,1a17c <__sprint_r>
   12e54:	00050463          	beqz	a0,12e5c <_vfprintf_r+0x2084>
   12e58:	c2cfe06f          	j	11284 <_vfprintf_r+0x4ac>
   12e5c:	0a812a03          	lw	s4,168(sp)
   12e60:	05012303          	lw	t1,80(sp)
   12e64:	0ac10413          	addi	s0,sp,172
   12e68:	8a0ff06f          	j	11f08 <_vfprintf_r+0x1130>
   12e6c:	00130593          	addi	a1,t1,1
   12e70:	00098513          	mv	a0,s3
   12e74:	01c12c23          	sw	t3,24(sp)
   12e78:	00612823          	sw	t1,16(sp)
   12e7c:	e14fd0ef          	jal	ra,10490 <_malloc_r>
   12e80:	01012303          	lw	t1,16(sp)
   12e84:	01812e03          	lw	t3,24(sp)
   12e88:	00050b93          	mv	s7,a0
   12e8c:	08050ce3          	beqz	a0,13724 <_vfprintf_r+0x294c>
   12e90:	00a12823          	sw	a0,16(sp)
   12e94:	8e9ff06f          	j	1277c <_vfprintf_r+0x19a4>
   12e98:	02c12603          	lw	a2,44(sp)
   12e9c:	000d8593          	mv	a1,s11
   12ea0:	00000693          	li	a3,0
   12ea4:	00060513          	mv	a0,a2
   12ea8:	00000613          	li	a2,0
   12eac:	02612023          	sw	t1,32(sp)
   12eb0:	01c12c23          	sw	t3,24(sp)
   12eb4:	6650c0ef          	jal	ra,1fd18 <__eqdf2>
   12eb8:	01812e03          	lw	t3,24(sp)
   12ebc:	02012303          	lw	t1,32(sp)
   12ec0:	96050ce3          	beqz	a0,12838 <_vfprintf_r+0x1a60>
   12ec4:	00100693          	li	a3,1
   12ec8:	419686b3          	sub	a3,a3,s9
   12ecc:	06d12e23          	sw	a3,124(sp)
   12ed0:	96dff06f          	j	1283c <_vfprintf_r+0x1a64>
   12ed4:	02c12703          	lw	a4,44(sp)
   12ed8:	000d8593          	mv	a1,s11
   12edc:	07c10613          	addi	a2,sp,124
   12ee0:	00070513          	mv	a0,a4
   12ee4:	02612023          	sw	t1,32(sp)
   12ee8:	01c12c23          	sw	t3,24(sp)
   12eec:	678060ef          	jal	ra,19564 <frexp>
   12ef0:	00011717          	auipc	a4,0x11
   12ef4:	b9870713          	addi	a4,a4,-1128 # 23a88 <__SDATA_BEGIN__+0x8>
   12ef8:	00072603          	lw	a2,0(a4)
   12efc:	00472683          	lw	a3,4(a4)
   12f00:	0a80d0ef          	jal	ra,1ffa8 <__muldf3>
   12f04:	00000613          	li	a2,0
   12f08:	00000693          	li	a3,0
   12f0c:	00050c93          	mv	s9,a0
   12f10:	00058d93          	mv	s11,a1
   12f14:	6050c0ef          	jal	ra,1fd18 <__eqdf2>
   12f18:	01812e03          	lw	t3,24(sp)
   12f1c:	02012303          	lw	t1,32(sp)
   12f20:	00051e63          	bnez	a0,12f3c <_vfprintf_r+0x2164>
   12f24:	00100713          	li	a4,1
   12f28:	06e12e23          	sw	a4,124(sp)
   12f2c:	06100713          	li	a4,97
   12f30:	0000f817          	auipc	a6,0xf
   12f34:	8f080813          	addi	a6,a6,-1808 # 21820 <__clzsi2+0xb8>
   12f38:	00ee0663          	beq	t3,a4,12f44 <_vfprintf_r+0x216c>
   12f3c:	0000f817          	auipc	a6,0xf
   12f40:	8f880813          	addi	a6,a6,-1800 # 21834 <__clzsi2+0xcc>
   12f44:	00011717          	auipc	a4,0x11
   12f48:	b4c70713          	addi	a4,a4,-1204 # 23a90 <__SDATA_BEGIN__+0x10>
   12f4c:	00472783          	lw	a5,4(a4)
   12f50:	00072703          	lw	a4,0(a4)
   12f54:	05212c23          	sw	s2,88(sp)
   12f58:	00f12e23          	sw	a5,28(sp)
   12f5c:	000c8793          	mv	a5,s9
   12f60:	000b8913          	mv	s2,s7
   12f64:	00098c93          	mv	s9,s3
   12f68:	000d8a13          	mv	s4,s11
   12f6c:	00e12c23          	sw	a4,24(sp)
   12f70:	000b8d93          	mv	s11,s7
   12f74:	fff30c13          	addi	s8,t1,-1
   12f78:	00040b93          	mv	s7,s0
   12f7c:	02912023          	sw	s1,32(sp)
   12f80:	03c12423          	sw	t3,40(sp)
   12f84:	04612e23          	sw	t1,92(sp)
   12f88:	00080413          	mv	s0,a6
   12f8c:	00078993          	mv	s3,a5
   12f90:	01c0006f          	j	12fac <_vfprintf_r+0x21d4>
   12f94:	00000693          	li	a3,0
   12f98:	00000613          	li	a2,0
   12f9c:	57d0c0ef          	jal	ra,1fd18 <__eqdf2>
   12fa0:	fffc0693          	addi	a3,s8,-1
   12fa4:	7c050263          	beqz	a0,13768 <_vfprintf_r+0x2990>
   12fa8:	00068c13          	mv	s8,a3
   12fac:	01812603          	lw	a2,24(sp)
   12fb0:	01c12683          	lw	a3,28(sp)
   12fb4:	00098513          	mv	a0,s3
   12fb8:	000a0593          	mv	a1,s4
   12fbc:	7ed0c0ef          	jal	ra,1ffa8 <__muldf3>
   12fc0:	00058493          	mv	s1,a1
   12fc4:	00050993          	mv	s3,a0
   12fc8:	1240e0ef          	jal	ra,210ec <__fixdfsi>
   12fcc:	00050b13          	mv	s6,a0
   12fd0:	1a00e0ef          	jal	ra,21170 <__floatsidf>
   12fd4:	00058693          	mv	a3,a1
   12fd8:	00050613          	mv	a2,a0
   12fdc:	00048593          	mv	a1,s1
   12fe0:	00098513          	mv	a0,s3
   12fe4:	7a00d0ef          	jal	ra,20784 <__subdf3>
   12fe8:	01640733          	add	a4,s0,s6
   12fec:	00074683          	lbu	a3,0(a4)
   12ff0:	fff00793          	li	a5,-1
   12ff4:	00090493          	mv	s1,s2
   12ff8:	00d90023          	sb	a3,0(s2)
   12ffc:	00050993          	mv	s3,a0
   13000:	00190913          	addi	s2,s2,1
   13004:	00058a13          	mv	s4,a1
   13008:	f8fc16e3          	bne	s8,a5,12f94 <_vfprintf_r+0x21bc>
   1300c:	00912c23          	sw	s1,24(sp)
   13010:	00090a13          	mv	s4,s2
   13014:	02812e03          	lw	t3,40(sp)
   13018:	05c12303          	lw	t1,92(sp)
   1301c:	02012483          	lw	s1,32(sp)
   13020:	05812903          	lw	s2,88(sp)
   13024:	00040813          	mv	a6,s0
   13028:	000c8993          	mv	s3,s9
   1302c:	000b8413          	mv	s0,s7
   13030:	00050c93          	mv	s9,a0
   13034:	000d8b93          	mv	s7,s11
   13038:	fff00c13          	li	s8,-1
   1303c:	00058d93          	mv	s11,a1
   13040:	00011697          	auipc	a3,0x11
   13044:	a5868693          	addi	a3,a3,-1448 # 23a98 <__SDATA_BEGIN__+0x18>
   13048:	0006a703          	lw	a4,0(a3)
   1304c:	0046a783          	lw	a5,4(a3)
   13050:	000c8513          	mv	a0,s9
   13054:	000d8593          	mv	a1,s11
   13058:	00070613          	mv	a2,a4
   1305c:	00078693          	mv	a3,a5
   13060:	05012c23          	sw	a6,88(sp)
   13064:	02612423          	sw	t1,40(sp)
   13068:	03c12023          	sw	t3,32(sp)
   1306c:	5390c0ef          	jal	ra,1fda4 <__gedf2>
   13070:	02012e03          	lw	t3,32(sp)
   13074:	02812303          	lw	t1,40(sp)
   13078:	05812803          	lw	a6,88(sp)
   1307c:	5ea04863          	bgtz	a0,1366c <_vfprintf_r+0x2894>
   13080:	00011797          	auipc	a5,0x11
   13084:	a1878793          	addi	a5,a5,-1512 # 23a98 <__SDATA_BEGIN__+0x18>
   13088:	0007a703          	lw	a4,0(a5)
   1308c:	0047a783          	lw	a5,4(a5)
   13090:	000c8513          	mv	a0,s9
   13094:	000d8593          	mv	a1,s11
   13098:	00070613          	mv	a2,a4
   1309c:	00078693          	mv	a3,a5
   130a0:	4790c0ef          	jal	ra,1fd18 <__eqdf2>
   130a4:	02012e03          	lw	t3,32(sp)
   130a8:	02812303          	lw	t1,40(sp)
   130ac:	05812803          	lw	a6,88(sp)
   130b0:	00051663          	bnez	a0,130bc <_vfprintf_r+0x22e4>
   130b4:	001b7b13          	andi	s6,s6,1
   130b8:	5a0b1a63          	bnez	s6,1366c <_vfprintf_r+0x2894>
   130bc:	001c0b13          	addi	s6,s8,1
   130c0:	016a0b33          	add	s6,s4,s6
   130c4:	03000693          	li	a3,48
   130c8:	5e0c4663          	bltz	s8,136b4 <_vfprintf_r+0x28dc>
   130cc:	001a0a13          	addi	s4,s4,1
   130d0:	feda0fa3          	sb	a3,-1(s4)
   130d4:	ff4b1ce3          	bne	s6,s4,130cc <_vfprintf_r+0x22f4>
   130d8:	417b07b3          	sub	a5,s6,s7
   130dc:	02f12023          	sw	a5,32(sp)
   130e0:	fdfe7a13          	andi	s4,t3,-33
   130e4:	fb4ff06f          	j	12898 <_vfprintf_r+0x1ac0>
   130e8:	00130c93          	addi	s9,t1,1
   130ec:	00200693          	li	a3,2
   130f0:	ee0ff06f          	j	127d0 <_vfprintf_r+0x19f8>
   130f4:	00030c93          	mv	s9,t1
   130f8:	00300693          	li	a3,3
   130fc:	ed4ff06f          	j	127d0 <_vfprintf_r+0x19f8>
   13100:	02d00713          	li	a4,45
   13104:	06e10ba3          	sb	a4,119(sp)
   13108:	02d00613          	li	a2,45
   1310c:	00000313          	li	t1,0
   13110:	001c0c13          	addi	s8,s8,1
   13114:	ef5fd06f          	j	11008 <_vfprintf_r+0x230>
   13118:	09810713          	addi	a4,sp,152
   1311c:	00000693          	li	a3,0
   13120:	08410613          	addi	a2,sp,132
   13124:	00000593          	li	a1,0
   13128:	00098513          	mv	a0,s3
   1312c:	00612a23          	sw	t1,20(sp)
   13130:	01c12823          	sw	t3,16(sp)
   13134:	2d1000ef          	jal	ra,13c04 <_wcsrtombs_r>
   13138:	01412303          	lw	t1,20(sp)
   1313c:	01012e03          	lw	t3,16(sp)
   13140:	00050c93          	mv	s9,a0
   13144:	5e650063          	beq	a0,t1,13724 <_vfprintf_r+0x294c>
   13148:	09712223          	sw	s7,132(sp)
   1314c:	84dff06f          	j	12998 <_vfprintf_r+0x1bc0>
   13150:	02d00793          	li	a5,45
   13154:	06f10ba3          	sb	a5,119(sp)
   13158:	02d00613          	li	a2,45
   1315c:	a70fe06f          	j	113cc <_vfprintf_r+0x5f4>
   13160:	02012703          	lw	a4,32(sp)
   13164:	48e64a63          	blt	a2,a4,135f8 <_vfprintf_r+0x2820>
   13168:	02412783          	lw	a5,36(sp)
   1316c:	00060c93          	mv	s9,a2
   13170:	0017f713          	andi	a4,a5,1
   13174:	00070663          	beqz	a4,13180 <_vfprintf_r+0x23a8>
   13178:	03412783          	lw	a5,52(sp)
   1317c:	00f60cb3          	add	s9,a2,a5
   13180:	02412783          	lw	a5,36(sp)
   13184:	4007f713          	andi	a4,a5,1024
   13188:	00070463          	beqz	a4,13190 <_vfprintf_r+0x23b8>
   1318c:	62c04663          	bgtz	a2,137b8 <_vfprintf_r+0x29e0>
   13190:	fffcc893          	not	a7,s9
   13194:	05012b03          	lw	s6,80(sp)
   13198:	41f8d893          	srai	a7,a7,0x1f
   1319c:	011cfc33          	and	s8,s9,a7
   131a0:	06700e13          	li	t3,103
   131a4:	02012423          	sw	zero,40(sp)
   131a8:	02012223          	sw	zero,36(sp)
   131ac:	c79ff06f          	j	12e24 <_vfprintf_r+0x204c>
   131b0:	04812783          	lw	a5,72(sp)
   131b4:	04c12583          	lw	a1,76(sp)
   131b8:	00000493          	li	s1,0
   131bc:	40f40433          	sub	s0,s0,a5
   131c0:	00078613          	mv	a2,a5
   131c4:	00040513          	mv	a0,s0
   131c8:	379060ef          	jal	ra,19d40 <strncpy>
   131cc:	001b4703          	lbu	a4,1(s6)
   131d0:	00a00613          	li	a2,10
   131d4:	00000693          	li	a3,0
   131d8:	00e03733          	snez	a4,a4
   131dc:	000d8513          	mv	a0,s11
   131e0:	000c8593          	mv	a1,s9
   131e4:	00eb0b33          	add	s6,s6,a4
   131e8:	5990a0ef          	jal	ra,1df80 <__udivdi3>
   131ec:	c28ff06f          	j	12614 <_vfprintf_r+0x183c>
   131f0:	00040793          	mv	a5,s0
   131f4:	02412403          	lw	s0,36(sp)
   131f8:	04912823          	sw	s1,80(sp)
   131fc:	05612a23          	sw	s6,84(sp)
   13200:	05212c23          	sw	s2,88(sp)
   13204:	05812e23          	sw	s8,92(sp)
   13208:	000b8b13          	mv	s6,s7
   1320c:	000a0613          	mv	a2,s4
   13210:	04c12903          	lw	s2,76(sp)
   13214:	04812b83          	lw	s7,72(sp)
   13218:	02812c03          	lw	s8,40(sp)
   1321c:	00812d83          	lw	s11,8(sp)
   13220:	04012a03          	lw	s4,64(sp)
   13224:	00700e13          	li	t3,7
   13228:	01000693          	li	a3,16
   1322c:	0000ff17          	auipc	t5,0xf
   13230:	82cf0f13          	addi	t5,t5,-2004 # 21a58 <zeroes.0>
   13234:	00030493          	mv	s1,t1
   13238:	08040463          	beqz	s0,132c0 <_vfprintf_r+0x24e8>
   1323c:	160c0c63          	beqz	s8,133b4 <_vfprintf_r+0x25dc>
   13240:	fffc0c13          	addi	s8,s8,-1
   13244:	0a412703          	lw	a4,164(sp)
   13248:	01760633          	add	a2,a2,s7
   1324c:	0127a023          	sw	s2,0(a5)
   13250:	00170713          	addi	a4,a4,1
   13254:	0177a223          	sw	s7,4(a5)
   13258:	0ac12423          	sw	a2,168(sp)
   1325c:	0ae12223          	sw	a4,164(sp)
   13260:	00878793          	addi	a5,a5,8
   13264:	14ee4e63          	blt	t3,a4,133c0 <_vfprintf_r+0x25e8>
   13268:	000a4703          	lbu	a4,0(s4)
   1326c:	41648cb3          	sub	s9,s1,s6
   13270:	01975463          	bge	a4,s9,13278 <_vfprintf_r+0x24a0>
   13274:	00070c93          	mv	s9,a4
   13278:	03905663          	blez	s9,132a4 <_vfprintf_r+0x24cc>
   1327c:	0a412703          	lw	a4,164(sp)
   13280:	01960633          	add	a2,a2,s9
   13284:	0167a023          	sw	s6,0(a5)
   13288:	00170713          	addi	a4,a4,1
   1328c:	0197a223          	sw	s9,4(a5)
   13290:	0ac12423          	sw	a2,168(sp)
   13294:	0ae12223          	sw	a4,164(sp)
   13298:	14ee4e63          	blt	t3,a4,133f4 <_vfprintf_r+0x261c>
   1329c:	000a4703          	lbu	a4,0(s4)
   132a0:	00878793          	addi	a5,a5,8
   132a4:	fffcc593          	not	a1,s9
   132a8:	41f5d593          	srai	a1,a1,0x1f
   132ac:	00bcfcb3          	and	s9,s9,a1
   132b0:	41970cb3          	sub	s9,a4,s9
   132b4:	05904263          	bgtz	s9,132f8 <_vfprintf_r+0x2520>
   132b8:	00eb0b33          	add	s6,s6,a4
   132bc:	f80410e3          	bnez	s0,1323c <_vfprintf_r+0x2464>
   132c0:	f80c10e3          	bnez	s8,13240 <_vfprintf_r+0x2468>
   132c4:	00048313          	mv	t1,s1
   132c8:	05412023          	sw	s4,64(sp)
   132cc:	000b0b93          	mv	s7,s6
   132d0:	05012483          	lw	s1,80(sp)
   132d4:	05412b03          	lw	s6,84(sp)
   132d8:	05812903          	lw	s2,88(sp)
   132dc:	05c12c03          	lw	s8,92(sp)
   132e0:	00078413          	mv	s0,a5
   132e4:	00060a13          	mv	s4,a2
   132e8:	01736463          	bltu	t1,s7,132f0 <_vfprintf_r+0x2518>
   132ec:	c31fe06f          	j	11f1c <_vfprintf_r+0x1144>
   132f0:	00030b93          	mv	s7,t1
   132f4:	c29fe06f          	j	11f1c <_vfprintf_r+0x1144>
   132f8:	0a412703          	lw	a4,164(sp)
   132fc:	0000e597          	auipc	a1,0xe
   13300:	75c58593          	addi	a1,a1,1884 # 21a58 <zeroes.0>
   13304:	0996d263          	bge	a3,s9,13388 <_vfprintf_r+0x25b0>
   13308:	00812c23          	sw	s0,24(sp)
   1330c:	000c8413          	mv	s0,s9
   13310:	000f0c93          	mv	s9,t5
   13314:	00c0006f          	j	13320 <_vfprintf_r+0x2548>
   13318:	ff040413          	addi	s0,s0,-16
   1331c:	0686d063          	bge	a3,s0,1337c <_vfprintf_r+0x25a4>
   13320:	01060613          	addi	a2,a2,16
   13324:	00170713          	addi	a4,a4,1
   13328:	01e7a023          	sw	t5,0(a5)
   1332c:	00d7a223          	sw	a3,4(a5)
   13330:	0ac12423          	sw	a2,168(sp)
   13334:	0ae12223          	sw	a4,164(sp)
   13338:	00878793          	addi	a5,a5,8
   1333c:	fcee5ee3          	bge	t3,a4,13318 <_vfprintf_r+0x2540>
   13340:	0a010613          	addi	a2,sp,160
   13344:	000d8593          	mv	a1,s11
   13348:	00098513          	mv	a0,s3
   1334c:	631060ef          	jal	ra,1a17c <__sprint_r>
   13350:	00050463          	beqz	a0,13358 <_vfprintf_r+0x2580>
   13354:	f31fd06f          	j	11284 <_vfprintf_r+0x4ac>
   13358:	01000693          	li	a3,16
   1335c:	ff040413          	addi	s0,s0,-16
   13360:	0a812603          	lw	a2,168(sp)
   13364:	0a412703          	lw	a4,164(sp)
   13368:	0ac10793          	addi	a5,sp,172
   1336c:	0000ef17          	auipc	t5,0xe
   13370:	6ecf0f13          	addi	t5,t5,1772 # 21a58 <zeroes.0>
   13374:	00700e13          	li	t3,7
   13378:	fa86c4e3          	blt	a3,s0,13320 <_vfprintf_r+0x2548>
   1337c:	000c8593          	mv	a1,s9
   13380:	00040c93          	mv	s9,s0
   13384:	01812403          	lw	s0,24(sp)
   13388:	00cc8633          	add	a2,s9,a2
   1338c:	00170713          	addi	a4,a4,1
   13390:	00b7a023          	sw	a1,0(a5)
   13394:	0197a223          	sw	s9,4(a5)
   13398:	0ac12423          	sw	a2,168(sp)
   1339c:	0ae12223          	sw	a4,164(sp)
   133a0:	0aee4c63          	blt	t3,a4,13458 <_vfprintf_r+0x2680>
   133a4:	000a4703          	lbu	a4,0(s4)
   133a8:	00878793          	addi	a5,a5,8
   133ac:	00eb0b33          	add	s6,s6,a4
   133b0:	f0dff06f          	j	132bc <_vfprintf_r+0x24e4>
   133b4:	fffa0a13          	addi	s4,s4,-1
   133b8:	fff40413          	addi	s0,s0,-1
   133bc:	e89ff06f          	j	13244 <_vfprintf_r+0x246c>
   133c0:	0a010613          	addi	a2,sp,160
   133c4:	000d8593          	mv	a1,s11
   133c8:	00098513          	mv	a0,s3
   133cc:	5b1060ef          	jal	ra,1a17c <__sprint_r>
   133d0:	00050463          	beqz	a0,133d8 <_vfprintf_r+0x2600>
   133d4:	eb1fd06f          	j	11284 <_vfprintf_r+0x4ac>
   133d8:	0a812603          	lw	a2,168(sp)
   133dc:	0ac10793          	addi	a5,sp,172
   133e0:	0000ef17          	auipc	t5,0xe
   133e4:	678f0f13          	addi	t5,t5,1656 # 21a58 <zeroes.0>
   133e8:	01000693          	li	a3,16
   133ec:	00700e13          	li	t3,7
   133f0:	e79ff06f          	j	13268 <_vfprintf_r+0x2490>
   133f4:	0a010613          	addi	a2,sp,160
   133f8:	000d8593          	mv	a1,s11
   133fc:	00098513          	mv	a0,s3
   13400:	57d060ef          	jal	ra,1a17c <__sprint_r>
   13404:	00050463          	beqz	a0,1340c <_vfprintf_r+0x2634>
   13408:	e7dfd06f          	j	11284 <_vfprintf_r+0x4ac>
   1340c:	000a4703          	lbu	a4,0(s4)
   13410:	0a812603          	lw	a2,168(sp)
   13414:	0ac10793          	addi	a5,sp,172
   13418:	0000ef17          	auipc	t5,0xe
   1341c:	640f0f13          	addi	t5,t5,1600 # 21a58 <zeroes.0>
   13420:	01000693          	li	a3,16
   13424:	00700e13          	li	t3,7
   13428:	e7dff06f          	j	132a4 <_vfprintf_r+0x24cc>
   1342c:	07714603          	lbu	a2,119(sp)
   13430:	01b12a23          	sw	s11,20(sp)
   13434:	02012423          	sw	zero,40(sp)
   13438:	02012223          	sw	zero,36(sp)
   1343c:	00012c23          	sw	zero,24(sp)
   13440:	00012823          	sw	zero,16(sp)
   13444:	00000c13          	li	s8,0
   13448:	00000313          	li	t1,0
   1344c:	00061463          	bnez	a2,13454 <_vfprintf_r+0x267c>
   13450:	bb9fd06f          	j	11008 <_vfprintf_r+0x230>
   13454:	fb5fd06f          	j	11408 <_vfprintf_r+0x630>
   13458:	0a010613          	addi	a2,sp,160
   1345c:	000d8593          	mv	a1,s11
   13460:	00098513          	mv	a0,s3
   13464:	519060ef          	jal	ra,1a17c <__sprint_r>
   13468:	00050463          	beqz	a0,13470 <_vfprintf_r+0x2698>
   1346c:	e19fd06f          	j	11284 <_vfprintf_r+0x4ac>
   13470:	000a4703          	lbu	a4,0(s4)
   13474:	0a812603          	lw	a2,168(sp)
   13478:	0ac10793          	addi	a5,sp,172
   1347c:	0000ef17          	auipc	t5,0xe
   13480:	5dcf0f13          	addi	t5,t5,1500 # 21a58 <zeroes.0>
   13484:	01000693          	li	a3,16
   13488:	00700e13          	li	t3,7
   1348c:	00eb0b33          	add	s6,s6,a4
   13490:	e2dff06f          	j	132bc <_vfprintf_r+0x24e4>
   13494:	00812583          	lw	a1,8(sp)
   13498:	0a010613          	addi	a2,sp,160
   1349c:	00098513          	mv	a0,s3
   134a0:	04612823          	sw	t1,80(sp)
   134a4:	4d9060ef          	jal	ra,1a17c <__sprint_r>
   134a8:	00050463          	beqz	a0,134b0 <_vfprintf_r+0x26d8>
   134ac:	dd9fd06f          	j	11284 <_vfprintf_r+0x4ac>
   134b0:	0a812a03          	lw	s4,168(sp)
   134b4:	05012303          	lw	t1,80(sp)
   134b8:	0ac10413          	addi	s0,sp,172
   134bc:	a35fe06f          	j	11ef0 <_vfprintf_r+0x1118>
   134c0:	00900713          	li	a4,9
   134c4:	95b76863          	bltu	a4,s11,12614 <_vfprintf_r+0x183c>
   134c8:	994ff06f          	j	1265c <_vfprintf_r+0x1884>
   134cc:	00812583          	lw	a1,8(sp)
   134d0:	0a010613          	addi	a2,sp,160
   134d4:	00098513          	mv	a0,s3
   134d8:	00612c23          	sw	t1,24(sp)
   134dc:	4a1060ef          	jal	ra,1a17c <__sprint_r>
   134e0:	00050463          	beqz	a0,134e8 <_vfprintf_r+0x2710>
   134e4:	da1fd06f          	j	11284 <_vfprintf_r+0x4ac>
   134e8:	07c12683          	lw	a3,124(sp)
   134ec:	0a812703          	lw	a4,168(sp)
   134f0:	01812303          	lw	t1,24(sp)
   134f4:	0ac10413          	addi	s0,sp,172
   134f8:	a6dfe06f          	j	11f64 <_vfprintf_r+0x118c>
   134fc:	02412783          	lw	a5,36(sp)
   13500:	0017f713          	andi	a4,a5,1
   13504:	01812783          	lw	a5,24(sp)
   13508:	00676733          	or	a4,a4,t1
   1350c:	44f05863          	blez	a5,1395c <_vfprintf_r+0x2b84>
   13510:	40071263          	bnez	a4,13914 <_vfprintf_r+0x2b3c>
   13514:	01812c83          	lw	s9,24(sp)
   13518:	06600e13          	li	t3,102
   1351c:	02412783          	lw	a5,36(sp)
   13520:	4007f713          	andi	a4,a5,1024
   13524:	28071c63          	bnez	a4,137bc <_vfprintf_r+0x29e4>
   13528:	fffcc893          	not	a7,s9
   1352c:	41f8d893          	srai	a7,a7,0x1f
   13530:	05012b03          	lw	s6,80(sp)
   13534:	011cfc33          	and	s8,s9,a7
   13538:	c6dff06f          	j	131a4 <_vfprintf_r+0x23cc>
   1353c:	00812583          	lw	a1,8(sp)
   13540:	0a010613          	addi	a2,sp,160
   13544:	00098513          	mv	a0,s3
   13548:	435060ef          	jal	ra,1a17c <__sprint_r>
   1354c:	00050463          	beqz	a0,13554 <_vfprintf_r+0x277c>
   13550:	d35fd06f          	j	11284 <_vfprintf_r+0x4ac>
   13554:	07c12683          	lw	a3,124(sp)
   13558:	02012783          	lw	a5,32(sp)
   1355c:	0a812703          	lw	a4,168(sp)
   13560:	0ac10413          	addi	s0,sp,172
   13564:	40d786b3          	sub	a3,a5,a3
   13568:	a3dfe06f          	j	11fa4 <_vfprintf_r+0x11cc>
   1356c:	00012823          	sw	zero,16(sp)
   13570:	0ec10b93          	addi	s7,sp,236
   13574:	c50ff06f          	j	129c4 <_vfprintf_r+0x1bec>
   13578:	ff000593          	li	a1,-16
   1357c:	40c00cb3          	neg	s9,a2
   13580:	0000ea17          	auipc	s4,0xe
   13584:	4d8a0a13          	addi	s4,s4,1240 # 21a58 <zeroes.0>
   13588:	01000d93          	li	s11,16
   1358c:	00700313          	li	t1,7
   13590:	00b64863          	blt	a2,a1,135a0 <_vfprintf_r+0x27c8>
   13594:	1440006f          	j	136d8 <_vfprintf_r+0x2900>
   13598:	ff0c8c93          	addi	s9,s9,-16
   1359c:	139dde63          	bge	s11,s9,136d8 <_vfprintf_r+0x2900>
   135a0:	01070713          	addi	a4,a4,16
   135a4:	00168693          	addi	a3,a3,1
   135a8:	01442023          	sw	s4,0(s0)
   135ac:	01b42223          	sw	s11,4(s0)
   135b0:	0ae12423          	sw	a4,168(sp)
   135b4:	0ad12223          	sw	a3,164(sp)
   135b8:	00840413          	addi	s0,s0,8
   135bc:	fcd35ee3          	bge	t1,a3,13598 <_vfprintf_r+0x27c0>
   135c0:	00812583          	lw	a1,8(sp)
   135c4:	0a010613          	addi	a2,sp,160
   135c8:	00098513          	mv	a0,s3
   135cc:	3b1060ef          	jal	ra,1a17c <__sprint_r>
   135d0:	00050463          	beqz	a0,135d8 <_vfprintf_r+0x2800>
   135d4:	cb1fd06f          	j	11284 <_vfprintf_r+0x4ac>
   135d8:	0a812703          	lw	a4,168(sp)
   135dc:	0a412683          	lw	a3,164(sp)
   135e0:	0ac10413          	addi	s0,sp,172
   135e4:	00700313          	li	t1,7
   135e8:	fb1ff06f          	j	13598 <_vfprintf_r+0x27c0>
   135ec:	019b8c33          	add	s8,s7,s9
   135f0:	04700a13          	li	s4,71
   135f4:	a4cff06f          	j	12840 <_vfprintf_r+0x1a68>
   135f8:	02012783          	lw	a5,32(sp)
   135fc:	03412703          	lw	a4,52(sp)
   13600:	06700e13          	li	t3,103
   13604:	00e78cb3          	add	s9,a5,a4
   13608:	01812783          	lw	a5,24(sp)
   1360c:	f0f048e3          	bgtz	a5,1351c <_vfprintf_r+0x2744>
   13610:	40fc86b3          	sub	a3,s9,a5
   13614:	00168c93          	addi	s9,a3,1
   13618:	fffcc893          	not	a7,s9
   1361c:	41f8d893          	srai	a7,a7,0x1f
   13620:	05012b03          	lw	s6,80(sp)
   13624:	011cfc33          	and	s8,s9,a7
   13628:	b7dff06f          	j	131a4 <_vfprintf_r+0x23cc>
   1362c:	00812783          	lw	a5,8(sp)
   13630:	0647a783          	lw	a5,100(a5)
   13634:	0017f793          	andi	a5,a5,1
   13638:	02079063          	bnez	a5,13658 <_vfprintf_r+0x2880>
   1363c:	00812783          	lw	a5,8(sp)
   13640:	00c7d783          	lhu	a5,12(a5)
   13644:	2007f793          	andi	a5,a5,512
   13648:	00079863          	bnez	a5,13658 <_vfprintf_r+0x2880>
   1364c:	00812783          	lw	a5,8(sp)
   13650:	0587a503          	lw	a0,88(a5)
   13654:	4f5030ef          	jal	ra,17348 <__retarget_lock_release_recursive>
   13658:	fff00793          	li	a5,-1
   1365c:	00f12623          	sw	a5,12(sp)
   13660:	c5dfd06f          	j	112bc <_vfprintf_r+0x4e4>
   13664:	000b0613          	mv	a2,s6
   13668:	a2cfe06f          	j	11894 <_vfprintf_r+0xabc>
   1366c:	01812783          	lw	a5,24(sp)
   13670:	00f84583          	lbu	a1,15(a6)
   13674:	000a0693          	mv	a3,s4
   13678:	08f12c23          	sw	a5,152(sp)
   1367c:	fffa4603          	lbu	a2,-1(s4)
   13680:	02b61063          	bne	a2,a1,136a0 <_vfprintf_r+0x28c8>
   13684:	03000513          	li	a0,48
   13688:	fea68fa3          	sb	a0,-1(a3)
   1368c:	09812683          	lw	a3,152(sp)
   13690:	fff68793          	addi	a5,a3,-1
   13694:	08f12c23          	sw	a5,152(sp)
   13698:	fff6c603          	lbu	a2,-1(a3)
   1369c:	fec586e3          	beq	a1,a2,13688 <_vfprintf_r+0x28b0>
   136a0:	00160593          	addi	a1,a2,1
   136a4:	03900513          	li	a0,57
   136a8:	0ff5f593          	zext.b	a1,a1
   136ac:	02a60063          	beq	a2,a0,136cc <_vfprintf_r+0x28f4>
   136b0:	feb68fa3          	sb	a1,-1(a3)
   136b4:	000a0b13          	mv	s6,s4
   136b8:	a21ff06f          	j	130d8 <_vfprintf_r+0x2300>
   136bc:	00030463          	beqz	t1,136c4 <_vfprintf_r+0x28ec>
   136c0:	874ff06f          	j	12734 <_vfprintf_r+0x195c>
   136c4:	00100313          	li	t1,1
   136c8:	86cff06f          	j	12734 <_vfprintf_r+0x195c>
   136cc:	00a84583          	lbu	a1,10(a6)
   136d0:	feb68fa3          	sb	a1,-1(a3)
   136d4:	fe1ff06f          	j	136b4 <_vfprintf_r+0x28dc>
   136d8:	01970733          	add	a4,a4,s9
   136dc:	00168693          	addi	a3,a3,1
   136e0:	01442023          	sw	s4,0(s0)
   136e4:	01942223          	sw	s9,4(s0)
   136e8:	0ae12423          	sw	a4,168(sp)
   136ec:	0ad12223          	sw	a3,164(sp)
   136f0:	00700613          	li	a2,7
   136f4:	00d64463          	blt	a2,a3,136fc <_vfprintf_r+0x2924>
   136f8:	ba9fe06f          	j	122a0 <_vfprintf_r+0x14c8>
   136fc:	00812583          	lw	a1,8(sp)
   13700:	0a010613          	addi	a2,sp,160
   13704:	00098513          	mv	a0,s3
   13708:	275060ef          	jal	ra,1a17c <__sprint_r>
   1370c:	00050463          	beqz	a0,13714 <_vfprintf_r+0x293c>
   13710:	b75fd06f          	j	11284 <_vfprintf_r+0x4ac>
   13714:	0a812703          	lw	a4,168(sp)
   13718:	0a412683          	lw	a3,164(sp)
   1371c:	0ac10413          	addi	s0,sp,172
   13720:	c2cff06f          	j	12b4c <_vfprintf_r+0x1d74>
   13724:	00812703          	lw	a4,8(sp)
   13728:	00c71783          	lh	a5,12(a4)
   1372c:	0407e793          	ori	a5,a5,64
   13730:	00f71623          	sh	a5,12(a4)
   13734:	b6dfd06f          	j	112a0 <_vfprintf_r+0x4c8>
   13738:	08a10693          	addi	a3,sp,138
   1373c:	00059863          	bnez	a1,1374c <_vfprintf_r+0x2974>
   13740:	03000693          	li	a3,48
   13744:	08d10523          	sb	a3,138(sp)
   13748:	08b10693          	addi	a3,sp,139
   1374c:	15010793          	addi	a5,sp,336
   13750:	40f68633          	sub	a2,a3,a5
   13754:	030b0713          	addi	a4,s6,48
   13758:	0c960793          	addi	a5,a2,201
   1375c:	00e68023          	sb	a4,0(a3)
   13760:	04f12223          	sw	a5,68(sp)
   13764:	e80ff06f          	j	12de4 <_vfprintf_r+0x200c>
   13768:	00098793          	mv	a5,s3
   1376c:	00912c23          	sw	s1,24(sp)
   13770:	00040813          	mv	a6,s0
   13774:	000c8993          	mv	s3,s9
   13778:	000b8413          	mv	s0,s7
   1377c:	02812e03          	lw	t3,40(sp)
   13780:	000d8b93          	mv	s7,s11
   13784:	05c12303          	lw	t1,92(sp)
   13788:	000a0d93          	mv	s11,s4
   1378c:	02012483          	lw	s1,32(sp)
   13790:	00090a13          	mv	s4,s2
   13794:	00078c93          	mv	s9,a5
   13798:	05812903          	lw	s2,88(sp)
   1379c:	8a5ff06f          	j	13040 <_vfprintf_r+0x2268>
   137a0:	02412783          	lw	a5,36(sp)
   137a4:	0017f713          	andi	a4,a5,1
   137a8:	e4070c63          	beqz	a4,12e00 <_vfprintf_r+0x2028>
   137ac:	e4cff06f          	j	12df8 <_vfprintf_r+0x2020>
   137b0:	00600313          	li	t1,6
   137b4:	f81fe06f          	j	12734 <_vfprintf_r+0x195c>
   137b8:	06700e13          	li	t3,103
   137bc:	04012683          	lw	a3,64(sp)
   137c0:	0ff00613          	li	a2,255
   137c4:	0006c703          	lbu	a4,0(a3)
   137c8:	1ec70463          	beq	a4,a2,139b0 <_vfprintf_r+0x2bd8>
   137cc:	01812783          	lw	a5,24(sp)
   137d0:	00000513          	li	a0,0
   137d4:	00000593          	li	a1,0
   137d8:	00f75e63          	bge	a4,a5,137f4 <_vfprintf_r+0x2a1c>
   137dc:	40e787b3          	sub	a5,a5,a4
   137e0:	0016c703          	lbu	a4,1(a3)
   137e4:	04070a63          	beqz	a4,13838 <_vfprintf_r+0x2a60>
   137e8:	00158593          	addi	a1,a1,1
   137ec:	00168693          	addi	a3,a3,1
   137f0:	fec714e3          	bne	a4,a2,137d8 <_vfprintf_r+0x2a00>
   137f4:	04d12023          	sw	a3,64(sp)
   137f8:	00f12c23          	sw	a5,24(sp)
   137fc:	02b12223          	sw	a1,36(sp)
   13800:	02a12423          	sw	a0,40(sp)
   13804:	02812783          	lw	a5,40(sp)
   13808:	02412703          	lw	a4,36(sp)
   1380c:	04812583          	lw	a1,72(sp)
   13810:	05c12c23          	sw	t3,88(sp)
   13814:	00e78533          	add	a0,a5,a4
   13818:	6790d0ef          	jal	ra,21690 <__mulsi3>
   1381c:	01950cb3          	add	s9,a0,s9
   13820:	fffcc893          	not	a7,s9
   13824:	41f8d893          	srai	a7,a7,0x1f
   13828:	05012b03          	lw	s6,80(sp)
   1382c:	05812e03          	lw	t3,88(sp)
   13830:	011cfc33          	and	s8,s9,a7
   13834:	df0ff06f          	j	12e24 <_vfprintf_r+0x204c>
   13838:	0006c703          	lbu	a4,0(a3)
   1383c:	00150513          	addi	a0,a0,1
   13840:	fb1ff06f          	j	137f0 <_vfprintf_r+0x2a18>
   13844:	02c12703          	lw	a4,44(sp)
   13848:	000d8593          	mv	a1,s11
   1384c:	07c10613          	addi	a2,sp,124
   13850:	00070513          	mv	a0,a4
   13854:	02612023          	sw	t1,32(sp)
   13858:	01c12c23          	sw	t3,24(sp)
   1385c:	509050ef          	jal	ra,19564 <frexp>
   13860:	00010717          	auipc	a4,0x10
   13864:	22870713          	addi	a4,a4,552 # 23a88 <__SDATA_BEGIN__+0x8>
   13868:	00072603          	lw	a2,0(a4)
   1386c:	00472683          	lw	a3,4(a4)
   13870:	7380c0ef          	jal	ra,1ffa8 <__muldf3>
   13874:	00000613          	li	a2,0
   13878:	00000693          	li	a3,0
   1387c:	00050c93          	mv	s9,a0
   13880:	00058d93          	mv	s11,a1
   13884:	4940c0ef          	jal	ra,1fd18 <__eqdf2>
   13888:	01812e03          	lw	t3,24(sp)
   1388c:	02012303          	lw	t1,32(sp)
   13890:	0000e817          	auipc	a6,0xe
   13894:	f9080813          	addi	a6,a6,-112 # 21820 <__clzsi2+0xb8>
   13898:	ea051663          	bnez	a0,12f44 <_vfprintf_r+0x216c>
   1389c:	e88ff06f          	j	12f24 <_vfprintf_r+0x214c>
   138a0:	00040313          	mv	t1,s0
   138a4:	01012483          	lw	s1,16(sp)
   138a8:	000b8413          	mv	s0,s7
   138ac:	01412e03          	lw	t3,20(sp)
   138b0:	000c0b93          	mv	s7,s8
   138b4:	00030c93          	mv	s9,t1
   138b8:	8e0ff06f          	j	12998 <_vfprintf_r+0x1bc0>
   138bc:	03012783          	lw	a5,48(sp)
   138c0:	0607c463          	bltz	a5,13928 <_vfprintf_r+0x2b50>
   138c4:	07714603          	lbu	a2,119(sp)
   138c8:	04700713          	li	a4,71
   138cc:	0000eb97          	auipc	s7,0xe
   138d0:	f4cb8b93          	addi	s7,s7,-180 # 21818 <__clzsi2+0xb0>
   138d4:	01c74463          	blt	a4,t3,138dc <_vfprintf_r+0x2b04>
   138d8:	b0dfd06f          	j	113e4 <_vfprintf_r+0x60c>
   138dc:	0000eb97          	auipc	s7,0xe
   138e0:	f40b8b93          	addi	s7,s7,-192 # 2181c <__clzsi2+0xb4>
   138e4:	b01fd06f          	j	113e4 <_vfprintf_r+0x60c>
   138e8:	07714603          	lbu	a2,119(sp)
   138ec:	01b12a23          	sw	s11,20(sp)
   138f0:	02012423          	sw	zero,40(sp)
   138f4:	02012223          	sw	zero,36(sp)
   138f8:	00030c13          	mv	s8,t1
   138fc:	00030c93          	mv	s9,t1
   13900:	07300e13          	li	t3,115
   13904:	00000313          	li	t1,0
   13908:	00061463          	bnez	a2,13910 <_vfprintf_r+0x2b38>
   1390c:	efcfd06f          	j	11008 <_vfprintf_r+0x230>
   13910:	af9fd06f          	j	11408 <_vfprintf_r+0x630>
   13914:	03412703          	lw	a4,52(sp)
   13918:	06600e13          	li	t3,102
   1391c:	00e786b3          	add	a3,a5,a4
   13920:	00668cb3          	add	s9,a3,t1
   13924:	bf9ff06f          	j	1351c <_vfprintf_r+0x2744>
   13928:	02d00793          	li	a5,45
   1392c:	06f10ba3          	sb	a5,119(sp)
   13930:	02d00613          	li	a2,45
   13934:	f95ff06f          	j	138c8 <_vfprintf_r+0x2af0>
   13938:	01412783          	lw	a5,20(sp)
   1393c:	0007aa03          	lw	s4,0(a5)
   13940:	00478793          	addi	a5,a5,4
   13944:	000a5463          	bgez	s4,1394c <_vfprintf_r+0x2b74>
   13948:	fff00a13          	li	s4,-1
   1394c:	0014ce03          	lbu	t3,1(s1)
   13950:	00f12a23          	sw	a5,20(sp)
   13954:	00070493          	mv	s1,a4
   13958:	e24fd06f          	j	10f7c <_vfprintf_r+0x1a4>
   1395c:	00071c63          	bnez	a4,13974 <_vfprintf_r+0x2b9c>
   13960:	05012b03          	lw	s6,80(sp)
   13964:	00100c13          	li	s8,1
   13968:	06600e13          	li	t3,102
   1396c:	00100c93          	li	s9,1
   13970:	835ff06f          	j	131a4 <_vfprintf_r+0x23cc>
   13974:	03412783          	lw	a5,52(sp)
   13978:	05012b03          	lw	s6,80(sp)
   1397c:	06600e13          	li	t3,102
   13980:	00178693          	addi	a3,a5,1
   13984:	00668cb3          	add	s9,a3,t1
   13988:	fffcc893          	not	a7,s9
   1398c:	41f8d893          	srai	a7,a7,0x1f
   13990:	011cfc33          	and	s8,s9,a7
   13994:	811ff06f          	j	131a4 <_vfprintf_r+0x23cc>
   13998:	00200793          	li	a5,2
   1399c:	04f12223          	sw	a5,68(sp)
   139a0:	c44ff06f          	j	12de4 <_vfprintf_r+0x200c>
   139a4:	07000693          	li	a3,112
   139a8:	00100593          	li	a1,1
   139ac:	b64ff06f          	j	12d10 <_vfprintf_r+0x1f38>
   139b0:	02012423          	sw	zero,40(sp)
   139b4:	02012223          	sw	zero,36(sp)
   139b8:	e4dff06f          	j	13804 <_vfprintf_r+0x2a2c>
   139bc:	00812703          	lw	a4,8(sp)
   139c0:	01012f03          	lw	t5,16(sp)
   139c4:	00c75783          	lhu	a5,12(a4)
   139c8:	0407e793          	ori	a5,a5,64
   139cc:	00f71623          	sh	a5,12(a4)
   139d0:	8b9fd06f          	j	11288 <_vfprintf_r+0x4b0>

000139d4 <vfprintf>:
   139d4:	00060693          	mv	a3,a2
   139d8:	00058613          	mv	a2,a1
   139dc:	00050593          	mv	a1,a0
   139e0:	2301a503          	lw	a0,560(gp) # 23af0 <_impure_ptr>
   139e4:	bf4fd06f          	j	10dd8 <_vfprintf_r>

000139e8 <__sbprintf>:
   139e8:	00c59783          	lh	a5,12(a1)
   139ec:	00e5d703          	lhu	a4,14(a1)
   139f0:	b7010113          	addi	sp,sp,-1168
   139f4:	ffd7f793          	andi	a5,a5,-3
   139f8:	01079793          	slli	a5,a5,0x10
   139fc:	0645a883          	lw	a7,100(a1)
   13a00:	01c5a803          	lw	a6,28(a1)
   13a04:	48812423          	sw	s0,1160(sp)
   13a08:	01071713          	slli	a4,a4,0x10
   13a0c:	00058413          	mv	s0,a1
   13a10:	0107d793          	srli	a5,a5,0x10
   13a14:	0245a583          	lw	a1,36(a1)
   13a18:	00e7e7b3          	or	a5,a5,a4
   13a1c:	49212023          	sw	s2,1152(sp)
   13a20:	40000713          	li	a4,1024
   13a24:	00050913          	mv	s2,a0
   13a28:	00f12a23          	sw	a5,20(sp)
   13a2c:	06010513          	addi	a0,sp,96
   13a30:	07010793          	addi	a5,sp,112
   13a34:	48112623          	sw	ra,1164(sp)
   13a38:	48912223          	sw	s1,1156(sp)
   13a3c:	47312e23          	sw	s3,1148(sp)
   13a40:	00060493          	mv	s1,a2
   13a44:	00068993          	mv	s3,a3
   13a48:	07112623          	sw	a7,108(sp)
   13a4c:	03012223          	sw	a6,36(sp)
   13a50:	02b12623          	sw	a1,44(sp)
   13a54:	00f12423          	sw	a5,8(sp)
   13a58:	00f12c23          	sw	a5,24(sp)
   13a5c:	00e12823          	sw	a4,16(sp)
   13a60:	00e12e23          	sw	a4,28(sp)
   13a64:	02012023          	sw	zero,32(sp)
   13a68:	0b9030ef          	jal	ra,17320 <__retarget_lock_init_recursive>
   13a6c:	00048613          	mv	a2,s1
   13a70:	00098693          	mv	a3,s3
   13a74:	00810593          	addi	a1,sp,8
   13a78:	00090513          	mv	a0,s2
   13a7c:	b5cfd0ef          	jal	ra,10dd8 <_vfprintf_r>
   13a80:	00050493          	mv	s1,a0
   13a84:	04055263          	bgez	a0,13ac8 <__sbprintf+0xe0>
   13a88:	01415783          	lhu	a5,20(sp)
   13a8c:	0407f793          	andi	a5,a5,64
   13a90:	00078863          	beqz	a5,13aa0 <__sbprintf+0xb8>
   13a94:	00c45783          	lhu	a5,12(s0)
   13a98:	0407e793          	ori	a5,a5,64
   13a9c:	00f41623          	sh	a5,12(s0)
   13aa0:	06012503          	lw	a0,96(sp)
   13aa4:	085030ef          	jal	ra,17328 <__retarget_lock_close_recursive>
   13aa8:	48c12083          	lw	ra,1164(sp)
   13aac:	48812403          	lw	s0,1160(sp)
   13ab0:	48012903          	lw	s2,1152(sp)
   13ab4:	47c12983          	lw	s3,1148(sp)
   13ab8:	00048513          	mv	a0,s1
   13abc:	48412483          	lw	s1,1156(sp)
   13ac0:	49010113          	addi	sp,sp,1168
   13ac4:	00008067          	ret
   13ac8:	00810593          	addi	a1,sp,8
   13acc:	00090513          	mv	a0,s2
   13ad0:	020020ef          	jal	ra,15af0 <_fflush_r>
   13ad4:	fa050ae3          	beqz	a0,13a88 <__sbprintf+0xa0>
   13ad8:	fff00493          	li	s1,-1
   13adc:	fadff06f          	j	13a88 <__sbprintf+0xa0>

00013ae0 <_wcrtomb_r>:
   13ae0:	fe010113          	addi	sp,sp,-32
   13ae4:	00812c23          	sw	s0,24(sp)
   13ae8:	00912a23          	sw	s1,20(sp)
   13aec:	00112e23          	sw	ra,28(sp)
   13af0:	00050493          	mv	s1,a0
   13af4:	11450413          	addi	s0,a0,276
   13af8:	00068463          	beqz	a3,13b00 <_wcrtomb_r+0x20>
   13afc:	00068413          	mv	s0,a3
   13b00:	1101a783          	lw	a5,272(gp) # 239d0 <__global_locale+0xe0>
   13b04:	00040693          	mv	a3,s0
   13b08:	02058463          	beqz	a1,13b30 <_wcrtomb_r+0x50>
   13b0c:	00048513          	mv	a0,s1
   13b10:	000780e7          	jalr	a5
   13b14:	fff00793          	li	a5,-1
   13b18:	02f50863          	beq	a0,a5,13b48 <_wcrtomb_r+0x68>
   13b1c:	01c12083          	lw	ra,28(sp)
   13b20:	01812403          	lw	s0,24(sp)
   13b24:	01412483          	lw	s1,20(sp)
   13b28:	02010113          	addi	sp,sp,32
   13b2c:	00008067          	ret
   13b30:	00000613          	li	a2,0
   13b34:	00410593          	addi	a1,sp,4
   13b38:	00048513          	mv	a0,s1
   13b3c:	000780e7          	jalr	a5
   13b40:	fff00793          	li	a5,-1
   13b44:	fcf51ce3          	bne	a0,a5,13b1c <_wcrtomb_r+0x3c>
   13b48:	00042023          	sw	zero,0(s0)
   13b4c:	01c12083          	lw	ra,28(sp)
   13b50:	01812403          	lw	s0,24(sp)
   13b54:	08a00793          	li	a5,138
   13b58:	00f4a023          	sw	a5,0(s1)
   13b5c:	01412483          	lw	s1,20(sp)
   13b60:	02010113          	addi	sp,sp,32
   13b64:	00008067          	ret

00013b68 <wcrtomb>:
   13b68:	fe010113          	addi	sp,sp,-32
   13b6c:	00812c23          	sw	s0,24(sp)
   13b70:	00912a23          	sw	s1,20(sp)
   13b74:	00060413          	mv	s0,a2
   13b78:	00112e23          	sw	ra,28(sp)
   13b7c:	00058613          	mv	a2,a1
   13b80:	2301a483          	lw	s1,560(gp) # 23af0 <_impure_ptr>
   13b84:	02040c63          	beqz	s0,13bbc <wcrtomb+0x54>
   13b88:	1101a783          	lw	a5,272(gp) # 239d0 <__global_locale+0xe0>
   13b8c:	00040693          	mv	a3,s0
   13b90:	02050e63          	beqz	a0,13bcc <wcrtomb+0x64>
   13b94:	00050593          	mv	a1,a0
   13b98:	00048513          	mv	a0,s1
   13b9c:	000780e7          	jalr	a5
   13ba0:	fff00793          	li	a5,-1
   13ba4:	04f50063          	beq	a0,a5,13be4 <wcrtomb+0x7c>
   13ba8:	01c12083          	lw	ra,28(sp)
   13bac:	01812403          	lw	s0,24(sp)
   13bb0:	01412483          	lw	s1,20(sp)
   13bb4:	02010113          	addi	sp,sp,32
   13bb8:	00008067          	ret
   13bbc:	11448413          	addi	s0,s1,276
   13bc0:	1101a783          	lw	a5,272(gp) # 239d0 <__global_locale+0xe0>
   13bc4:	00040693          	mv	a3,s0
   13bc8:	fc0516e3          	bnez	a0,13b94 <wcrtomb+0x2c>
   13bcc:	00000613          	li	a2,0
   13bd0:	00410593          	addi	a1,sp,4
   13bd4:	00048513          	mv	a0,s1
   13bd8:	000780e7          	jalr	a5
   13bdc:	fff00793          	li	a5,-1
   13be0:	fcf514e3          	bne	a0,a5,13ba8 <wcrtomb+0x40>
   13be4:	00042023          	sw	zero,0(s0)
   13be8:	01c12083          	lw	ra,28(sp)
   13bec:	01812403          	lw	s0,24(sp)
   13bf0:	08a00793          	li	a5,138
   13bf4:	00f4a023          	sw	a5,0(s1)
   13bf8:	01412483          	lw	s1,20(sp)
   13bfc:	02010113          	addi	sp,sp,32
   13c00:	00008067          	ret

00013c04 <_wcsrtombs_r>:
   13c04:	00070793          	mv	a5,a4
   13c08:	00068713          	mv	a4,a3
   13c0c:	fff00693          	li	a3,-1
   13c10:	7c10706f          	j	1bbd0 <_wcsnrtombs_r>

00013c14 <wcsrtombs>:
   13c14:	00060713          	mv	a4,a2
   13c18:	00068793          	mv	a5,a3
   13c1c:	00058613          	mv	a2,a1
   13c20:	fff00693          	li	a3,-1
   13c24:	00050593          	mv	a1,a0
   13c28:	2301a503          	lw	a0,560(gp) # 23af0 <_impure_ptr>
   13c2c:	7a50706f          	j	1bbd0 <_wcsnrtombs_r>

00013c30 <__swsetup_r>:
   13c30:	ff010113          	addi	sp,sp,-16
   13c34:	00812423          	sw	s0,8(sp)
   13c38:	00912223          	sw	s1,4(sp)
   13c3c:	00112623          	sw	ra,12(sp)
   13c40:	2301a783          	lw	a5,560(gp) # 23af0 <_impure_ptr>
   13c44:	00050493          	mv	s1,a0
   13c48:	00058413          	mv	s0,a1
   13c4c:	00078663          	beqz	a5,13c58 <__swsetup_r+0x28>
   13c50:	0387a703          	lw	a4,56(a5)
   13c54:	08070063          	beqz	a4,13cd4 <__swsetup_r+0xa4>
   13c58:	00c41783          	lh	a5,12(s0)
   13c5c:	0087f713          	andi	a4,a5,8
   13c60:	08070463          	beqz	a4,13ce8 <__swsetup_r+0xb8>
   13c64:	01042703          	lw	a4,16(s0)
   13c68:	0a070063          	beqz	a4,13d08 <__swsetup_r+0xd8>
   13c6c:	0017f693          	andi	a3,a5,1
   13c70:	02068863          	beqz	a3,13ca0 <__swsetup_r+0x70>
   13c74:	01442683          	lw	a3,20(s0)
   13c78:	00042423          	sw	zero,8(s0)
   13c7c:	00000513          	li	a0,0
   13c80:	40d006b3          	neg	a3,a3
   13c84:	00d42c23          	sw	a3,24(s0)
   13c88:	02070a63          	beqz	a4,13cbc <__swsetup_r+0x8c>
   13c8c:	00c12083          	lw	ra,12(sp)
   13c90:	00812403          	lw	s0,8(sp)
   13c94:	00412483          	lw	s1,4(sp)
   13c98:	01010113          	addi	sp,sp,16
   13c9c:	00008067          	ret
   13ca0:	0027f693          	andi	a3,a5,2
   13ca4:	00000613          	li	a2,0
   13ca8:	00069463          	bnez	a3,13cb0 <__swsetup_r+0x80>
   13cac:	01442603          	lw	a2,20(s0)
   13cb0:	00c42423          	sw	a2,8(s0)
   13cb4:	00000513          	li	a0,0
   13cb8:	fc071ae3          	bnez	a4,13c8c <__swsetup_r+0x5c>
   13cbc:	0807f713          	andi	a4,a5,128
   13cc0:	fc0706e3          	beqz	a4,13c8c <__swsetup_r+0x5c>
   13cc4:	0407e793          	ori	a5,a5,64
   13cc8:	00f41623          	sh	a5,12(s0)
   13ccc:	fff00513          	li	a0,-1
   13cd0:	fbdff06f          	j	13c8c <__swsetup_r+0x5c>
   13cd4:	00078513          	mv	a0,a5
   13cd8:	0d0020ef          	jal	ra,15da8 <__sinit>
   13cdc:	00c41783          	lh	a5,12(s0)
   13ce0:	0087f713          	andi	a4,a5,8
   13ce4:	f80710e3          	bnez	a4,13c64 <__swsetup_r+0x34>
   13ce8:	0107f713          	andi	a4,a5,16
   13cec:	06070a63          	beqz	a4,13d60 <__swsetup_r+0x130>
   13cf0:	0047f713          	andi	a4,a5,4
   13cf4:	02071c63          	bnez	a4,13d2c <__swsetup_r+0xfc>
   13cf8:	01042703          	lw	a4,16(s0)
   13cfc:	0087e793          	ori	a5,a5,8
   13d00:	00f41623          	sh	a5,12(s0)
   13d04:	f60714e3          	bnez	a4,13c6c <__swsetup_r+0x3c>
   13d08:	2807f693          	andi	a3,a5,640
   13d0c:	20000613          	li	a2,512
   13d10:	f4c68ee3          	beq	a3,a2,13c6c <__swsetup_r+0x3c>
   13d14:	00040593          	mv	a1,s0
   13d18:	00048513          	mv	a0,s1
   13d1c:	630030ef          	jal	ra,1734c <__smakebuf_r>
   13d20:	00c41783          	lh	a5,12(s0)
   13d24:	01042703          	lw	a4,16(s0)
   13d28:	f45ff06f          	j	13c6c <__swsetup_r+0x3c>
   13d2c:	03042583          	lw	a1,48(s0)
   13d30:	00058e63          	beqz	a1,13d4c <__swsetup_r+0x11c>
   13d34:	04040713          	addi	a4,s0,64
   13d38:	00e58863          	beq	a1,a4,13d48 <__swsetup_r+0x118>
   13d3c:	00048513          	mv	a0,s1
   13d40:	4fc020ef          	jal	ra,1623c <_free_r>
   13d44:	00c41783          	lh	a5,12(s0)
   13d48:	02042823          	sw	zero,48(s0)
   13d4c:	01042703          	lw	a4,16(s0)
   13d50:	fdb7f793          	andi	a5,a5,-37
   13d54:	00042223          	sw	zero,4(s0)
   13d58:	00e42023          	sw	a4,0(s0)
   13d5c:	fa1ff06f          	j	13cfc <__swsetup_r+0xcc>
   13d60:	00900713          	li	a4,9
   13d64:	00e4a023          	sw	a4,0(s1)
   13d68:	0407e793          	ori	a5,a5,64
   13d6c:	f5dff06f          	j	13cc8 <__swsetup_r+0x98>

00013d70 <__register_exitproc>:
   13d70:	fe010113          	addi	sp,sp,-32
   13d74:	01212823          	sw	s2,16(sp)
   13d78:	23c18913          	addi	s2,gp,572 # 23afc <__atexit_recursive_mutex>
   13d7c:	00812c23          	sw	s0,24(sp)
   13d80:	00050413          	mv	s0,a0
   13d84:	00092503          	lw	a0,0(s2)
   13d88:	00912a23          	sw	s1,20(sp)
   13d8c:	01312623          	sw	s3,12(sp)
   13d90:	01412423          	sw	s4,8(sp)
   13d94:	00112e23          	sw	ra,28(sp)
   13d98:	00058493          	mv	s1,a1
   13d9c:	00060a13          	mv	s4,a2
   13da0:	00068993          	mv	s3,a3
   13da4:	58c030ef          	jal	ra,17330 <__retarget_lock_acquire_recursive>
   13da8:	2281a703          	lw	a4,552(gp) # 23ae8 <_global_impure_ptr>
   13dac:	14872783          	lw	a5,328(a4)
   13db0:	08078663          	beqz	a5,13e3c <__register_exitproc+0xcc>
   13db4:	0047a703          	lw	a4,4(a5)
   13db8:	01f00593          	li	a1,31
   13dbc:	00092503          	lw	a0,0(s2)
   13dc0:	08e5c463          	blt	a1,a4,13e48 <__register_exitproc+0xd8>
   13dc4:	00271593          	slli	a1,a4,0x2
   13dc8:	02041e63          	bnez	s0,13e04 <__register_exitproc+0x94>
   13dcc:	00170713          	addi	a4,a4,1
   13dd0:	00e7a223          	sw	a4,4(a5)
   13dd4:	00b787b3          	add	a5,a5,a1
   13dd8:	0097a423          	sw	s1,8(a5)
   13ddc:	56c030ef          	jal	ra,17348 <__retarget_lock_release_recursive>
   13de0:	00000513          	li	a0,0
   13de4:	01c12083          	lw	ra,28(sp)
   13de8:	01812403          	lw	s0,24(sp)
   13dec:	01412483          	lw	s1,20(sp)
   13df0:	01012903          	lw	s2,16(sp)
   13df4:	00c12983          	lw	s3,12(sp)
   13df8:	00812a03          	lw	s4,8(sp)
   13dfc:	02010113          	addi	sp,sp,32
   13e00:	00008067          	ret
   13e04:	00b78833          	add	a6,a5,a1
   13e08:	09482423          	sw	s4,136(a6)
   13e0c:	1887a683          	lw	a3,392(a5)
   13e10:	00100613          	li	a2,1
   13e14:	00e61633          	sll	a2,a2,a4
   13e18:	00c6e6b3          	or	a3,a3,a2
   13e1c:	18d7a423          	sw	a3,392(a5)
   13e20:	11382423          	sw	s3,264(a6)
   13e24:	00200693          	li	a3,2
   13e28:	fad412e3          	bne	s0,a3,13dcc <__register_exitproc+0x5c>
   13e2c:	18c7a683          	lw	a3,396(a5)
   13e30:	00c6e6b3          	or	a3,a3,a2
   13e34:	18d7a623          	sw	a3,396(a5)
   13e38:	f95ff06f          	j	13dcc <__register_exitproc+0x5c>
   13e3c:	14c70793          	addi	a5,a4,332
   13e40:	14f72423          	sw	a5,328(a4)
   13e44:	f71ff06f          	j	13db4 <__register_exitproc+0x44>
   13e48:	500030ef          	jal	ra,17348 <__retarget_lock_release_recursive>
   13e4c:	fff00513          	li	a0,-1
   13e50:	f95ff06f          	j	13de4 <__register_exitproc+0x74>

00013e54 <__call_exitprocs>:
   13e54:	fd010113          	addi	sp,sp,-48
   13e58:	01712623          	sw	s7,12(sp)
   13e5c:	23c18b93          	addi	s7,gp,572 # 23afc <__atexit_recursive_mutex>
   13e60:	01612823          	sw	s6,16(sp)
   13e64:	00050b13          	mv	s6,a0
   13e68:	000ba503          	lw	a0,0(s7)
   13e6c:	03212023          	sw	s2,32(sp)
   13e70:	01312e23          	sw	s3,28(sp)
   13e74:	01412c23          	sw	s4,24(sp)
   13e78:	01512a23          	sw	s5,20(sp)
   13e7c:	01812423          	sw	s8,8(sp)
   13e80:	02112623          	sw	ra,44(sp)
   13e84:	02812423          	sw	s0,40(sp)
   13e88:	02912223          	sw	s1,36(sp)
   13e8c:	01912223          	sw	s9,4(sp)
   13e90:	00058c13          	mv	s8,a1
   13e94:	49c030ef          	jal	ra,17330 <__retarget_lock_acquire_recursive>
   13e98:	2281aa03          	lw	s4,552(gp) # 23ae8 <_global_impure_ptr>
   13e9c:	148a2903          	lw	s2,328(s4)
   13ea0:	00100a93          	li	s5,1
   13ea4:	fff00993          	li	s3,-1
   13ea8:	02090863          	beqz	s2,13ed8 <__call_exitprocs+0x84>
   13eac:	00492483          	lw	s1,4(s2)
   13eb0:	fff48413          	addi	s0,s1,-1
   13eb4:	02044263          	bltz	s0,13ed8 <__call_exitprocs+0x84>
   13eb8:	00249493          	slli	s1,s1,0x2
   13ebc:	009904b3          	add	s1,s2,s1
   13ec0:	040c0863          	beqz	s8,13f10 <__call_exitprocs+0xbc>
   13ec4:	1044a783          	lw	a5,260(s1)
   13ec8:	05878463          	beq	a5,s8,13f10 <__call_exitprocs+0xbc>
   13ecc:	fff40413          	addi	s0,s0,-1
   13ed0:	ffc48493          	addi	s1,s1,-4
   13ed4:	ff3416e3          	bne	s0,s3,13ec0 <__call_exitprocs+0x6c>
   13ed8:	02812403          	lw	s0,40(sp)
   13edc:	000ba503          	lw	a0,0(s7)
   13ee0:	02c12083          	lw	ra,44(sp)
   13ee4:	02412483          	lw	s1,36(sp)
   13ee8:	02012903          	lw	s2,32(sp)
   13eec:	01c12983          	lw	s3,28(sp)
   13ef0:	01812a03          	lw	s4,24(sp)
   13ef4:	01412a83          	lw	s5,20(sp)
   13ef8:	01012b03          	lw	s6,16(sp)
   13efc:	00c12b83          	lw	s7,12(sp)
   13f00:	00812c03          	lw	s8,8(sp)
   13f04:	00412c83          	lw	s9,4(sp)
   13f08:	03010113          	addi	sp,sp,48
   13f0c:	43c0306f          	j	17348 <__retarget_lock_release_recursive>
   13f10:	00492783          	lw	a5,4(s2)
   13f14:	0044a683          	lw	a3,4(s1)
   13f18:	fff78793          	addi	a5,a5,-1
   13f1c:	04878e63          	beq	a5,s0,13f78 <__call_exitprocs+0x124>
   13f20:	0004a223          	sw	zero,4(s1)
   13f24:	fa0684e3          	beqz	a3,13ecc <__call_exitprocs+0x78>
   13f28:	18892783          	lw	a5,392(s2)
   13f2c:	008a9733          	sll	a4,s5,s0
   13f30:	00492c83          	lw	s9,4(s2)
   13f34:	00f777b3          	and	a5,a4,a5
   13f38:	02079263          	bnez	a5,13f5c <__call_exitprocs+0x108>
   13f3c:	000680e7          	jalr	a3
   13f40:	00492703          	lw	a4,4(s2)
   13f44:	148a2783          	lw	a5,328(s4)
   13f48:	01971463          	bne	a4,s9,13f50 <__call_exitprocs+0xfc>
   13f4c:	f92780e3          	beq	a5,s2,13ecc <__call_exitprocs+0x78>
   13f50:	f80784e3          	beqz	a5,13ed8 <__call_exitprocs+0x84>
   13f54:	00078913          	mv	s2,a5
   13f58:	f55ff06f          	j	13eac <__call_exitprocs+0x58>
   13f5c:	18c92783          	lw	a5,396(s2)
   13f60:	0844a583          	lw	a1,132(s1)
   13f64:	00f77733          	and	a4,a4,a5
   13f68:	00071c63          	bnez	a4,13f80 <__call_exitprocs+0x12c>
   13f6c:	000b0513          	mv	a0,s6
   13f70:	000680e7          	jalr	a3
   13f74:	fcdff06f          	j	13f40 <__call_exitprocs+0xec>
   13f78:	00892223          	sw	s0,4(s2)
   13f7c:	fa9ff06f          	j	13f24 <__call_exitprocs+0xd0>
   13f80:	00058513          	mv	a0,a1
   13f84:	000680e7          	jalr	a3
   13f88:	fb9ff06f          	j	13f40 <__call_exitprocs+0xec>

00013f8c <quorem>:
   13f8c:	fb010113          	addi	sp,sp,-80
   13f90:	04912223          	sw	s1,68(sp)
   13f94:	01052783          	lw	a5,16(a0)
   13f98:	0105a483          	lw	s1,16(a1)
   13f9c:	04112623          	sw	ra,76(sp)
   13fa0:	04812423          	sw	s0,72(sp)
   13fa4:	05212023          	sw	s2,64(sp)
   13fa8:	03312e23          	sw	s3,60(sp)
   13fac:	03412c23          	sw	s4,56(sp)
   13fb0:	03512a23          	sw	s5,52(sp)
   13fb4:	03612823          	sw	s6,48(sp)
   13fb8:	03712623          	sw	s7,44(sp)
   13fbc:	03812423          	sw	s8,40(sp)
   13fc0:	03912223          	sw	s9,36(sp)
   13fc4:	03a12023          	sw	s10,32(sp)
   13fc8:	01b12e23          	sw	s11,28(sp)
   13fcc:	00b12423          	sw	a1,8(sp)
   13fd0:	1e97c463          	blt	a5,s1,141b8 <quorem+0x22c>
   13fd4:	fff48493          	addi	s1,s1,-1
   13fd8:	00249a93          	slli	s5,s1,0x2
   13fdc:	01458c13          	addi	s8,a1,20
   13fe0:	01450993          	addi	s3,a0,20
   13fe4:	015c0933          	add	s2,s8,s5
   13fe8:	015987b3          	add	a5,s3,s5
   13fec:	00092b83          	lw	s7,0(s2)
   13ff0:	0007ac83          	lw	s9,0(a5)
   13ff4:	00050a13          	mv	s4,a0
   13ff8:	001b8b93          	addi	s7,s7,1
   13ffc:	000b8593          	mv	a1,s7
   14000:	000c8513          	mv	a0,s9
   14004:	00f12623          	sw	a5,12(sp)
   14008:	6b40d0ef          	jal	ra,216bc <__hidden___udivsi3>
   1400c:	00050413          	mv	s0,a0
   14010:	0d7ce263          	bltu	s9,s7,140d4 <quorem+0x148>
   14014:	00010d37          	lui	s10,0x10
   14018:	000c0a93          	mv	s5,s8
   1401c:	00098d93          	mv	s11,s3
   14020:	00000c93          	li	s9,0
   14024:	00000b93          	li	s7,0
   14028:	fffd0d13          	addi	s10,s10,-1 # ffff <exit-0x95>
   1402c:	000aab03          	lw	s6,0(s5)
   14030:	00040593          	mv	a1,s0
   14034:	004d8d93          	addi	s11,s11,4
   14038:	01ab7533          	and	a0,s6,s10
   1403c:	6540d0ef          	jal	ra,21690 <__mulsi3>
   14040:	00050793          	mv	a5,a0
   14044:	00040593          	mv	a1,s0
   14048:	010b5513          	srli	a0,s6,0x10
   1404c:	01978cb3          	add	s9,a5,s9
   14050:	6400d0ef          	jal	ra,21690 <__mulsi3>
   14054:	ffcda603          	lw	a2,-4(s11)
   14058:	01acf733          	and	a4,s9,s10
   1405c:	010cdc93          	srli	s9,s9,0x10
   14060:	01a677b3          	and	a5,a2,s10
   14064:	40e787b3          	sub	a5,a5,a4
   14068:	017787b3          	add	a5,a5,s7
   1406c:	01950533          	add	a0,a0,s9
   14070:	4107d713          	srai	a4,a5,0x10
   14074:	01a575b3          	and	a1,a0,s10
   14078:	01065613          	srli	a2,a2,0x10
   1407c:	40b70733          	sub	a4,a4,a1
   14080:	00c70733          	add	a4,a4,a2
   14084:	01a7f7b3          	and	a5,a5,s10
   14088:	01071613          	slli	a2,a4,0x10
   1408c:	00c7e7b3          	or	a5,a5,a2
   14090:	004a8a93          	addi	s5,s5,4
   14094:	fefdae23          	sw	a5,-4(s11)
   14098:	01055c93          	srli	s9,a0,0x10
   1409c:	41075b93          	srai	s7,a4,0x10
   140a0:	f95976e3          	bgeu	s2,s5,1402c <quorem+0xa0>
   140a4:	00c12703          	lw	a4,12(sp)
   140a8:	00072783          	lw	a5,0(a4)
   140ac:	02079463          	bnez	a5,140d4 <quorem+0x148>
   140b0:	ffc70a93          	addi	s5,a4,-4
   140b4:	0159e863          	bltu	s3,s5,140c4 <quorem+0x138>
   140b8:	0180006f          	j	140d0 <quorem+0x144>
   140bc:	fff48493          	addi	s1,s1,-1
   140c0:	0159f863          	bgeu	s3,s5,140d0 <quorem+0x144>
   140c4:	000aa783          	lw	a5,0(s5)
   140c8:	ffca8a93          	addi	s5,s5,-4
   140cc:	fe0788e3          	beqz	a5,140bc <quorem+0x130>
   140d0:	009a2823          	sw	s1,16(s4)
   140d4:	00812583          	lw	a1,8(sp)
   140d8:	000a0513          	mv	a0,s4
   140dc:	335040ef          	jal	ra,18c10 <__mcmp>
   140e0:	08054c63          	bltz	a0,14178 <quorem+0x1ec>
   140e4:	00010537          	lui	a0,0x10
   140e8:	00098593          	mv	a1,s3
   140ec:	00000713          	li	a4,0
   140f0:	fff50513          	addi	a0,a0,-1 # ffff <exit-0x95>
   140f4:	0005a683          	lw	a3,0(a1)
   140f8:	000c2603          	lw	a2,0(s8)
   140fc:	00458593          	addi	a1,a1,4
   14100:	00a6f7b3          	and	a5,a3,a0
   14104:	00a67833          	and	a6,a2,a0
   14108:	410787b3          	sub	a5,a5,a6
   1410c:	00e787b3          	add	a5,a5,a4
   14110:	4107d713          	srai	a4,a5,0x10
   14114:	01065613          	srli	a2,a2,0x10
   14118:	0106d693          	srli	a3,a3,0x10
   1411c:	40c70733          	sub	a4,a4,a2
   14120:	00d70733          	add	a4,a4,a3
   14124:	01071693          	slli	a3,a4,0x10
   14128:	00a7f7b3          	and	a5,a5,a0
   1412c:	00d7e7b3          	or	a5,a5,a3
   14130:	004c0c13          	addi	s8,s8,4
   14134:	fef5ae23          	sw	a5,-4(a1)
   14138:	41075713          	srai	a4,a4,0x10
   1413c:	fb897ce3          	bgeu	s2,s8,140f4 <quorem+0x168>
   14140:	00249793          	slli	a5,s1,0x2
   14144:	00f987b3          	add	a5,s3,a5
   14148:	0007a703          	lw	a4,0(a5)
   1414c:	02071463          	bnez	a4,14174 <quorem+0x1e8>
   14150:	ffc78793          	addi	a5,a5,-4
   14154:	00f9e863          	bltu	s3,a5,14164 <quorem+0x1d8>
   14158:	0180006f          	j	14170 <quorem+0x1e4>
   1415c:	fff48493          	addi	s1,s1,-1
   14160:	00f9f863          	bgeu	s3,a5,14170 <quorem+0x1e4>
   14164:	0007a703          	lw	a4,0(a5)
   14168:	ffc78793          	addi	a5,a5,-4
   1416c:	fe0708e3          	beqz	a4,1415c <quorem+0x1d0>
   14170:	009a2823          	sw	s1,16(s4)
   14174:	00140413          	addi	s0,s0,1
   14178:	00040513          	mv	a0,s0
   1417c:	04c12083          	lw	ra,76(sp)
   14180:	04812403          	lw	s0,72(sp)
   14184:	04412483          	lw	s1,68(sp)
   14188:	04012903          	lw	s2,64(sp)
   1418c:	03c12983          	lw	s3,60(sp)
   14190:	03812a03          	lw	s4,56(sp)
   14194:	03412a83          	lw	s5,52(sp)
   14198:	03012b03          	lw	s6,48(sp)
   1419c:	02c12b83          	lw	s7,44(sp)
   141a0:	02812c03          	lw	s8,40(sp)
   141a4:	02412c83          	lw	s9,36(sp)
   141a8:	02012d03          	lw	s10,32(sp)
   141ac:	01c12d83          	lw	s11,28(sp)
   141b0:	05010113          	addi	sp,sp,80
   141b4:	00008067          	ret
   141b8:	00000513          	li	a0,0
   141bc:	fc1ff06f          	j	1417c <quorem+0x1f0>

000141c0 <_dtoa_r>:
   141c0:	04052303          	lw	t1,64(a0)
   141c4:	f5010113          	addi	sp,sp,-176
   141c8:	0a812423          	sw	s0,168(sp)
   141cc:	0a912223          	sw	s1,164(sp)
   141d0:	0b212023          	sw	s2,160(sp)
   141d4:	09312e23          	sw	s3,156(sp)
   141d8:	09a12023          	sw	s10,128(sp)
   141dc:	07b12e23          	sw	s11,124(sp)
   141e0:	0a112623          	sw	ra,172(sp)
   141e4:	09412c23          	sw	s4,152(sp)
   141e8:	09512a23          	sw	s5,148(sp)
   141ec:	09612823          	sw	s6,144(sp)
   141f0:	09712623          	sw	s7,140(sp)
   141f4:	09812423          	sw	s8,136(sp)
   141f8:	09912223          	sw	s9,132(sp)
   141fc:	00e12823          	sw	a4,16(sp)
   14200:	00f12223          	sw	a5,4(sp)
   14204:	01112023          	sw	a7,0(sp)
   14208:	02b12423          	sw	a1,40(sp)
   1420c:	00050413          	mv	s0,a0
   14210:	00058d93          	mv	s11,a1
   14214:	00060493          	mv	s1,a2
   14218:	00068993          	mv	s3,a3
   1421c:	00080913          	mv	s2,a6
   14220:	00060d13          	mv	s10,a2
   14224:	02030263          	beqz	t1,14248 <_dtoa_r+0x88>
   14228:	04452703          	lw	a4,68(a0)
   1422c:	00100793          	li	a5,1
   14230:	00030593          	mv	a1,t1
   14234:	00e797b3          	sll	a5,a5,a4
   14238:	00e32223          	sw	a4,4(t1)
   1423c:	00f32423          	sw	a5,8(t1)
   14240:	769030ef          	jal	ra,181a8 <_Bfree>
   14244:	04042023          	sw	zero,64(s0)
   14248:	00048a93          	mv	s5,s1
   1424c:	00000693          	li	a3,0
   14250:	0004da63          	bgez	s1,14264 <_dtoa_r+0xa4>
   14254:	00149493          	slli	s1,s1,0x1
   14258:	0014dd13          	srli	s10,s1,0x1
   1425c:	000d0a93          	mv	s5,s10
   14260:	00100693          	li	a3,1
   14264:	7ff00737          	lui	a4,0x7ff00
   14268:	00d92023          	sw	a3,0(s2)
   1426c:	00eaf6b3          	and	a3,s5,a4
   14270:	66e68663          	beq	a3,a4,148dc <_dtoa_r+0x71c>
   14274:	000d8513          	mv	a0,s11
   14278:	000d0593          	mv	a1,s10
   1427c:	00000613          	li	a2,0
   14280:	00000693          	li	a3,0
   14284:	2950b0ef          	jal	ra,1fd18 <__eqdf2>
   14288:	01b12a23          	sw	s11,20(sp)
   1428c:	01a12c23          	sw	s10,24(sp)
   14290:	06051663          	bnez	a0,142fc <_dtoa_r+0x13c>
   14294:	00412703          	lw	a4,4(sp)
   14298:	00100793          	li	a5,1
   1429c:	00f72023          	sw	a5,0(a4) # 7ff00000 <__BSS_END__+0x7fedc1d0>
   142a0:	00012703          	lw	a4,0(sp)
   142a4:	00070863          	beqz	a4,142b4 <_dtoa_r+0xf4>
   142a8:	0000d797          	auipc	a5,0xd
   142ac:	5a978793          	addi	a5,a5,1449 # 21851 <__clzsi2+0xe9>
   142b0:	00f72023          	sw	a5,0(a4)
   142b4:	0000da97          	auipc	s5,0xd
   142b8:	59ca8a93          	addi	s5,s5,1436 # 21850 <__clzsi2+0xe8>
   142bc:	0ac12083          	lw	ra,172(sp)
   142c0:	0a812403          	lw	s0,168(sp)
   142c4:	0a412483          	lw	s1,164(sp)
   142c8:	0a012903          	lw	s2,160(sp)
   142cc:	09c12983          	lw	s3,156(sp)
   142d0:	09812a03          	lw	s4,152(sp)
   142d4:	09012b03          	lw	s6,144(sp)
   142d8:	08c12b83          	lw	s7,140(sp)
   142dc:	08812c03          	lw	s8,136(sp)
   142e0:	08412c83          	lw	s9,132(sp)
   142e4:	08012d03          	lw	s10,128(sp)
   142e8:	07c12d83          	lw	s11,124(sp)
   142ec:	000a8513          	mv	a0,s5
   142f0:	09412a83          	lw	s5,148(sp)
   142f4:	0b010113          	addi	sp,sp,176
   142f8:	00008067          	ret
   142fc:	06810713          	addi	a4,sp,104
   14300:	06c10693          	addi	a3,sp,108
   14304:	000d0613          	mv	a2,s10
   14308:	000d8593          	mv	a1,s11
   1430c:	00040513          	mv	a0,s0
   14310:	52d040ef          	jal	ra,1903c <__d2b>
   14314:	014ad913          	srli	s2,s5,0x14
   14318:	00050493          	mv	s1,a0
   1431c:	60091263          	bnez	s2,14920 <_dtoa_r+0x760>
   14320:	06812a03          	lw	s4,104(sp)
   14324:	06c12903          	lw	s2,108(sp)
   14328:	02000793          	li	a5,32
   1432c:	012a0933          	add	s2,s4,s2
   14330:	43290713          	addi	a4,s2,1074
   14334:	36e7dee3          	bge	a5,a4,14eb0 <_dtoa_r+0xcf0>
   14338:	04000793          	li	a5,64
   1433c:	40e787b3          	sub	a5,a5,a4
   14340:	41290513          	addi	a0,s2,1042
   14344:	00fa97b3          	sll	a5,s5,a5
   14348:	00add533          	srl	a0,s11,a0
   1434c:	00a7e533          	or	a0,a5,a0
   14350:	6d90c0ef          	jal	ra,21228 <__floatunsidf>
   14354:	fe1007b7          	lui	a5,0xfe100
   14358:	00100693          	li	a3,1
   1435c:	00050713          	mv	a4,a0
   14360:	00b787b3          	add	a5,a5,a1
   14364:	fff90913          	addi	s2,s2,-1
   14368:	02d12a23          	sw	a3,52(sp)
   1436c:	0000f697          	auipc	a3,0xf
   14370:	73468693          	addi	a3,a3,1844 # 23aa0 <__SDATA_BEGIN__+0x20>
   14374:	0006a603          	lw	a2,0(a3)
   14378:	0046a683          	lw	a3,4(a3)
   1437c:	00070513          	mv	a0,a4
   14380:	00078593          	mv	a1,a5
   14384:	4000c0ef          	jal	ra,20784 <__subdf3>
   14388:	0000f797          	auipc	a5,0xf
   1438c:	72078793          	addi	a5,a5,1824 # 23aa8 <__SDATA_BEGIN__+0x28>
   14390:	0007a603          	lw	a2,0(a5)
   14394:	0047a683          	lw	a3,4(a5)
   14398:	4110b0ef          	jal	ra,1ffa8 <__muldf3>
   1439c:	0000f797          	auipc	a5,0xf
   143a0:	71478793          	addi	a5,a5,1812 # 23ab0 <__SDATA_BEGIN__+0x30>
   143a4:	0007a603          	lw	a2,0(a5)
   143a8:	0047a683          	lw	a3,4(a5)
   143ac:	0150a0ef          	jal	ra,1ebc0 <__adddf3>
   143b0:	00050b13          	mv	s6,a0
   143b4:	00090513          	mv	a0,s2
   143b8:	00058a93          	mv	s5,a1
   143bc:	5b50c0ef          	jal	ra,21170 <__floatsidf>
   143c0:	0000f797          	auipc	a5,0xf
   143c4:	6f878793          	addi	a5,a5,1784 # 23ab8 <__SDATA_BEGIN__+0x38>
   143c8:	0007a603          	lw	a2,0(a5)
   143cc:	0047a683          	lw	a3,4(a5)
   143d0:	3d90b0ef          	jal	ra,1ffa8 <__muldf3>
   143d4:	00050613          	mv	a2,a0
   143d8:	00058693          	mv	a3,a1
   143dc:	000b0513          	mv	a0,s6
   143e0:	000a8593          	mv	a1,s5
   143e4:	7dc0a0ef          	jal	ra,1ebc0 <__adddf3>
   143e8:	00050b13          	mv	s6,a0
   143ec:	00058a93          	mv	s5,a1
   143f0:	4fd0c0ef          	jal	ra,210ec <__fixdfsi>
   143f4:	00050c13          	mv	s8,a0
   143f8:	000a8593          	mv	a1,s5
   143fc:	000b0513          	mv	a0,s6
   14400:	00000613          	li	a2,0
   14404:	00000693          	li	a3,0
   14408:	2a10b0ef          	jal	ra,1fea8 <__ledf2>
   1440c:	02055063          	bgez	a0,1442c <_dtoa_r+0x26c>
   14410:	000c0513          	mv	a0,s8
   14414:	55d0c0ef          	jal	ra,21170 <__floatsidf>
   14418:	000b0613          	mv	a2,s6
   1441c:	000a8693          	mv	a3,s5
   14420:	0f90b0ef          	jal	ra,1fd18 <__eqdf2>
   14424:	00a03533          	snez	a0,a0
   14428:	40ac0c33          	sub	s8,s8,a0
   1442c:	412a0a33          	sub	s4,s4,s2
   14430:	01600793          	li	a5,22
   14434:	fffa0b13          	addi	s6,s4,-1
   14438:	2387e6e3          	bltu	a5,s8,14e64 <_dtoa_r+0xca4>
   1443c:	0000e917          	auipc	s2,0xe
   14440:	c9c90913          	addi	s2,s2,-868 # 220d8 <__mprec_tens>
   14444:	003c1793          	slli	a5,s8,0x3
   14448:	00f907b3          	add	a5,s2,a5
   1444c:	0007a603          	lw	a2,0(a5)
   14450:	0047a683          	lw	a3,4(a5)
   14454:	01412503          	lw	a0,20(sp)
   14458:	01812583          	lw	a1,24(sp)
   1445c:	24d0b0ef          	jal	ra,1fea8 <__ledf2>
   14460:	280556e3          	bgez	a0,14eec <_dtoa_r+0xd2c>
   14464:	fffc0c13          	addi	s8,s8,-1
   14468:	02012823          	sw	zero,48(sp)
   1446c:	00012423          	sw	zero,8(sp)
   14470:	4c0b4c63          	bltz	s6,14948 <_dtoa_r+0x788>
   14474:	4e0c5463          	bgez	s8,1495c <_dtoa_r+0x79c>
   14478:	00812783          	lw	a5,8(sp)
   1447c:	01812e23          	sw	s8,28(sp)
   14480:	418787b3          	sub	a5,a5,s8
   14484:	00f12423          	sw	a5,8(sp)
   14488:	418007b3          	neg	a5,s8
   1448c:	02f12623          	sw	a5,44(sp)
   14490:	00900793          	li	a5,9
   14494:	00000c13          	li	s8,0
   14498:	4d37ec63          	bltu	a5,s3,14970 <_dtoa_r+0x7b0>
   1449c:	00500793          	li	a5,5
   144a0:	2137dee3          	bge	a5,s3,14ebc <_dtoa_r+0xcfc>
   144a4:	ffc98993          	addi	s3,s3,-4
   144a8:	00300793          	li	a5,3
   144ac:	00000913          	li	s2,0
   144b0:	64f988e3          	beq	s3,a5,15300 <_dtoa_r+0x1140>
   144b4:	6137d8e3          	bge	a5,s3,152c4 <_dtoa_r+0x1104>
   144b8:	00400793          	li	a5,4
   144bc:	50f986e3          	beq	s3,a5,151c8 <_dtoa_r+0x1008>
   144c0:	00100793          	li	a5,1
   144c4:	00500993          	li	s3,5
   144c8:	02f12023          	sw	a5,32(sp)
   144cc:	01012783          	lw	a5,16(sp)
   144d0:	01c12703          	lw	a4,28(sp)
   144d4:	00e787b3          	add	a5,a5,a4
   144d8:	00178a13          	addi	s4,a5,1
   144dc:	04f12023          	sw	a5,64(sp)
   144e0:	000a0613          	mv	a2,s4
   144e4:	01404463          	bgtz	s4,144ec <_dtoa_r+0x32c>
   144e8:	00100613          	li	a2,1
   144ec:	01700693          	li	a3,23
   144f0:	00100713          	li	a4,1
   144f4:	00400793          	li	a5,4
   144f8:	00c6c463          	blt	a3,a2,14500 <_dtoa_r+0x340>
   144fc:	3380106f          	j	15834 <_dtoa_r+0x1674>
   14500:	00179793          	slli	a5,a5,0x1
   14504:	01478693          	addi	a3,a5,20
   14508:	00070593          	mv	a1,a4
   1450c:	00170713          	addi	a4,a4,1
   14510:	fed678e3          	bgeu	a2,a3,14500 <_dtoa_r+0x340>
   14514:	04b42223          	sw	a1,68(s0)
   14518:	00040513          	mv	a0,s0
   1451c:	3e5030ef          	jal	ra,18100 <_Balloc>
   14520:	00050a93          	mv	s5,a0
   14524:	00051463          	bnez	a0,1452c <_dtoa_r+0x36c>
   14528:	2f00106f          	j	15818 <_dtoa_r+0x1658>
   1452c:	04a42023          	sw	a0,64(s0)
   14530:	00e00793          	li	a5,14
   14534:	5347e263          	bltu	a5,s4,14a58 <_dtoa_r+0x898>
   14538:	52090063          	beqz	s2,14a58 <_dtoa_r+0x898>
   1453c:	01c12703          	lw	a4,28(sp)
   14540:	60e050e3          	blez	a4,15340 <_dtoa_r+0x1180>
   14544:	00f77793          	andi	a5,a4,15
   14548:	40475c93          	srai	s9,a4,0x4
   1454c:	0000e917          	auipc	s2,0xe
   14550:	b8c90913          	addi	s2,s2,-1140 # 220d8 <__mprec_tens>
   14554:	00379793          	slli	a5,a5,0x3
   14558:	00f907b3          	add	a5,s2,a5
   1455c:	010cf693          	andi	a3,s9,16
   14560:	0007a803          	lw	a6,0(a5)
   14564:	0047a703          	lw	a4,4(a5)
   14568:	540686e3          	beqz	a3,152b4 <_dtoa_r+0x10f4>
   1456c:	0000e797          	auipc	a5,0xe
   14570:	b4478793          	addi	a5,a5,-1212 # 220b0 <__mprec_bigtens>
   14574:	0207a603          	lw	a2,32(a5)
   14578:	0247a683          	lw	a3,36(a5)
   1457c:	01412503          	lw	a0,20(sp)
   14580:	01812583          	lw	a1,24(sp)
   14584:	04e12223          	sw	a4,68(sp)
   14588:	03012c23          	sw	a6,56(sp)
   1458c:	6fd0a0ef          	jal	ra,1f488 <__divdf3>
   14590:	03812803          	lw	a6,56(sp)
   14594:	04412703          	lw	a4,68(sp)
   14598:	00fcfc93          	andi	s9,s9,15
   1459c:	00050313          	mv	t1,a0
   145a0:	00058893          	mv	a7,a1
   145a4:	00300913          	li	s2,3
   145a8:	060c8663          	beqz	s9,14614 <_dtoa_r+0x454>
   145ac:	0000eb97          	auipc	s7,0xe
   145b0:	b04b8b93          	addi	s7,s7,-1276 # 220b0 <__mprec_bigtens>
   145b4:	02912c23          	sw	s1,56(sp)
   145b8:	04812223          	sw	s0,68(sp)
   145bc:	00090493          	mv	s1,s2
   145c0:	000b8413          	mv	s0,s7
   145c4:	00088913          	mv	s2,a7
   145c8:	00030b93          	mv	s7,t1
   145cc:	00070593          	mv	a1,a4
   145d0:	001cf693          	andi	a3,s9,1
   145d4:	00068e63          	beqz	a3,145f0 <_dtoa_r+0x430>
   145d8:	00042603          	lw	a2,0(s0)
   145dc:	00442683          	lw	a3,4(s0)
   145e0:	00080513          	mv	a0,a6
   145e4:	00148493          	addi	s1,s1,1
   145e8:	1c10b0ef          	jal	ra,1ffa8 <__muldf3>
   145ec:	00050813          	mv	a6,a0
   145f0:	401cdc93          	srai	s9,s9,0x1
   145f4:	00840413          	addi	s0,s0,8
   145f8:	fc0c9ce3          	bnez	s9,145d0 <_dtoa_r+0x410>
   145fc:	00090893          	mv	a7,s2
   14600:	04412403          	lw	s0,68(sp)
   14604:	00048913          	mv	s2,s1
   14608:	03812483          	lw	s1,56(sp)
   1460c:	000b8313          	mv	t1,s7
   14610:	00058713          	mv	a4,a1
   14614:	00080613          	mv	a2,a6
   14618:	00030513          	mv	a0,t1
   1461c:	00070693          	mv	a3,a4
   14620:	00088593          	mv	a1,a7
   14624:	6650a0ef          	jal	ra,1f488 <__divdf3>
   14628:	00050793          	mv	a5,a0
   1462c:	00058b93          	mv	s7,a1
   14630:	03012703          	lw	a4,48(sp)
   14634:	02070863          	beqz	a4,14664 <_dtoa_r+0x4a4>
   14638:	0000f697          	auipc	a3,0xf
   1463c:	48868693          	addi	a3,a3,1160 # 23ac0 <__SDATA_BEGIN__+0x40>
   14640:	0006a603          	lw	a2,0(a3)
   14644:	0046a683          	lw	a3,4(a3)
   14648:	00078513          	mv	a0,a5
   1464c:	000b8593          	mv	a1,s7
   14650:	02f12c23          	sw	a5,56(sp)
   14654:	0550b0ef          	jal	ra,1fea8 <__ledf2>
   14658:	03812783          	lw	a5,56(sp)
   1465c:	00055463          	bgez	a0,14664 <_dtoa_r+0x4a4>
   14660:	0300106f          	j	15690 <_dtoa_r+0x14d0>
   14664:	00090513          	mv	a0,s2
   14668:	02f12c23          	sw	a5,56(sp)
   1466c:	3050c0ef          	jal	ra,21170 <__floatsidf>
   14670:	03812783          	lw	a5,56(sp)
   14674:	000b8693          	mv	a3,s7
   14678:	00078613          	mv	a2,a5
   1467c:	04f12223          	sw	a5,68(sp)
   14680:	1290b0ef          	jal	ra,1ffa8 <__muldf3>
   14684:	0000f717          	auipc	a4,0xf
   14688:	44c70713          	addi	a4,a4,1100 # 23ad0 <__SDATA_BEGIN__+0x50>
   1468c:	00072603          	lw	a2,0(a4)
   14690:	00472683          	lw	a3,4(a4)
   14694:	52c0a0ef          	jal	ra,1ebc0 <__adddf3>
   14698:	fcc00737          	lui	a4,0xfcc00
   1469c:	00b707b3          	add	a5,a4,a1
   146a0:	02f12c23          	sw	a5,56(sp)
   146a4:	00050c93          	mv	s9,a0
   146a8:	04412783          	lw	a5,68(sp)
   146ac:	340a0863          	beqz	s4,149fc <_dtoa_r+0x83c>
   146b0:	01c12703          	lw	a4,28(sp)
   146b4:	05412223          	sw	s4,68(sp)
   146b8:	04e12c23          	sw	a4,88(sp)
   146bc:	04412703          	lw	a4,68(sp)
   146c0:	0000e917          	auipc	s2,0xe
   146c4:	a1890913          	addi	s2,s2,-1512 # 220d8 <__mprec_tens>
   146c8:	00078513          	mv	a0,a5
   146cc:	fff70713          	addi	a4,a4,-1 # fcbfffff <__BSS_END__+0xfcbdc1cf>
   146d0:	00371713          	slli	a4,a4,0x3
   146d4:	00e90733          	add	a4,s2,a4
   146d8:	00472803          	lw	a6,4(a4)
   146dc:	04f12623          	sw	a5,76(sp)
   146e0:	00072783          	lw	a5,0(a4)
   146e4:	000b8593          	mv	a1,s7
   146e8:	05012a23          	sw	a6,84(sp)
   146ec:	04f12823          	sw	a5,80(sp)
   146f0:	1fd0c0ef          	jal	ra,210ec <__fixdfsi>
   146f4:	04a12423          	sw	a0,72(sp)
   146f8:	2790c0ef          	jal	ra,21170 <__floatsidf>
   146fc:	04c12783          	lw	a5,76(sp)
   14700:	00058693          	mv	a3,a1
   14704:	00050613          	mv	a2,a0
   14708:	000b8593          	mv	a1,s7
   1470c:	00078513          	mv	a0,a5
   14710:	0740c0ef          	jal	ra,20784 <__subdf3>
   14714:	04812703          	lw	a4,72(sp)
   14718:	000c8793          	mv	a5,s9
   1471c:	03812b83          	lw	s7,56(sp)
   14720:	03070693          	addi	a3,a4,48
   14724:	0ff6f813          	zext.b	a6,a3
   14728:	02012683          	lw	a3,32(sp)
   1472c:	00050c93          	mv	s9,a0
   14730:	001a8713          	addi	a4,s5,1
   14734:	5c0686e3          	beqz	a3,15500 <_dtoa_r+0x1340>
   14738:	0000f697          	auipc	a3,0xf
   1473c:	36068693          	addi	a3,a3,864 # 23a98 <__SDATA_BEGIN__+0x18>
   14740:	0006a503          	lw	a0,0(a3)
   14744:	05012603          	lw	a2,80(sp)
   14748:	02b12c23          	sw	a1,56(sp)
   1474c:	0046a583          	lw	a1,4(a3)
   14750:	05412683          	lw	a3,84(sp)
   14754:	04e12423          	sw	a4,72(sp)
   14758:	05012623          	sw	a6,76(sp)
   1475c:	04f12e23          	sw	a5,92(sp)
   14760:	5290a0ef          	jal	ra,1f488 <__divdf3>
   14764:	05c12783          	lw	a5,92(sp)
   14768:	000b8693          	mv	a3,s7
   1476c:	00078613          	mv	a2,a5
   14770:	0140c0ef          	jal	ra,20784 <__subdf3>
   14774:	03812883          	lw	a7,56(sp)
   14778:	04c12803          	lw	a6,76(sp)
   1477c:	000c8613          	mv	a2,s9
   14780:	00088693          	mv	a3,a7
   14784:	010a8023          	sb	a6,0(s5)
   14788:	00050913          	mv	s2,a0
   1478c:	00058b93          	mv	s7,a1
   14790:	6140b0ef          	jal	ra,1fda4 <__gedf2>
   14794:	03812883          	lw	a7,56(sp)
   14798:	04812703          	lw	a4,72(sp)
   1479c:	00a05463          	blez	a0,147a4 <_dtoa_r+0x5e4>
   147a0:	7a90006f          	j	15748 <_dtoa_r+0x1588>
   147a4:	0000f697          	auipc	a3,0xf
   147a8:	31c68693          	addi	a3,a3,796 # 23ac0 <__SDATA_BEGIN__+0x40>
   147ac:	0006a783          	lw	a5,0(a3)
   147b0:	0046a803          	lw	a6,4(a3)
   147b4:	05812423          	sw	s8,72(sp)
   147b8:	02f12c23          	sw	a5,56(sp)
   147bc:	00000793          	li	a5,0
   147c0:	04412c03          	lw	s8,68(sp)
   147c4:	05612623          	sw	s6,76(sp)
   147c8:	05412823          	sw	s4,80(sp)
   147cc:	05312223          	sw	s3,68(sp)
   147d0:	03012e23          	sw	a6,60(sp)
   147d4:	00070b13          	mv	s6,a4
   147d8:	00078a13          	mv	s4,a5
   147dc:	05a12e23          	sw	s10,92(sp)
   147e0:	00088993          	mv	s3,a7
   147e4:	0980006f          	j	1487c <_dtoa_r+0x6bc>
   147e8:	001a0a13          	addi	s4,s4,1
   147ec:	018a4463          	blt	s4,s8,147f4 <_dtoa_r+0x634>
   147f0:	79d0006f          	j	1578c <_dtoa_r+0x15cc>
   147f4:	0000fd17          	auipc	s10,0xf
   147f8:	2d4d0d13          	addi	s10,s10,724 # 23ac8 <__SDATA_BEGIN__+0x48>
   147fc:	000d2603          	lw	a2,0(s10)
   14800:	004d2683          	lw	a3,4(s10)
   14804:	00090513          	mv	a0,s2
   14808:	000b8593          	mv	a1,s7
   1480c:	79c0b0ef          	jal	ra,1ffa8 <__muldf3>
   14810:	000d2603          	lw	a2,0(s10)
   14814:	004d2683          	lw	a3,4(s10)
   14818:	00050913          	mv	s2,a0
   1481c:	00058b93          	mv	s7,a1
   14820:	000c8513          	mv	a0,s9
   14824:	00098593          	mv	a1,s3
   14828:	7800b0ef          	jal	ra,1ffa8 <__muldf3>
   1482c:	00058c93          	mv	s9,a1
   14830:	00050d13          	mv	s10,a0
   14834:	0b90c0ef          	jal	ra,210ec <__fixdfsi>
   14838:	00050993          	mv	s3,a0
   1483c:	1350c0ef          	jal	ra,21170 <__floatsidf>
   14840:	00050613          	mv	a2,a0
   14844:	00058693          	mv	a3,a1
   14848:	000d0513          	mv	a0,s10
   1484c:	000c8593          	mv	a1,s9
   14850:	7350b0ef          	jal	ra,20784 <__subdf3>
   14854:	03098793          	addi	a5,s3,48
   14858:	00090613          	mv	a2,s2
   1485c:	000b8693          	mv	a3,s7
   14860:	00fb0023          	sb	a5,0(s6)
   14864:	001b0b13          	addi	s6,s6,1
   14868:	00050c93          	mv	s9,a0
   1486c:	00058993          	mv	s3,a1
   14870:	6380b0ef          	jal	ra,1fea8 <__ledf2>
   14874:	00055463          	bgez	a0,1487c <_dtoa_r+0x6bc>
   14878:	6cd0006f          	j	15744 <_dtoa_r+0x1584>
   1487c:	03812503          	lw	a0,56(sp)
   14880:	03c12583          	lw	a1,60(sp)
   14884:	000c8613          	mv	a2,s9
   14888:	00098693          	mv	a3,s3
   1488c:	6f90b0ef          	jal	ra,20784 <__subdf3>
   14890:	00090613          	mv	a2,s2
   14894:	000b8693          	mv	a3,s7
   14898:	6100b0ef          	jal	ra,1fea8 <__ledf2>
   1489c:	f40556e3          	bgez	a0,147e8 <_dtoa_r+0x628>
   148a0:	05812783          	lw	a5,88(sp)
   148a4:	000b0b93          	mv	s7,s6
   148a8:	00178c93          	addi	s9,a5,1
   148ac:	03900613          	li	a2,57
   148b0:	0080006f          	j	148b8 <_dtoa_r+0x6f8>
   148b4:	677a8ce3          	beq	s5,s7,1572c <_dtoa_r+0x156c>
   148b8:	fffbc683          	lbu	a3,-1(s7)
   148bc:	000b8713          	mv	a4,s7
   148c0:	fffb8b93          	addi	s7,s7,-1
   148c4:	fec688e3          	beq	a3,a2,148b4 <_dtoa_r+0x6f4>
   148c8:	00168693          	addi	a3,a3,1
   148cc:	0ff6f693          	zext.b	a3,a3
   148d0:	00db8023          	sb	a3,0(s7)
   148d4:	000c8c13          	mv	s8,s9
   148d8:	4f80006f          	j	14dd0 <_dtoa_r+0xc10>
   148dc:	00412683          	lw	a3,4(sp)
   148e0:	00ca9793          	slli	a5,s5,0xc
   148e4:	00002737          	lui	a4,0x2
   148e8:	00c7d793          	srli	a5,a5,0xc
   148ec:	70f70713          	addi	a4,a4,1807 # 270f <exit-0xd985>
   148f0:	00e6a023          	sw	a4,0(a3)
   148f4:	01b7e7b3          	or	a5,a5,s11
   148f8:	0a078063          	beqz	a5,14998 <_dtoa_r+0x7d8>
   148fc:	00012783          	lw	a5,0(sp)
   14900:	0000da97          	auipc	s5,0xd
   14904:	184a8a93          	addi	s5,s5,388 # 21a84 <blanks.1+0x1c>
   14908:	9a078ae3          	beqz	a5,142bc <_dtoa_r+0xfc>
   1490c:	0000d797          	auipc	a5,0xd
   14910:	17b78793          	addi	a5,a5,379 # 21a87 <blanks.1+0x1f>
   14914:	00012703          	lw	a4,0(sp)
   14918:	00f72023          	sw	a5,0(a4)
   1491c:	9a1ff06f          	j	142bc <_dtoa_r+0xfc>
   14920:	01812783          	lw	a5,24(sp)
   14924:	3ff006b7          	lui	a3,0x3ff00
   14928:	06812a03          	lw	s4,104(sp)
   1492c:	00c79793          	slli	a5,a5,0xc
   14930:	00c7d793          	srli	a5,a5,0xc
   14934:	01412703          	lw	a4,20(sp)
   14938:	00d7e7b3          	or	a5,a5,a3
   1493c:	c0190913          	addi	s2,s2,-1023
   14940:	02012a23          	sw	zero,52(sp)
   14944:	a29ff06f          	j	1436c <_dtoa_r+0x1ac>
   14948:	00100793          	li	a5,1
   1494c:	414787b3          	sub	a5,a5,s4
   14950:	00f12423          	sw	a5,8(sp)
   14954:	00000b13          	li	s6,0
   14958:	b20c40e3          	bltz	s8,14478 <_dtoa_r+0x2b8>
   1495c:	01812e23          	sw	s8,28(sp)
   14960:	02012623          	sw	zero,44(sp)
   14964:	00900793          	li	a5,9
   14968:	018b0b33          	add	s6,s6,s8
   1496c:	b337f8e3          	bgeu	a5,s3,1449c <_dtoa_r+0x2dc>
   14970:	00100793          	li	a5,1
   14974:	00100913          	li	s2,1
   14978:	00000993          	li	s3,0
   1497c:	02f12023          	sw	a5,32(sp)
   14980:	fff00a13          	li	s4,-1
   14984:	00012823          	sw	zero,16(sp)
   14988:	04042223          	sw	zero,68(s0)
   1498c:	05412023          	sw	s4,64(sp)
   14990:	00000593          	li	a1,0
   14994:	b85ff06f          	j	14518 <_dtoa_r+0x358>
   14998:	00012703          	lw	a4,0(sp)
   1499c:	0000da97          	auipc	s5,0xd
   149a0:	0dca8a93          	addi	s5,s5,220 # 21a78 <blanks.1+0x10>
   149a4:	0000d797          	auipc	a5,0xd
   149a8:	0dc78793          	addi	a5,a5,220 # 21a80 <blanks.1+0x18>
   149ac:	f60714e3          	bnez	a4,14914 <_dtoa_r+0x754>
   149b0:	90dff06f          	j	142bc <_dtoa_r+0xfc>
   149b4:	00090513          	mv	a0,s2
   149b8:	02f12c23          	sw	a5,56(sp)
   149bc:	7b40c0ef          	jal	ra,21170 <__floatsidf>
   149c0:	03812783          	lw	a5,56(sp)
   149c4:	000b8693          	mv	a3,s7
   149c8:	00078613          	mv	a2,a5
   149cc:	04f12223          	sw	a5,68(sp)
   149d0:	5d80b0ef          	jal	ra,1ffa8 <__muldf3>
   149d4:	0000f717          	auipc	a4,0xf
   149d8:	0fc70713          	addi	a4,a4,252 # 23ad0 <__SDATA_BEGIN__+0x50>
   149dc:	00072603          	lw	a2,0(a4)
   149e0:	00472683          	lw	a3,4(a4)
   149e4:	1dc0a0ef          	jal	ra,1ebc0 <__adddf3>
   149e8:	fcc00737          	lui	a4,0xfcc00
   149ec:	00b707b3          	add	a5,a4,a1
   149f0:	02f12c23          	sw	a5,56(sp)
   149f4:	04412783          	lw	a5,68(sp)
   149f8:	00050c93          	mv	s9,a0
   149fc:	0000f717          	auipc	a4,0xf
   14a00:	0dc70713          	addi	a4,a4,220 # 23ad8 <__SDATA_BEGIN__+0x58>
   14a04:	00072603          	lw	a2,0(a4)
   14a08:	00472683          	lw	a3,4(a4)
   14a0c:	00078513          	mv	a0,a5
   14a10:	000b8593          	mv	a1,s7
   14a14:	5710b0ef          	jal	ra,20784 <__subdf3>
   14a18:	03812783          	lw	a5,56(sp)
   14a1c:	000c8613          	mv	a2,s9
   14a20:	00050b93          	mv	s7,a0
   14a24:	00078693          	mv	a3,a5
   14a28:	00058913          	mv	s2,a1
   14a2c:	3780b0ef          	jal	ra,1fda4 <__gedf2>
   14a30:	50a044e3          	bgtz	a0,15738 <_dtoa_r+0x1578>
   14a34:	03812703          	lw	a4,56(sp)
   14a38:	800007b7          	lui	a5,0x80000
   14a3c:	000b8513          	mv	a0,s7
   14a40:	00e7c7b3          	xor	a5,a5,a4
   14a44:	000c8613          	mv	a2,s9
   14a48:	00078693          	mv	a3,a5
   14a4c:	00090593          	mv	a1,s2
   14a50:	4580b0ef          	jal	ra,1fea8 <__ledf2>
   14a54:	06054c63          	bltz	a0,14acc <_dtoa_r+0x90c>
   14a58:	06c12783          	lw	a5,108(sp)
   14a5c:	1a07c263          	bltz	a5,14c00 <_dtoa_r+0xa40>
   14a60:	01c12683          	lw	a3,28(sp)
   14a64:	00e00713          	li	a4,14
   14a68:	0000d917          	auipc	s2,0xd
   14a6c:	67090913          	addi	s2,s2,1648 # 220d8 <__mprec_tens>
   14a70:	18d74863          	blt	a4,a3,14c00 <_dtoa_r+0xa40>
   14a74:	01c12783          	lw	a5,28(sp)
   14a78:	00379793          	slli	a5,a5,0x3
   14a7c:	00f907b3          	add	a5,s2,a5
   14a80:	0007a903          	lw	s2,0(a5) # 80000000 <__BSS_END__+0x7ffdc1d0>
   14a84:	0047a983          	lw	s3,4(a5)
   14a88:	01012783          	lw	a5,16(sp)
   14a8c:	0407dc63          	bgez	a5,14ae4 <_dtoa_r+0x924>
   14a90:	05404a63          	bgtz	s4,14ae4 <_dtoa_r+0x924>
   14a94:	020a1c63          	bnez	s4,14acc <_dtoa_r+0x90c>
   14a98:	0000f797          	auipc	a5,0xf
   14a9c:	04078793          	addi	a5,a5,64 # 23ad8 <__SDATA_BEGIN__+0x58>
   14aa0:	0007a603          	lw	a2,0(a5)
   14aa4:	0047a683          	lw	a3,4(a5)
   14aa8:	00090513          	mv	a0,s2
   14aac:	00098593          	mv	a1,s3
   14ab0:	4f80b0ef          	jal	ra,1ffa8 <__muldf3>
   14ab4:	00050613          	mv	a2,a0
   14ab8:	00058693          	mv	a3,a1
   14abc:	01412503          	lw	a0,20(sp)
   14ac0:	01812583          	lw	a1,24(sp)
   14ac4:	3e40b0ef          	jal	ra,1fea8 <__ledf2>
   14ac8:	46a048e3          	bgtz	a0,15738 <_dtoa_r+0x1578>
   14acc:	000a8713          	mv	a4,s5
   14ad0:	00000b93          	li	s7,0
   14ad4:	00000913          	li	s2,0
   14ad8:	01012783          	lw	a5,16(sp)
   14adc:	fff7cc13          	not	s8,a5
   14ae0:	6840006f          	j	15164 <_dtoa_r+0xfa4>
   14ae4:	01412b83          	lw	s7,20(sp)
   14ae8:	01812b03          	lw	s6,24(sp)
   14aec:	00090613          	mv	a2,s2
   14af0:	00098693          	mv	a3,s3
   14af4:	000b8513          	mv	a0,s7
   14af8:	000b0593          	mv	a1,s6
   14afc:	18d0a0ef          	jal	ra,1f488 <__divdf3>
   14b00:	5ec0c0ef          	jal	ra,210ec <__fixdfsi>
   14b04:	00050d13          	mv	s10,a0
   14b08:	6680c0ef          	jal	ra,21170 <__floatsidf>
   14b0c:	00090613          	mv	a2,s2
   14b10:	00098693          	mv	a3,s3
   14b14:	4940b0ef          	jal	ra,1ffa8 <__muldf3>
   14b18:	00050613          	mv	a2,a0
   14b1c:	00058693          	mv	a3,a1
   14b20:	000b8513          	mv	a0,s7
   14b24:	000b0593          	mv	a1,s6
   14b28:	45d0b0ef          	jal	ra,20784 <__subdf3>
   14b2c:	030d0793          	addi	a5,s10,48
   14b30:	00fa8023          	sb	a5,0(s5)
   14b34:	00100613          	li	a2,1
   14b38:	00050713          	mv	a4,a0
   14b3c:	00058693          	mv	a3,a1
   14b40:	001a8b93          	addi	s7,s5,1
   14b44:	0cca06e3          	beq	s4,a2,15410 <_dtoa_r+0x1250>
   14b48:	0000f617          	auipc	a2,0xf
   14b4c:	f8060613          	addi	a2,a2,-128 # 23ac8 <__SDATA_BEGIN__+0x48>
   14b50:	00062783          	lw	a5,0(a2)
   14b54:	00462803          	lw	a6,4(a2)
   14b58:	00100d93          	li	s11,1
   14b5c:	00f12423          	sw	a5,8(sp)
   14b60:	01012623          	sw	a6,12(sp)
   14b64:	0600006f          	j	14bc4 <_dtoa_r+0xa04>
   14b68:	00090613          	mv	a2,s2
   14b6c:	00098693          	mv	a3,s3
   14b70:	000c0513          	mv	a0,s8
   14b74:	000b0593          	mv	a1,s6
   14b78:	1110a0ef          	jal	ra,1f488 <__divdf3>
   14b7c:	5700c0ef          	jal	ra,210ec <__fixdfsi>
   14b80:	00050d13          	mv	s10,a0
   14b84:	5ec0c0ef          	jal	ra,21170 <__floatsidf>
   14b88:	00090613          	mv	a2,s2
   14b8c:	00098693          	mv	a3,s3
   14b90:	4180b0ef          	jal	ra,1ffa8 <__muldf3>
   14b94:	00058693          	mv	a3,a1
   14b98:	00050613          	mv	a2,a0
   14b9c:	000b0593          	mv	a1,s6
   14ba0:	000c0513          	mv	a0,s8
   14ba4:	3e10b0ef          	jal	ra,20784 <__subdf3>
   14ba8:	001b8b93          	addi	s7,s7,1
   14bac:	030d0793          	addi	a5,s10,48
   14bb0:	001d8d93          	addi	s11,s11,1
   14bb4:	fefb8fa3          	sb	a5,-1(s7)
   14bb8:	00050713          	mv	a4,a0
   14bbc:	00058693          	mv	a3,a1
   14bc0:	05ba08e3          	beq	s4,s11,15410 <_dtoa_r+0x1250>
   14bc4:	00812603          	lw	a2,8(sp)
   14bc8:	00068593          	mv	a1,a3
   14bcc:	00c12683          	lw	a3,12(sp)
   14bd0:	00070513          	mv	a0,a4
   14bd4:	3d40b0ef          	jal	ra,1ffa8 <__muldf3>
   14bd8:	00000613          	li	a2,0
   14bdc:	00000693          	li	a3,0
   14be0:	00050c13          	mv	s8,a0
   14be4:	00058b13          	mv	s6,a1
   14be8:	1300b0ef          	jal	ra,1fd18 <__eqdf2>
   14bec:	f6051ee3          	bnez	a0,14b68 <_dtoa_r+0x9a8>
   14bf0:	01c12783          	lw	a5,28(sp)
   14bf4:	000b8713          	mv	a4,s7
   14bf8:	00178c13          	addi	s8,a5,1
   14bfc:	1d40006f          	j	14dd0 <_dtoa_r+0xc10>
   14c00:	02012703          	lw	a4,32(sp)
   14c04:	26071a63          	bnez	a4,14e78 <_dtoa_r+0xcb8>
   14c08:	02c12b83          	lw	s7,44(sp)
   14c0c:	00812c83          	lw	s9,8(sp)
   14c10:	02012023          	sw	zero,32(sp)
   14c14:	00000913          	li	s2,0
   14c18:	020c8263          	beqz	s9,14c3c <_dtoa_r+0xa7c>
   14c1c:	03605063          	blez	s6,14c3c <_dtoa_r+0xa7c>
   14c20:	000c8793          	mv	a5,s9
   14c24:	639b4c63          	blt	s6,s9,1525c <_dtoa_r+0x109c>
   14c28:	00812703          	lw	a4,8(sp)
   14c2c:	40fc8cb3          	sub	s9,s9,a5
   14c30:	40fb0b33          	sub	s6,s6,a5
   14c34:	40f70733          	sub	a4,a4,a5
   14c38:	00e12423          	sw	a4,8(sp)
   14c3c:	02c12783          	lw	a5,44(sp)
   14c40:	02078263          	beqz	a5,14c64 <_dtoa_r+0xaa4>
   14c44:	02012783          	lw	a5,32(sp)
   14c48:	00078463          	beqz	a5,14c50 <_dtoa_r+0xa90>
   14c4c:	060b92e3          	bnez	s7,154b0 <_dtoa_r+0x12f0>
   14c50:	02c12603          	lw	a2,44(sp)
   14c54:	00048593          	mv	a1,s1
   14c58:	00040513          	mv	a0,s0
   14c5c:	4d5030ef          	jal	ra,18930 <__pow5mult>
   14c60:	00050493          	mv	s1,a0
   14c64:	00100593          	li	a1,1
   14c68:	00040513          	mv	a0,s0
   14c6c:	169030ef          	jal	ra,185d4 <__i2b>
   14c70:	00050b93          	mv	s7,a0
   14c74:	500c1863          	bnez	s8,15184 <_dtoa_r+0xfc4>
   14c78:	00100793          	li	a5,1
   14c7c:	5737d463          	bge	a5,s3,151e4 <_dtoa_r+0x1024>
   14c80:	016787b3          	add	a5,a5,s6
   14c84:	01f7f793          	andi	a5,a5,31
   14c88:	1e078463          	beqz	a5,14e70 <_dtoa_r+0xcb0>
   14c8c:	02000713          	li	a4,32
   14c90:	40f70733          	sub	a4,a4,a5
   14c94:	00400693          	li	a3,4
   14c98:	58e6d863          	bge	a3,a4,15228 <_dtoa_r+0x1068>
   14c9c:	01c00713          	li	a4,28
   14ca0:	40f707b3          	sub	a5,a4,a5
   14ca4:	00812703          	lw	a4,8(sp)
   14ca8:	00fc8cb3          	add	s9,s9,a5
   14cac:	00fb0b33          	add	s6,s6,a5
   14cb0:	00f70733          	add	a4,a4,a5
   14cb4:	00e12423          	sw	a4,8(sp)
   14cb8:	00812783          	lw	a5,8(sp)
   14cbc:	14f04263          	bgtz	a5,14e00 <_dtoa_r+0xc40>
   14cc0:	01605c63          	blez	s6,14cd8 <_dtoa_r+0xb18>
   14cc4:	000b8593          	mv	a1,s7
   14cc8:	000b0613          	mv	a2,s6
   14ccc:	00040513          	mv	a0,s0
   14cd0:	5b1030ef          	jal	ra,18a80 <__lshift>
   14cd4:	00050b93          	mv	s7,a0
   14cd8:	03012783          	lw	a5,48(sp)
   14cdc:	12079e63          	bnez	a5,14e18 <_dtoa_r+0xc58>
   14ce0:	43405863          	blez	s4,15110 <_dtoa_r+0xf50>
   14ce4:	02012783          	lw	a5,32(sp)
   14ce8:	24079663          	bnez	a5,14f34 <_dtoa_r+0xd74>
   14cec:	01c12783          	lw	a5,28(sp)
   14cf0:	00178c13          	addi	s8,a5,1
   14cf4:	00100993          	li	s3,1
   14cf8:	0200006f          	j	14d18 <_dtoa_r+0xb58>
   14cfc:	00048593          	mv	a1,s1
   14d00:	00000693          	li	a3,0
   14d04:	00a00613          	li	a2,10
   14d08:	00040513          	mv	a0,s0
   14d0c:	4c0030ef          	jal	ra,181cc <__multadd>
   14d10:	00050493          	mv	s1,a0
   14d14:	00198993          	addi	s3,s3,1
   14d18:	000b8593          	mv	a1,s7
   14d1c:	00048513          	mv	a0,s1
   14d20:	a6cff0ef          	jal	ra,13f8c <quorem>
   14d24:	03050d13          	addi	s10,a0,48
   14d28:	013a87b3          	add	a5,s5,s3
   14d2c:	ffa78fa3          	sb	s10,-1(a5)
   14d30:	fd49c6e3          	blt	s3,s4,14cfc <_dtoa_r+0xb3c>
   14d34:	00100713          	li	a4,1
   14d38:	01405463          	blez	s4,14d40 <_dtoa_r+0xb80>
   14d3c:	000a0713          	mv	a4,s4
   14d40:	00ea8a33          	add	s4,s5,a4
   14d44:	00000993          	li	s3,0
   14d48:	00048593          	mv	a1,s1
   14d4c:	00100613          	li	a2,1
   14d50:	00040513          	mv	a0,s0
   14d54:	52d030ef          	jal	ra,18a80 <__lshift>
   14d58:	000b8593          	mv	a1,s7
   14d5c:	00050493          	mv	s1,a0
   14d60:	6b1030ef          	jal	ra,18c10 <__mcmp>
   14d64:	4ca05a63          	blez	a0,15238 <_dtoa_r+0x1078>
   14d68:	03900693          	li	a3,57
   14d6c:	0080006f          	j	14d74 <_dtoa_r+0xbb4>
   14d70:	5d4a8063          	beq	s5,s4,15330 <_dtoa_r+0x1170>
   14d74:	fffa4783          	lbu	a5,-1(s4)
   14d78:	000a0713          	mv	a4,s4
   14d7c:	fffa0a13          	addi	s4,s4,-1
   14d80:	fed788e3          	beq	a5,a3,14d70 <_dtoa_r+0xbb0>
   14d84:	00178793          	addi	a5,a5,1
   14d88:	00fa0023          	sb	a5,0(s4)
   14d8c:	000b8593          	mv	a1,s7
   14d90:	00040513          	mv	a0,s0
   14d94:	00e12423          	sw	a4,8(sp)
   14d98:	410030ef          	jal	ra,181a8 <_Bfree>
   14d9c:	00812703          	lw	a4,8(sp)
   14da0:	02090863          	beqz	s2,14dd0 <_dtoa_r+0xc10>
   14da4:	00098c63          	beqz	s3,14dbc <_dtoa_r+0xbfc>
   14da8:	01298a63          	beq	s3,s2,14dbc <_dtoa_r+0xbfc>
   14dac:	00098593          	mv	a1,s3
   14db0:	00040513          	mv	a0,s0
   14db4:	3f4030ef          	jal	ra,181a8 <_Bfree>
   14db8:	00812703          	lw	a4,8(sp)
   14dbc:	00090593          	mv	a1,s2
   14dc0:	00040513          	mv	a0,s0
   14dc4:	00e12423          	sw	a4,8(sp)
   14dc8:	3e0030ef          	jal	ra,181a8 <_Bfree>
   14dcc:	00812703          	lw	a4,8(sp)
   14dd0:	00048593          	mv	a1,s1
   14dd4:	00040513          	mv	a0,s0
   14dd8:	00e12423          	sw	a4,8(sp)
   14ddc:	3cc030ef          	jal	ra,181a8 <_Bfree>
   14de0:	00812703          	lw	a4,8(sp)
   14de4:	00412783          	lw	a5,4(sp)
   14de8:	00070023          	sb	zero,0(a4)
   14dec:	0187a023          	sw	s8,0(a5)
   14df0:	00012783          	lw	a5,0(sp)
   14df4:	cc078463          	beqz	a5,142bc <_dtoa_r+0xfc>
   14df8:	00e7a023          	sw	a4,0(a5)
   14dfc:	cc0ff06f          	j	142bc <_dtoa_r+0xfc>
   14e00:	00048593          	mv	a1,s1
   14e04:	00078613          	mv	a2,a5
   14e08:	00040513          	mv	a0,s0
   14e0c:	475030ef          	jal	ra,18a80 <__lshift>
   14e10:	00050493          	mv	s1,a0
   14e14:	eadff06f          	j	14cc0 <_dtoa_r+0xb00>
   14e18:	000b8593          	mv	a1,s7
   14e1c:	00048513          	mv	a0,s1
   14e20:	5f1030ef          	jal	ra,18c10 <__mcmp>
   14e24:	ea055ee3          	bgez	a0,14ce0 <_dtoa_r+0xb20>
   14e28:	00048593          	mv	a1,s1
   14e2c:	00000693          	li	a3,0
   14e30:	00a00613          	li	a2,10
   14e34:	00040513          	mv	a0,s0
   14e38:	394030ef          	jal	ra,181cc <__multadd>
   14e3c:	01c12783          	lw	a5,28(sp)
   14e40:	00050493          	mv	s1,a0
   14e44:	fff78a13          	addi	s4,a5,-1
   14e48:	02012783          	lw	a5,32(sp)
   14e4c:	0c079063          	bnez	a5,14f0c <_dtoa_r+0xd4c>
   14e50:	04012783          	lw	a5,64(sp)
   14e54:	16f054e3          	blez	a5,157bc <_dtoa_r+0x15fc>
   14e58:	01c12c03          	lw	s8,28(sp)
   14e5c:	00078a13          	mv	s4,a5
   14e60:	e95ff06f          	j	14cf4 <_dtoa_r+0xb34>
   14e64:	00100793          	li	a5,1
   14e68:	02f12823          	sw	a5,48(sp)
   14e6c:	e00ff06f          	j	1446c <_dtoa_r+0x2ac>
   14e70:	01c00793          	li	a5,28
   14e74:	e31ff06f          	j	14ca4 <_dtoa_r+0xae4>
   14e78:	00100713          	li	a4,1
   14e7c:	49375663          	bge	a4,s3,15308 <_dtoa_r+0x1148>
   14e80:	02c12783          	lw	a5,44(sp)
   14e84:	fffa0b93          	addi	s7,s4,-1
   14e88:	3d77ce63          	blt	a5,s7,15264 <_dtoa_r+0x10a4>
   14e8c:	41778bb3          	sub	s7,a5,s7
   14e90:	00812783          	lw	a5,8(sp)
   14e94:	41478cb3          	sub	s9,a5,s4
   14e98:	3e0a4a63          	bltz	s4,1528c <_dtoa_r+0x10cc>
   14e9c:	00078c93          	mv	s9,a5
   14ea0:	014787b3          	add	a5,a5,s4
   14ea4:	014b0b33          	add	s6,s6,s4
   14ea8:	00f12423          	sw	a5,8(sp)
   14eac:	3e00006f          	j	1528c <_dtoa_r+0x10cc>
   14eb0:	40e787b3          	sub	a5,a5,a4
   14eb4:	00fd9533          	sll	a0,s11,a5
   14eb8:	c98ff06f          	j	14350 <_dtoa_r+0x190>
   14ebc:	00300793          	li	a5,3
   14ec0:	00100913          	li	s2,1
   14ec4:	42f98e63          	beq	s3,a5,15300 <_dtoa_r+0x1140>
   14ec8:	df37c863          	blt	a5,s3,144b8 <_dtoa_r+0x2f8>
   14ecc:	00200793          	li	a5,2
   14ed0:	02012023          	sw	zero,32(sp)
   14ed4:	16f996e3          	bne	s3,a5,15840 <_dtoa_r+0x1680>
   14ed8:	01012603          	lw	a2,16(sp)
   14edc:	2ec05c63          	blez	a2,151d4 <_dtoa_r+0x1014>
   14ee0:	04c12023          	sw	a2,64(sp)
   14ee4:	00060a13          	mv	s4,a2
   14ee8:	e04ff06f          	j	144ec <_dtoa_r+0x32c>
   14eec:	02012823          	sw	zero,48(sp)
   14ef0:	00012423          	sw	zero,8(sp)
   14ef4:	a74044e3          	bgtz	s4,1495c <_dtoa_r+0x79c>
   14ef8:	00100793          	li	a5,1
   14efc:	414787b3          	sub	a5,a5,s4
   14f00:	00f12423          	sw	a5,8(sp)
   14f04:	00000b13          	li	s6,0
   14f08:	a55ff06f          	j	1495c <_dtoa_r+0x79c>
   14f0c:	00090593          	mv	a1,s2
   14f10:	00000693          	li	a3,0
   14f14:	00a00613          	li	a2,10
   14f18:	00040513          	mv	a0,s0
   14f1c:	2b0030ef          	jal	ra,181cc <__multadd>
   14f20:	04012783          	lw	a5,64(sp)
   14f24:	00050913          	mv	s2,a0
   14f28:	0cf052e3          	blez	a5,157ec <_dtoa_r+0x162c>
   14f2c:	01412e23          	sw	s4,28(sp)
   14f30:	00078a13          	mv	s4,a5
   14f34:	01905c63          	blez	s9,14f4c <_dtoa_r+0xd8c>
   14f38:	00090593          	mv	a1,s2
   14f3c:	000c8613          	mv	a2,s9
   14f40:	00040513          	mv	a0,s0
   14f44:	33d030ef          	jal	ra,18a80 <__lshift>
   14f48:	00050913          	mv	s2,a0
   14f4c:	00090b13          	mv	s6,s2
   14f50:	500c1e63          	bnez	s8,1546c <_dtoa_r+0x12ac>
   14f54:	02812783          	lw	a5,40(sp)
   14f58:	fffa8d13          	addi	s10,s5,-1
   14f5c:	000a8c93          	mv	s9,s5
   14f60:	0017f793          	andi	a5,a5,1
   14f64:	014d0d33          	add	s10,s10,s4
   14f68:	00f12823          	sw	a5,16(sp)
   14f6c:	01512a23          	sw	s5,20(sp)
   14f70:	01b12c23          	sw	s11,24(sp)
   14f74:	000b8593          	mv	a1,s7
   14f78:	00048513          	mv	a0,s1
   14f7c:	810ff0ef          	jal	ra,13f8c <quorem>
   14f80:	00050c13          	mv	s8,a0
   14f84:	00090593          	mv	a1,s2
   14f88:	00048513          	mv	a0,s1
   14f8c:	485030ef          	jal	ra,18c10 <__mcmp>
   14f90:	000b8593          	mv	a1,s7
   14f94:	00050a13          	mv	s4,a0
   14f98:	000b0613          	mv	a2,s6
   14f9c:	00040513          	mv	a0,s0
   14fa0:	4c9030ef          	jal	ra,18c68 <__mdiff>
   14fa4:	00c52703          	lw	a4,12(a0)
   14fa8:	00050593          	mv	a1,a0
   14fac:	030c0a93          	addi	s5,s8,48
   14fb0:	08071a63          	bnez	a4,15044 <_dtoa_r+0xe84>
   14fb4:	00a12423          	sw	a0,8(sp)
   14fb8:	00048513          	mv	a0,s1
   14fbc:	455030ef          	jal	ra,18c10 <__mcmp>
   14fc0:	00812583          	lw	a1,8(sp)
   14fc4:	00050d93          	mv	s11,a0
   14fc8:	00040513          	mv	a0,s0
   14fcc:	1dc030ef          	jal	ra,181a8 <_Bfree>
   14fd0:	01b9e633          	or	a2,s3,s11
   14fd4:	0e061a63          	bnez	a2,150c8 <_dtoa_r+0xf08>
   14fd8:	01012783          	lw	a5,16(sp)
   14fdc:	76078c63          	beqz	a5,15754 <_dtoa_r+0x1594>
   14fe0:	780a4663          	bltz	s4,1576c <_dtoa_r+0x15ac>
   14fe4:	015c8023          	sb	s5,0(s9)
   14fe8:	001c8a13          	addi	s4,s9,1
   14fec:	699d0463          	beq	s10,s9,15674 <_dtoa_r+0x14b4>
   14ff0:	00048593          	mv	a1,s1
   14ff4:	00000693          	li	a3,0
   14ff8:	00a00613          	li	a2,10
   14ffc:	00040513          	mv	a0,s0
   15000:	1cc030ef          	jal	ra,181cc <__multadd>
   15004:	00050493          	mv	s1,a0
   15008:	00090593          	mv	a1,s2
   1500c:	00000693          	li	a3,0
   15010:	00a00613          	li	a2,10
   15014:	00040513          	mv	a0,s0
   15018:	09690e63          	beq	s2,s6,150b4 <_dtoa_r+0xef4>
   1501c:	1b0030ef          	jal	ra,181cc <__multadd>
   15020:	000b0593          	mv	a1,s6
   15024:	00050913          	mv	s2,a0
   15028:	00000693          	li	a3,0
   1502c:	00a00613          	li	a2,10
   15030:	00040513          	mv	a0,s0
   15034:	198030ef          	jal	ra,181cc <__multadd>
   15038:	00050b13          	mv	s6,a0
   1503c:	000a0c93          	mv	s9,s4
   15040:	f35ff06f          	j	14f74 <_dtoa_r+0xdb4>
   15044:	00040513          	mv	a0,s0
   15048:	000a8d13          	mv	s10,s5
   1504c:	01812d83          	lw	s11,24(sp)
   15050:	01412a83          	lw	s5,20(sp)
   15054:	154030ef          	jal	ra,181a8 <_Bfree>
   15058:	000a4a63          	bltz	s4,1506c <_dtoa_r+0xeac>
   1505c:	001df713          	andi	a4,s11,1
   15060:	0149ea33          	or	s4,s3,s4
   15064:	01476733          	or	a4,a4,s4
   15068:	08071063          	bnez	a4,150e8 <_dtoa_r+0xf28>
   1506c:	00048593          	mv	a1,s1
   15070:	00100613          	li	a2,1
   15074:	00040513          	mv	a0,s0
   15078:	209030ef          	jal	ra,18a80 <__lshift>
   1507c:	000b8593          	mv	a1,s7
   15080:	00050493          	mv	s1,a0
   15084:	38d030ef          	jal	ra,18c10 <__mcmp>
   15088:	24a05463          	blez	a0,152d0 <_dtoa_r+0x1110>
   1508c:	03900713          	li	a4,57
   15090:	24ed0863          	beq	s10,a4,152e0 <_dtoa_r+0x1120>
   15094:	031c0d13          	addi	s10,s8,49
   15098:	01c12783          	lw	a5,28(sp)
   1509c:	00090993          	mv	s3,s2
   150a0:	001c8713          	addi	a4,s9,1
   150a4:	01ac8023          	sb	s10,0(s9)
   150a8:	00178c13          	addi	s8,a5,1
   150ac:	000b0913          	mv	s2,s6
   150b0:	cddff06f          	j	14d8c <_dtoa_r+0xbcc>
   150b4:	118030ef          	jal	ra,181cc <__multadd>
   150b8:	00050913          	mv	s2,a0
   150bc:	00050b13          	mv	s6,a0
   150c0:	000a0c93          	mv	s9,s4
   150c4:	eb1ff06f          	j	14f74 <_dtoa_r+0xdb4>
   150c8:	7c0a4663          	bltz	s4,15894 <_dtoa_r+0x16d4>
   150cc:	01012783          	lw	a5,16(sp)
   150d0:	0149ea33          	or	s4,s3,s4
   150d4:	0147ea33          	or	s4,a5,s4
   150d8:	7a0a0e63          	beqz	s4,15894 <_dtoa_r+0x16d4>
   150dc:	f1b054e3          	blez	s11,14fe4 <_dtoa_r+0xe24>
   150e0:	000a8d13          	mv	s10,s5
   150e4:	01412a83          	lw	s5,20(sp)
   150e8:	03900713          	li	a4,57
   150ec:	1eed0a63          	beq	s10,a4,152e0 <_dtoa_r+0x1120>
   150f0:	01c12683          	lw	a3,28(sp)
   150f4:	001d0793          	addi	a5,s10,1
   150f8:	00090993          	mv	s3,s2
   150fc:	001c8713          	addi	a4,s9,1
   15100:	00168c13          	addi	s8,a3,1 # 3ff00001 <__BSS_END__+0x3fedc1d1>
   15104:	00fc8023          	sb	a5,0(s9)
   15108:	000b0913          	mv	s2,s6
   1510c:	c81ff06f          	j	14d8c <_dtoa_r+0xbcc>
   15110:	00200793          	li	a5,2
   15114:	bd37d8e3          	bge	a5,s3,14ce4 <_dtoa_r+0xb24>
   15118:	000a8713          	mv	a4,s5
   1511c:	9a0a1ee3          	bnez	s4,14ad8 <_dtoa_r+0x918>
   15120:	000b8593          	mv	a1,s7
   15124:	00000693          	li	a3,0
   15128:	00500613          	li	a2,5
   1512c:	00040513          	mv	a0,s0
   15130:	01512423          	sw	s5,8(sp)
   15134:	098030ef          	jal	ra,181cc <__multadd>
   15138:	00050593          	mv	a1,a0
   1513c:	00050b93          	mv	s7,a0
   15140:	00048513          	mv	a0,s1
   15144:	2cd030ef          	jal	ra,18c10 <__mcmp>
   15148:	00812703          	lw	a4,8(sp)
   1514c:	98a056e3          	blez	a0,14ad8 <_dtoa_r+0x918>
   15150:	03100793          	li	a5,49
   15154:	00fa8023          	sb	a5,0(s5)
   15158:	01c12783          	lw	a5,28(sp)
   1515c:	001a8713          	addi	a4,s5,1
   15160:	00178c13          	addi	s8,a5,1
   15164:	000b8593          	mv	a1,s7
   15168:	00040513          	mv	a0,s0
   1516c:	00e12423          	sw	a4,8(sp)
   15170:	038030ef          	jal	ra,181a8 <_Bfree>
   15174:	00812703          	lw	a4,8(sp)
   15178:	001c0c13          	addi	s8,s8,1
   1517c:	c40910e3          	bnez	s2,14dbc <_dtoa_r+0xbfc>
   15180:	c51ff06f          	j	14dd0 <_dtoa_r+0xc10>
   15184:	00050593          	mv	a1,a0
   15188:	000c0613          	mv	a2,s8
   1518c:	00040513          	mv	a0,s0
   15190:	7a0030ef          	jal	ra,18930 <__pow5mult>
   15194:	00100793          	li	a5,1
   15198:	00050b93          	mv	s7,a0
   1519c:	1137d263          	bge	a5,s3,152a0 <_dtoa_r+0x10e0>
   151a0:	00000c13          	li	s8,0
   151a4:	010ba783          	lw	a5,16(s7)
   151a8:	00378793          	addi	a5,a5,3
   151ac:	00279793          	slli	a5,a5,0x2
   151b0:	00fb87b3          	add	a5,s7,a5
   151b4:	0047a503          	lw	a0,4(a5)
   151b8:	2c4030ef          	jal	ra,1847c <__hi0bits>
   151bc:	02000793          	li	a5,32
   151c0:	40a787b3          	sub	a5,a5,a0
   151c4:	abdff06f          	j	14c80 <_dtoa_r+0xac0>
   151c8:	00100793          	li	a5,1
   151cc:	02f12023          	sw	a5,32(sp)
   151d0:	d09ff06f          	j	14ed8 <_dtoa_r+0xd18>
   151d4:	00100793          	li	a5,1
   151d8:	00100a13          	li	s4,1
   151dc:	00f12823          	sw	a5,16(sp)
   151e0:	fa8ff06f          	j	14988 <_dtoa_r+0x7c8>
   151e4:	02812783          	lw	a5,40(sp)
   151e8:	02079c63          	bnez	a5,15220 <_dtoa_r+0x1060>
   151ec:	00cd1793          	slli	a5,s10,0xc
   151f0:	02079863          	bnez	a5,15220 <_dtoa_r+0x1060>
   151f4:	7ff007b7          	lui	a5,0x7ff00
   151f8:	00fd77b3          	and	a5,s10,a5
   151fc:	00000713          	li	a4,0
   15200:	00078c63          	beqz	a5,15218 <_dtoa_r+0x1058>
   15204:	00812783          	lw	a5,8(sp)
   15208:	001b0b13          	addi	s6,s6,1
   1520c:	00100713          	li	a4,1
   15210:	00178793          	addi	a5,a5,1 # 7ff00001 <__BSS_END__+0x7fedc1d1>
   15214:	00f12423          	sw	a5,8(sp)
   15218:	560c1063          	bnez	s8,15778 <_dtoa_r+0x15b8>
   1521c:	00070c13          	mv	s8,a4
   15220:	00100793          	li	a5,1
   15224:	a5dff06f          	j	14c80 <_dtoa_r+0xac0>
   15228:	a8d708e3          	beq	a4,a3,14cb8 <_dtoa_r+0xaf8>
   1522c:	03c00713          	li	a4,60
   15230:	40f707b3          	sub	a5,a4,a5
   15234:	a71ff06f          	j	14ca4 <_dtoa_r+0xae4>
   15238:	00051663          	bnez	a0,15244 <_dtoa_r+0x1084>
   1523c:	001d7793          	andi	a5,s10,1
   15240:	b20794e3          	bnez	a5,14d68 <_dtoa_r+0xba8>
   15244:	03000693          	li	a3,48
   15248:	fffa4783          	lbu	a5,-1(s4)
   1524c:	000a0713          	mv	a4,s4
   15250:	fffa0a13          	addi	s4,s4,-1
   15254:	fed78ae3          	beq	a5,a3,15248 <_dtoa_r+0x1088>
   15258:	b35ff06f          	j	14d8c <_dtoa_r+0xbcc>
   1525c:	000b0793          	mv	a5,s6
   15260:	9c9ff06f          	j	14c28 <_dtoa_r+0xa68>
   15264:	02c12783          	lw	a5,44(sp)
   15268:	00812703          	lw	a4,8(sp)
   1526c:	03712623          	sw	s7,44(sp)
   15270:	40fb87b3          	sub	a5,s7,a5
   15274:	00fc0c33          	add	s8,s8,a5
   15278:	014707b3          	add	a5,a4,s4
   1527c:	00070c93          	mv	s9,a4
   15280:	014b0b33          	add	s6,s6,s4
   15284:	00f12423          	sw	a5,8(sp)
   15288:	00000b93          	li	s7,0
   1528c:	00100593          	li	a1,1
   15290:	00040513          	mv	a0,s0
   15294:	340030ef          	jal	ra,185d4 <__i2b>
   15298:	00050913          	mv	s2,a0
   1529c:	97dff06f          	j	14c18 <_dtoa_r+0xa58>
   152a0:	02812783          	lw	a5,40(sp)
   152a4:	ee079ee3          	bnez	a5,151a0 <_dtoa_r+0xfe0>
   152a8:	00cd1793          	slli	a5,s10,0xc
   152ac:	ee079ae3          	bnez	a5,151a0 <_dtoa_r+0xfe0>
   152b0:	f45ff06f          	j	151f4 <_dtoa_r+0x1034>
   152b4:	01412303          	lw	t1,20(sp)
   152b8:	01812883          	lw	a7,24(sp)
   152bc:	00200913          	li	s2,2
   152c0:	ae8ff06f          	j	145a8 <_dtoa_r+0x3e8>
   152c4:	00200993          	li	s3,2
   152c8:	02012023          	sw	zero,32(sp)
   152cc:	c0dff06f          	j	14ed8 <_dtoa_r+0xd18>
   152d0:	dc0514e3          	bnez	a0,15098 <_dtoa_r+0xed8>
   152d4:	001d7713          	andi	a4,s10,1
   152d8:	da071ae3          	bnez	a4,1508c <_dtoa_r+0xecc>
   152dc:	dbdff06f          	j	15098 <_dtoa_r+0xed8>
   152e0:	03900793          	li	a5,57
   152e4:	00fc8023          	sb	a5,0(s9)
   152e8:	01c12783          	lw	a5,28(sp)
   152ec:	00090993          	mv	s3,s2
   152f0:	001c8a13          	addi	s4,s9,1
   152f4:	00178c13          	addi	s8,a5,1
   152f8:	000b0913          	mv	s2,s6
   152fc:	a6dff06f          	j	14d68 <_dtoa_r+0xba8>
   15300:	02012023          	sw	zero,32(sp)
   15304:	9c8ff06f          	j	144cc <_dtoa_r+0x30c>
   15308:	03412703          	lw	a4,52(sp)
   1530c:	34070063          	beqz	a4,1564c <_dtoa_r+0x148c>
   15310:	00812703          	lw	a4,8(sp)
   15314:	43378793          	addi	a5,a5,1075
   15318:	00fb0b33          	add	s6,s6,a5
   1531c:	00f707b3          	add	a5,a4,a5
   15320:	02c12b83          	lw	s7,44(sp)
   15324:	00070c93          	mv	s9,a4
   15328:	00f12423          	sw	a5,8(sp)
   1532c:	f61ff06f          	j	1528c <_dtoa_r+0x10cc>
   15330:	03100793          	li	a5,49
   15334:	00fa8023          	sb	a5,0(s5)
   15338:	001c0c13          	addi	s8,s8,1
   1533c:	a51ff06f          	j	14d8c <_dtoa_r+0xbcc>
   15340:	01c12783          	lw	a5,28(sp)
   15344:	3c078c63          	beqz	a5,1571c <_dtoa_r+0x155c>
   15348:	40f00cb3          	neg	s9,a5
   1534c:	00fcf793          	andi	a5,s9,15
   15350:	00379793          	slli	a5,a5,0x3
   15354:	0000d917          	auipc	s2,0xd
   15358:	d8490913          	addi	s2,s2,-636 # 220d8 <__mprec_tens>
   1535c:	00f907b3          	add	a5,s2,a5
   15360:	0007a603          	lw	a2,0(a5)
   15364:	0047a683          	lw	a3,4(a5)
   15368:	01412503          	lw	a0,20(sp)
   1536c:	01812583          	lw	a1,24(sp)
   15370:	404cdc93          	srai	s9,s9,0x4
   15374:	4350a0ef          	jal	ra,1ffa8 <__muldf3>
   15378:	480c8863          	beqz	s9,15808 <_dtoa_r+0x1648>
   1537c:	00200913          	li	s2,2
   15380:	000d8713          	mv	a4,s11
   15384:	0000d817          	auipc	a6,0xd
   15388:	d2c80813          	addi	a6,a6,-724 # 220b0 <__mprec_bigtens>
   1538c:	02912c23          	sw	s1,56(sp)
   15390:	04812223          	sw	s0,68(sp)
   15394:	00050793          	mv	a5,a0
   15398:	00090413          	mv	s0,s2
   1539c:	00000693          	li	a3,0
   153a0:	00080493          	mv	s1,a6
   153a4:	00050913          	mv	s2,a0
   153a8:	00058d93          	mv	s11,a1
   153ac:	00070b93          	mv	s7,a4
   153b0:	001cf713          	andi	a4,s9,1
   153b4:	02070063          	beqz	a4,153d4 <_dtoa_r+0x1214>
   153b8:	0044a683          	lw	a3,4(s1)
   153bc:	0004a603          	lw	a2,0(s1)
   153c0:	00078513          	mv	a0,a5
   153c4:	00140413          	addi	s0,s0,1
   153c8:	3e10a0ef          	jal	ra,1ffa8 <__muldf3>
   153cc:	00050793          	mv	a5,a0
   153d0:	00100693          	li	a3,1
   153d4:	401cdc93          	srai	s9,s9,0x1
   153d8:	00848493          	addi	s1,s1,8
   153dc:	fc0c9ae3          	bnez	s9,153b0 <_dtoa_r+0x11f0>
   153e0:	000b8713          	mv	a4,s7
   153e4:	00090513          	mv	a0,s2
   153e8:	00058b93          	mv	s7,a1
   153ec:	00040913          	mv	s2,s0
   153f0:	000d8593          	mv	a1,s11
   153f4:	03812483          	lw	s1,56(sp)
   153f8:	04412403          	lw	s0,68(sp)
   153fc:	00070d93          	mv	s11,a4
   15400:	a2069863          	bnez	a3,14630 <_dtoa_r+0x470>
   15404:	00050793          	mv	a5,a0
   15408:	00058b93          	mv	s7,a1
   1540c:	a24ff06f          	j	14630 <_dtoa_r+0x470>
   15410:	00070613          	mv	a2,a4
   15414:	00070513          	mv	a0,a4
   15418:	00068593          	mv	a1,a3
   1541c:	7a4090ef          	jal	ra,1ebc0 <__adddf3>
   15420:	01c12783          	lw	a5,28(sp)
   15424:	00090613          	mv	a2,s2
   15428:	00098693          	mv	a3,s3
   1542c:	00178c13          	addi	s8,a5,1
   15430:	00050b13          	mv	s6,a0
   15434:	00058a13          	mv	s4,a1
   15438:	16d0a0ef          	jal	ra,1fda4 <__gedf2>
   1543c:	000c0c93          	mv	s9,s8
   15440:	c6a04663          	bgtz	a0,148ac <_dtoa_r+0x6ec>
   15444:	000b0513          	mv	a0,s6
   15448:	000a0593          	mv	a1,s4
   1544c:	00090613          	mv	a2,s2
   15450:	00098693          	mv	a3,s3
   15454:	0c50a0ef          	jal	ra,1fd18 <__eqdf2>
   15458:	00051663          	bnez	a0,15464 <_dtoa_r+0x12a4>
   1545c:	001d7d13          	andi	s10,s10,1
   15460:	c40d1663          	bnez	s10,148ac <_dtoa_r+0x6ec>
   15464:	000b8713          	mv	a4,s7
   15468:	969ff06f          	j	14dd0 <_dtoa_r+0xc10>
   1546c:	00492583          	lw	a1,4(s2)
   15470:	00040513          	mv	a0,s0
   15474:	48d020ef          	jal	ra,18100 <_Balloc>
   15478:	00050b13          	mv	s6,a0
   1547c:	3e050e63          	beqz	a0,15878 <_dtoa_r+0x16b8>
   15480:	01092603          	lw	a2,16(s2)
   15484:	00c90593          	addi	a1,s2,12
   15488:	00c50513          	addi	a0,a0,12
   1548c:	00260613          	addi	a2,a2,2
   15490:	00261613          	slli	a2,a2,0x2
   15494:	2c9020ef          	jal	ra,17f5c <memcpy>
   15498:	000b0593          	mv	a1,s6
   1549c:	00100613          	li	a2,1
   154a0:	00040513          	mv	a0,s0
   154a4:	5dc030ef          	jal	ra,18a80 <__lshift>
   154a8:	00050b13          	mv	s6,a0
   154ac:	aa9ff06f          	j	14f54 <_dtoa_r+0xd94>
   154b0:	00090593          	mv	a1,s2
   154b4:	000b8613          	mv	a2,s7
   154b8:	00040513          	mv	a0,s0
   154bc:	474030ef          	jal	ra,18930 <__pow5mult>
   154c0:	00048613          	mv	a2,s1
   154c4:	00050593          	mv	a1,a0
   154c8:	00050913          	mv	s2,a0
   154cc:	00040513          	mv	a0,s0
   154d0:	1b4030ef          	jal	ra,18684 <__multiply>
   154d4:	02c12783          	lw	a5,44(sp)
   154d8:	00a12a23          	sw	a0,20(sp)
   154dc:	00048593          	mv	a1,s1
   154e0:	41778bb3          	sub	s7,a5,s7
   154e4:	00040513          	mv	a0,s0
   154e8:	03712623          	sw	s7,44(sp)
   154ec:	4bd020ef          	jal	ra,181a8 <_Bfree>
   154f0:	01412783          	lw	a5,20(sp)
   154f4:	00078493          	mv	s1,a5
   154f8:	f60b8663          	beqz	s7,14c64 <_dtoa_r+0xaa4>
   154fc:	f54ff06f          	j	14c50 <_dtoa_r+0xa90>
   15500:	05012603          	lw	a2,80(sp)
   15504:	05412683          	lw	a3,84(sp)
   15508:	04b12423          	sw	a1,72(sp)
   1550c:	00078513          	mv	a0,a5
   15510:	000b8593          	mv	a1,s7
   15514:	03012a23          	sw	a6,52(sp)
   15518:	02e12023          	sw	a4,32(sp)
   1551c:	28d0a0ef          	jal	ra,1ffa8 <__muldf3>
   15520:	03412803          	lw	a6,52(sp)
   15524:	04412783          	lw	a5,68(sp)
   15528:	00100693          	li	a3,1
   1552c:	010a8023          	sb	a6,0(s5)
   15530:	02a12a23          	sw	a0,52(sp)
   15534:	02b12c23          	sw	a1,56(sp)
   15538:	02012703          	lw	a4,32(sp)
   1553c:	04812883          	lw	a7,72(sp)
   15540:	00fa8bb3          	add	s7,s5,a5
   15544:	0000e617          	auipc	a2,0xe
   15548:	58460613          	addi	a2,a2,1412 # 23ac8 <__SDATA_BEGIN__+0x48>
   1554c:	2ad78a63          	beq	a5,a3,15800 <_dtoa_r+0x1640>
   15550:	00062783          	lw	a5,0(a2)
   15554:	00462803          	lw	a6,4(a2)
   15558:	04812423          	sw	s0,72(sp)
   1555c:	02f12023          	sw	a5,32(sp)
   15560:	03012223          	sw	a6,36(sp)
   15564:	04912223          	sw	s1,68(sp)
   15568:	00070413          	mv	s0,a4
   1556c:	05212623          	sw	s2,76(sp)
   15570:	000c8513          	mv	a0,s9
   15574:	00088593          	mv	a1,a7
   15578:	02012603          	lw	a2,32(sp)
   1557c:	02412683          	lw	a3,36(sp)
   15580:	00140413          	addi	s0,s0,1
   15584:	2250a0ef          	jal	ra,1ffa8 <__muldf3>
   15588:	00058493          	mv	s1,a1
   1558c:	00050913          	mv	s2,a0
   15590:	35d0b0ef          	jal	ra,210ec <__fixdfsi>
   15594:	00050c93          	mv	s9,a0
   15598:	3d90b0ef          	jal	ra,21170 <__floatsidf>
   1559c:	00050613          	mv	a2,a0
   155a0:	00058693          	mv	a3,a1
   155a4:	00090513          	mv	a0,s2
   155a8:	00048593          	mv	a1,s1
   155ac:	030c8c93          	addi	s9,s9,48
   155b0:	1d40b0ef          	jal	ra,20784 <__subdf3>
   155b4:	ff940fa3          	sb	s9,-1(s0)
   155b8:	fd7410e3          	bne	s0,s7,15578 <_dtoa_r+0x13b8>
   155bc:	04412483          	lw	s1,68(sp)
   155c0:	04812403          	lw	s0,72(sp)
   155c4:	04c12903          	lw	s2,76(sp)
   155c8:	00050c93          	mv	s9,a0
   155cc:	00058893          	mv	a7,a1
   155d0:	0000e797          	auipc	a5,0xe
   155d4:	4c878793          	addi	a5,a5,1224 # 23a98 <__SDATA_BEGIN__+0x18>
   155d8:	0007a603          	lw	a2,0(a5)
   155dc:	0047a683          	lw	a3,4(a5)
   155e0:	03412503          	lw	a0,52(sp)
   155e4:	03812583          	lw	a1,56(sp)
   155e8:	03112023          	sw	a7,32(sp)
   155ec:	5d4090ef          	jal	ra,1ebc0 <__adddf3>
   155f0:	02012883          	lw	a7,32(sp)
   155f4:	000c8613          	mv	a2,s9
   155f8:	00088693          	mv	a3,a7
   155fc:	0ad0a0ef          	jal	ra,1fea8 <__ledf2>
   15600:	18054063          	bltz	a0,15780 <_dtoa_r+0x15c0>
   15604:	0000e797          	auipc	a5,0xe
   15608:	49478793          	addi	a5,a5,1172 # 23a98 <__SDATA_BEGIN__+0x18>
   1560c:	03412603          	lw	a2,52(sp)
   15610:	03812683          	lw	a3,56(sp)
   15614:	0007a503          	lw	a0,0(a5)
   15618:	0047a583          	lw	a1,4(a5)
   1561c:	1680b0ef          	jal	ra,20784 <__subdf3>
   15620:	02012883          	lw	a7,32(sp)
   15624:	000c8613          	mv	a2,s9
   15628:	00088693          	mv	a3,a7
   1562c:	7780a0ef          	jal	ra,1fda4 <__gedf2>
   15630:	16a04a63          	bgtz	a0,157a4 <_dtoa_r+0x15e4>
   15634:	06c12783          	lw	a5,108(sp)
   15638:	dc07c863          	bltz	a5,14c08 <_dtoa_r+0xa48>
   1563c:	01c12703          	lw	a4,28(sp)
   15640:	00e00793          	li	a5,14
   15644:	dce7c263          	blt	a5,a4,14c08 <_dtoa_r+0xa48>
   15648:	c2cff06f          	j	14a74 <_dtoa_r+0x8b4>
   1564c:	06812703          	lw	a4,104(sp)
   15650:	00812683          	lw	a3,8(sp)
   15654:	03600793          	li	a5,54
   15658:	40e787b3          	sub	a5,a5,a4
   1565c:	00fb0b33          	add	s6,s6,a5
   15660:	00f687b3          	add	a5,a3,a5
   15664:	02c12b83          	lw	s7,44(sp)
   15668:	00068c93          	mv	s9,a3
   1566c:	00f12423          	sw	a5,8(sp)
   15670:	c1dff06f          	j	1528c <_dtoa_r+0x10cc>
   15674:	01c12783          	lw	a5,28(sp)
   15678:	000a8d13          	mv	s10,s5
   1567c:	00090993          	mv	s3,s2
   15680:	01412a83          	lw	s5,20(sp)
   15684:	00178c13          	addi	s8,a5,1
   15688:	000b0913          	mv	s2,s6
   1568c:	ebcff06f          	j	14d48 <_dtoa_r+0xb88>
   15690:	b20a0263          	beqz	s4,149b4 <_dtoa_r+0x7f4>
   15694:	04012c83          	lw	s9,64(sp)
   15698:	bd905063          	blez	s9,14a58 <_dtoa_r+0x898>
   1569c:	0000e617          	auipc	a2,0xe
   156a0:	42c60613          	addi	a2,a2,1068 # 23ac8 <__SDATA_BEGIN__+0x48>
   156a4:	00462683          	lw	a3,4(a2)
   156a8:	00062603          	lw	a2,0(a2)
   156ac:	00078513          	mv	a0,a5
   156b0:	000b8593          	mv	a1,s7
   156b4:	0f50a0ef          	jal	ra,1ffa8 <__muldf3>
   156b8:	00050793          	mv	a5,a0
   156bc:	00190513          	addi	a0,s2,1
   156c0:	02f12c23          	sw	a5,56(sp)
   156c4:	00058b93          	mv	s7,a1
   156c8:	2a90b0ef          	jal	ra,21170 <__floatsidf>
   156cc:	03812783          	lw	a5,56(sp)
   156d0:	000b8693          	mv	a3,s7
   156d4:	00078613          	mv	a2,a5
   156d8:	04f12423          	sw	a5,72(sp)
   156dc:	0cd0a0ef          	jal	ra,1ffa8 <__muldf3>
   156e0:	0000e717          	auipc	a4,0xe
   156e4:	3f070713          	addi	a4,a4,1008 # 23ad0 <__SDATA_BEGIN__+0x50>
   156e8:	01c12783          	lw	a5,28(sp)
   156ec:	00072603          	lw	a2,0(a4)
   156f0:	00472683          	lw	a3,4(a4)
   156f4:	fff78793          	addi	a5,a5,-1
   156f8:	04f12c23          	sw	a5,88(sp)
   156fc:	05912223          	sw	s9,68(sp)
   15700:	4c0090ef          	jal	ra,1ebc0 <__adddf3>
   15704:	fcc00737          	lui	a4,0xfcc00
   15708:	00b707b3          	add	a5,a4,a1
   1570c:	02f12c23          	sw	a5,56(sp)
   15710:	00050c93          	mv	s9,a0
   15714:	04812783          	lw	a5,72(sp)
   15718:	fa5fe06f          	j	146bc <_dtoa_r+0x4fc>
   1571c:	01412783          	lw	a5,20(sp)
   15720:	01812b83          	lw	s7,24(sp)
   15724:	00200913          	li	s2,2
   15728:	f09fe06f          	j	14630 <_dtoa_r+0x470>
   1572c:	03100693          	li	a3,49
   15730:	001c8c93          	addi	s9,s9,1
   15734:	99cff06f          	j	148d0 <_dtoa_r+0x710>
   15738:	00000b93          	li	s7,0
   1573c:	00000913          	li	s2,0
   15740:	a11ff06f          	j	15150 <_dtoa_r+0xf90>
   15744:	000b0713          	mv	a4,s6
   15748:	05812783          	lw	a5,88(sp)
   1574c:	00178c13          	addi	s8,a5,1
   15750:	e80ff06f          	j	14dd0 <_dtoa_r+0xc10>
   15754:	000a8d13          	mv	s10,s5
   15758:	03900713          	li	a4,57
   1575c:	01412a83          	lw	s5,20(sp)
   15760:	b8ed00e3          	beq	s10,a4,152e0 <_dtoa_r+0x1120>
   15764:	934048e3          	bgtz	s4,15094 <_dtoa_r+0xed4>
   15768:	931ff06f          	j	15098 <_dtoa_r+0xed8>
   1576c:	000a8d13          	mv	s10,s5
   15770:	01412a83          	lw	s5,20(sp)
   15774:	925ff06f          	j	15098 <_dtoa_r+0xed8>
   15778:	00070c13          	mv	s8,a4
   1577c:	a29ff06f          	j	151a4 <_dtoa_r+0xfe4>
   15780:	05812783          	lw	a5,88(sp)
   15784:	00178c93          	addi	s9,a5,1
   15788:	924ff06f          	j	148ac <_dtoa_r+0x6ec>
   1578c:	04812c03          	lw	s8,72(sp)
   15790:	04c12b03          	lw	s6,76(sp)
   15794:	05012a03          	lw	s4,80(sp)
   15798:	04412983          	lw	s3,68(sp)
   1579c:	05c12d03          	lw	s10,92(sp)
   157a0:	ab8ff06f          	j	14a58 <_dtoa_r+0x898>
   157a4:	03000613          	li	a2,48
   157a8:	fffbc783          	lbu	a5,-1(s7)
   157ac:	000b8713          	mv	a4,s7
   157b0:	fffb8b93          	addi	s7,s7,-1
   157b4:	fec78ae3          	beq	a5,a2,157a8 <_dtoa_r+0x15e8>
   157b8:	f91ff06f          	j	15748 <_dtoa_r+0x1588>
   157bc:	00200793          	li	a5,2
   157c0:	0337c063          	blt	a5,s3,157e0 <_dtoa_r+0x1620>
   157c4:	000b8593          	mv	a1,s7
   157c8:	fc4fe0ef          	jal	ra,13f8c <quorem>
   157cc:	03050d13          	addi	s10,a0,48
   157d0:	01c12c03          	lw	s8,28(sp)
   157d4:	04012a03          	lw	s4,64(sp)
   157d8:	01aa8023          	sb	s10,0(s5)
   157dc:	d58ff06f          	j	14d34 <_dtoa_r+0xb74>
   157e0:	01412e23          	sw	s4,28(sp)
   157e4:	04012a03          	lw	s4,64(sp)
   157e8:	931ff06f          	j	15118 <_dtoa_r+0xf58>
   157ec:	00200793          	li	a5,2
   157f0:	ff37c8e3          	blt	a5,s3,157e0 <_dtoa_r+0x1620>
   157f4:	01412e23          	sw	s4,28(sp)
   157f8:	04012a03          	lw	s4,64(sp)
   157fc:	f38ff06f          	j	14f34 <_dtoa_r+0xd74>
   15800:	00070b93          	mv	s7,a4
   15804:	dcdff06f          	j	155d0 <_dtoa_r+0x1410>
   15808:	00050793          	mv	a5,a0
   1580c:	00058b93          	mv	s7,a1
   15810:	00200913          	li	s2,2
   15814:	e1dfe06f          	j	14630 <_dtoa_r+0x470>
   15818:	0000c697          	auipc	a3,0xc
   1581c:	27068693          	addi	a3,a3,624 # 21a88 <blanks.1+0x20>
   15820:	00000613          	li	a2,0
   15824:	1aa00593          	li	a1,426
   15828:	0000c517          	auipc	a0,0xc
   1582c:	27450513          	addi	a0,a0,628 # 21a9c <blanks.1+0x34>
   15830:	73c060ef          	jal	ra,1bf6c <__assert_func>
   15834:	04042223          	sw	zero,68(s0)
   15838:	00000593          	li	a1,0
   1583c:	cddfe06f          	j	14518 <_dtoa_r+0x358>
   15840:	04042223          	sw	zero,68(s0)
   15844:	00000593          	li	a1,0
   15848:	00040513          	mv	a0,s0
   1584c:	0b5020ef          	jal	ra,18100 <_Balloc>
   15850:	00050a93          	mv	s5,a0
   15854:	fc0502e3          	beqz	a0,15818 <_dtoa_r+0x1658>
   15858:	00100793          	li	a5,1
   1585c:	02f12023          	sw	a5,32(sp)
   15860:	fff00793          	li	a5,-1
   15864:	04a42023          	sw	a0,64(s0)
   15868:	04f12023          	sw	a5,64(sp)
   1586c:	00012823          	sw	zero,16(sp)
   15870:	fff00a13          	li	s4,-1
   15874:	9e4ff06f          	j	14a58 <_dtoa_r+0x898>
   15878:	0000c697          	auipc	a3,0xc
   1587c:	21068693          	addi	a3,a3,528 # 21a88 <blanks.1+0x20>
   15880:	00000613          	li	a2,0
   15884:	2ea00593          	li	a1,746
   15888:	0000c517          	auipc	a0,0xc
   1588c:	21450513          	addi	a0,a0,532 # 21a9c <blanks.1+0x34>
   15890:	6dc060ef          	jal	ra,1bf6c <__assert_func>
   15894:	000a8d13          	mv	s10,s5
   15898:	01412a83          	lw	s5,20(sp)
   1589c:	ffb05e63          	blez	s11,15098 <_dtoa_r+0xed8>
   158a0:	fccff06f          	j	1506c <_dtoa_r+0xeac>

000158a4 <__sflush_r>:
   158a4:	00c59783          	lh	a5,12(a1)
   158a8:	fe010113          	addi	sp,sp,-32
   158ac:	00812c23          	sw	s0,24(sp)
   158b0:	01312623          	sw	s3,12(sp)
   158b4:	00112e23          	sw	ra,28(sp)
   158b8:	00912a23          	sw	s1,20(sp)
   158bc:	01212823          	sw	s2,16(sp)
   158c0:	0087f713          	andi	a4,a5,8
   158c4:	00058413          	mv	s0,a1
   158c8:	00050993          	mv	s3,a0
   158cc:	12071263          	bnez	a4,159f0 <__sflush_r+0x14c>
   158d0:	00001737          	lui	a4,0x1
   158d4:	80070713          	addi	a4,a4,-2048 # 800 <exit-0xf894>
   158d8:	0045a683          	lw	a3,4(a1)
   158dc:	00e7e733          	or	a4,a5,a4
   158e0:	00e59623          	sh	a4,12(a1)
   158e4:	18d05863          	blez	a3,15a74 <__sflush_r+0x1d0>
   158e8:	02842803          	lw	a6,40(s0)
   158ec:	0e080263          	beqz	a6,159d0 <__sflush_r+0x12c>
   158f0:	00c7d793          	srli	a5,a5,0xc
   158f4:	0009a483          	lw	s1,0(s3)
   158f8:	0017f793          	andi	a5,a5,1
   158fc:	0009a023          	sw	zero,0(s3)
   15900:	01c42583          	lw	a1,28(s0)
   15904:	18079063          	bnez	a5,15a84 <__sflush_r+0x1e0>
   15908:	00000613          	li	a2,0
   1590c:	00100693          	li	a3,1
   15910:	00098513          	mv	a0,s3
   15914:	000800e7          	jalr	a6
   15918:	fff00793          	li	a5,-1
   1591c:	00050613          	mv	a2,a0
   15920:	1af50063          	beq	a0,a5,15ac0 <__sflush_r+0x21c>
   15924:	00c41703          	lh	a4,12(s0)
   15928:	02842803          	lw	a6,40(s0)
   1592c:	01c42583          	lw	a1,28(s0)
   15930:	00477713          	andi	a4,a4,4
   15934:	00070e63          	beqz	a4,15950 <__sflush_r+0xac>
   15938:	00442703          	lw	a4,4(s0)
   1593c:	03042783          	lw	a5,48(s0)
   15940:	40e60633          	sub	a2,a2,a4
   15944:	00078663          	beqz	a5,15950 <__sflush_r+0xac>
   15948:	03c42783          	lw	a5,60(s0)
   1594c:	40f60633          	sub	a2,a2,a5
   15950:	00000693          	li	a3,0
   15954:	00098513          	mv	a0,s3
   15958:	000800e7          	jalr	a6
   1595c:	fff00793          	li	a5,-1
   15960:	12f51663          	bne	a0,a5,15a8c <__sflush_r+0x1e8>
   15964:	0009a683          	lw	a3,0(s3)
   15968:	01d00793          	li	a5,29
   1596c:	0cd7ee63          	bltu	a5,a3,15a48 <__sflush_r+0x1a4>
   15970:	dfc00737          	lui	a4,0xdfc00
   15974:	ffe70713          	addi	a4,a4,-2 # dfbffffe <__BSS_END__+0xdfbdc1ce>
   15978:	40d75733          	sra	a4,a4,a3
   1597c:	00177713          	andi	a4,a4,1
   15980:	00c41783          	lh	a5,12(s0)
   15984:	0c071463          	bnez	a4,15a4c <__sflush_r+0x1a8>
   15988:	01042603          	lw	a2,16(s0)
   1598c:	fffff737          	lui	a4,0xfffff
   15990:	7ff70713          	addi	a4,a4,2047 # fffff7ff <__BSS_END__+0xfffdb9cf>
   15994:	00e7f733          	and	a4,a5,a4
   15998:	00c7d793          	srli	a5,a5,0xc
   1599c:	00e41623          	sh	a4,12(s0)
   159a0:	00042223          	sw	zero,4(s0)
   159a4:	00c42023          	sw	a2,0(s0)
   159a8:	0017f793          	andi	a5,a5,1
   159ac:	12079c63          	bnez	a5,15ae4 <__sflush_r+0x240>
   159b0:	03042583          	lw	a1,48(s0)
   159b4:	0099a023          	sw	s1,0(s3)
   159b8:	00058c63          	beqz	a1,159d0 <__sflush_r+0x12c>
   159bc:	04040793          	addi	a5,s0,64
   159c0:	00f58663          	beq	a1,a5,159cc <__sflush_r+0x128>
   159c4:	00098513          	mv	a0,s3
   159c8:	075000ef          	jal	ra,1623c <_free_r>
   159cc:	02042823          	sw	zero,48(s0)
   159d0:	00000513          	li	a0,0
   159d4:	01c12083          	lw	ra,28(sp)
   159d8:	01812403          	lw	s0,24(sp)
   159dc:	01412483          	lw	s1,20(sp)
   159e0:	01012903          	lw	s2,16(sp)
   159e4:	00c12983          	lw	s3,12(sp)
   159e8:	02010113          	addi	sp,sp,32
   159ec:	00008067          	ret
   159f0:	0105a903          	lw	s2,16(a1)
   159f4:	fc090ee3          	beqz	s2,159d0 <__sflush_r+0x12c>
   159f8:	0005a483          	lw	s1,0(a1)
   159fc:	0037f793          	andi	a5,a5,3
   15a00:	0125a023          	sw	s2,0(a1)
   15a04:	412484b3          	sub	s1,s1,s2
   15a08:	00000713          	li	a4,0
   15a0c:	00079463          	bnez	a5,15a14 <__sflush_r+0x170>
   15a10:	0145a703          	lw	a4,20(a1)
   15a14:	00e42423          	sw	a4,8(s0)
   15a18:	00904863          	bgtz	s1,15a28 <__sflush_r+0x184>
   15a1c:	fb5ff06f          	j	159d0 <__sflush_r+0x12c>
   15a20:	00a90933          	add	s2,s2,a0
   15a24:	fa9056e3          	blez	s1,159d0 <__sflush_r+0x12c>
   15a28:	02442783          	lw	a5,36(s0)
   15a2c:	01c42583          	lw	a1,28(s0)
   15a30:	00048693          	mv	a3,s1
   15a34:	00090613          	mv	a2,s2
   15a38:	00098513          	mv	a0,s3
   15a3c:	000780e7          	jalr	a5
   15a40:	40a484b3          	sub	s1,s1,a0
   15a44:	fca04ee3          	bgtz	a0,15a20 <__sflush_r+0x17c>
   15a48:	00c41783          	lh	a5,12(s0)
   15a4c:	0407e793          	ori	a5,a5,64
   15a50:	01c12083          	lw	ra,28(sp)
   15a54:	00f41623          	sh	a5,12(s0)
   15a58:	01812403          	lw	s0,24(sp)
   15a5c:	01412483          	lw	s1,20(sp)
   15a60:	01012903          	lw	s2,16(sp)
   15a64:	00c12983          	lw	s3,12(sp)
   15a68:	fff00513          	li	a0,-1
   15a6c:	02010113          	addi	sp,sp,32
   15a70:	00008067          	ret
   15a74:	03c5a683          	lw	a3,60(a1)
   15a78:	e6d048e3          	bgtz	a3,158e8 <__sflush_r+0x44>
   15a7c:	00000513          	li	a0,0
   15a80:	f55ff06f          	j	159d4 <__sflush_r+0x130>
   15a84:	05042603          	lw	a2,80(s0)
   15a88:	ea9ff06f          	j	15930 <__sflush_r+0x8c>
   15a8c:	00c41783          	lh	a5,12(s0)
   15a90:	01042683          	lw	a3,16(s0)
   15a94:	fffff737          	lui	a4,0xfffff
   15a98:	7ff70713          	addi	a4,a4,2047 # fffff7ff <__BSS_END__+0xfffdb9cf>
   15a9c:	00e7f733          	and	a4,a5,a4
   15aa0:	00c7d793          	srli	a5,a5,0xc
   15aa4:	00e41623          	sh	a4,12(s0)
   15aa8:	00042223          	sw	zero,4(s0)
   15aac:	00d42023          	sw	a3,0(s0)
   15ab0:	0017f793          	andi	a5,a5,1
   15ab4:	ee078ee3          	beqz	a5,159b0 <__sflush_r+0x10c>
   15ab8:	04a42823          	sw	a0,80(s0)
   15abc:	ef5ff06f          	j	159b0 <__sflush_r+0x10c>
   15ac0:	0009a783          	lw	a5,0(s3)
   15ac4:	e60780e3          	beqz	a5,15924 <__sflush_r+0x80>
   15ac8:	01d00713          	li	a4,29
   15acc:	00e78663          	beq	a5,a4,15ad8 <__sflush_r+0x234>
   15ad0:	01600713          	li	a4,22
   15ad4:	f6e79ae3          	bne	a5,a4,15a48 <__sflush_r+0x1a4>
   15ad8:	0099a023          	sw	s1,0(s3)
   15adc:	00000513          	li	a0,0
   15ae0:	ef5ff06f          	j	159d4 <__sflush_r+0x130>
   15ae4:	ec0696e3          	bnez	a3,159b0 <__sflush_r+0x10c>
   15ae8:	04a42823          	sw	a0,80(s0)
   15aec:	ec5ff06f          	j	159b0 <__sflush_r+0x10c>

00015af0 <_fflush_r>:
   15af0:	ff010113          	addi	sp,sp,-16
   15af4:	00812423          	sw	s0,8(sp)
   15af8:	00912223          	sw	s1,4(sp)
   15afc:	00112623          	sw	ra,12(sp)
   15b00:	01212023          	sw	s2,0(sp)
   15b04:	00050493          	mv	s1,a0
   15b08:	00058413          	mv	s0,a1
   15b0c:	00050663          	beqz	a0,15b18 <_fflush_r+0x28>
   15b10:	03852783          	lw	a5,56(a0)
   15b14:	06078463          	beqz	a5,15b7c <_fflush_r+0x8c>
   15b18:	00c41783          	lh	a5,12(s0)
   15b1c:	00000913          	li	s2,0
   15b20:	04078063          	beqz	a5,15b60 <_fflush_r+0x70>
   15b24:	06442703          	lw	a4,100(s0)
   15b28:	00177713          	andi	a4,a4,1
   15b2c:	00071663          	bnez	a4,15b38 <_fflush_r+0x48>
   15b30:	2007f793          	andi	a5,a5,512
   15b34:	04078863          	beqz	a5,15b84 <_fflush_r+0x94>
   15b38:	00040593          	mv	a1,s0
   15b3c:	00048513          	mv	a0,s1
   15b40:	d65ff0ef          	jal	ra,158a4 <__sflush_r>
   15b44:	06442783          	lw	a5,100(s0)
   15b48:	00050913          	mv	s2,a0
   15b4c:	0017f793          	andi	a5,a5,1
   15b50:	00079863          	bnez	a5,15b60 <_fflush_r+0x70>
   15b54:	00c45783          	lhu	a5,12(s0)
   15b58:	2007f793          	andi	a5,a5,512
   15b5c:	04078863          	beqz	a5,15bac <_fflush_r+0xbc>
   15b60:	00c12083          	lw	ra,12(sp)
   15b64:	00812403          	lw	s0,8(sp)
   15b68:	00412483          	lw	s1,4(sp)
   15b6c:	00090513          	mv	a0,s2
   15b70:	00012903          	lw	s2,0(sp)
   15b74:	01010113          	addi	sp,sp,16
   15b78:	00008067          	ret
   15b7c:	22c000ef          	jal	ra,15da8 <__sinit>
   15b80:	f99ff06f          	j	15b18 <_fflush_r+0x28>
   15b84:	05842503          	lw	a0,88(s0)
   15b88:	7a8010ef          	jal	ra,17330 <__retarget_lock_acquire_recursive>
   15b8c:	00040593          	mv	a1,s0
   15b90:	00048513          	mv	a0,s1
   15b94:	d11ff0ef          	jal	ra,158a4 <__sflush_r>
   15b98:	06442783          	lw	a5,100(s0)
   15b9c:	00050913          	mv	s2,a0
   15ba0:	0017f793          	andi	a5,a5,1
   15ba4:	fa079ee3          	bnez	a5,15b60 <_fflush_r+0x70>
   15ba8:	fadff06f          	j	15b54 <_fflush_r+0x64>
   15bac:	05842503          	lw	a0,88(s0)
   15bb0:	798010ef          	jal	ra,17348 <__retarget_lock_release_recursive>
   15bb4:	00c12083          	lw	ra,12(sp)
   15bb8:	00812403          	lw	s0,8(sp)
   15bbc:	00412483          	lw	s1,4(sp)
   15bc0:	00090513          	mv	a0,s2
   15bc4:	00012903          	lw	s2,0(sp)
   15bc8:	01010113          	addi	sp,sp,16
   15bcc:	00008067          	ret

00015bd0 <fflush>:
   15bd0:	0a050a63          	beqz	a0,15c84 <fflush+0xb4>
   15bd4:	ff010113          	addi	sp,sp,-16
   15bd8:	00812423          	sw	s0,8(sp)
   15bdc:	01212023          	sw	s2,0(sp)
   15be0:	00112623          	sw	ra,12(sp)
   15be4:	00912223          	sw	s1,4(sp)
   15be8:	2301a903          	lw	s2,560(gp) # 23af0 <_impure_ptr>
   15bec:	00050413          	mv	s0,a0
   15bf0:	00090663          	beqz	s2,15bfc <fflush+0x2c>
   15bf4:	03892783          	lw	a5,56(s2)
   15bf8:	06078463          	beqz	a5,15c60 <fflush+0x90>
   15bfc:	00c41783          	lh	a5,12(s0)
   15c00:	00000493          	li	s1,0
   15c04:	04078063          	beqz	a5,15c44 <fflush+0x74>
   15c08:	06442703          	lw	a4,100(s0)
   15c0c:	00177713          	andi	a4,a4,1
   15c10:	00071663          	bnez	a4,15c1c <fflush+0x4c>
   15c14:	2007f793          	andi	a5,a5,512
   15c18:	04078a63          	beqz	a5,15c6c <fflush+0x9c>
   15c1c:	00040593          	mv	a1,s0
   15c20:	00090513          	mv	a0,s2
   15c24:	c81ff0ef          	jal	ra,158a4 <__sflush_r>
   15c28:	06442783          	lw	a5,100(s0)
   15c2c:	00050493          	mv	s1,a0
   15c30:	0017f793          	andi	a5,a5,1
   15c34:	00079863          	bnez	a5,15c44 <fflush+0x74>
   15c38:	00c45783          	lhu	a5,12(s0)
   15c3c:	2007f793          	andi	a5,a5,512
   15c40:	02078c63          	beqz	a5,15c78 <fflush+0xa8>
   15c44:	00c12083          	lw	ra,12(sp)
   15c48:	00812403          	lw	s0,8(sp)
   15c4c:	00012903          	lw	s2,0(sp)
   15c50:	00048513          	mv	a0,s1
   15c54:	00412483          	lw	s1,4(sp)
   15c58:	01010113          	addi	sp,sp,16
   15c5c:	00008067          	ret
   15c60:	00090513          	mv	a0,s2
   15c64:	144000ef          	jal	ra,15da8 <__sinit>
   15c68:	f95ff06f          	j	15bfc <fflush+0x2c>
   15c6c:	05842503          	lw	a0,88(s0)
   15c70:	6c0010ef          	jal	ra,17330 <__retarget_lock_acquire_recursive>
   15c74:	fa9ff06f          	j	15c1c <fflush+0x4c>
   15c78:	05842503          	lw	a0,88(s0)
   15c7c:	6cc010ef          	jal	ra,17348 <__retarget_lock_release_recursive>
   15c80:	fc5ff06f          	j	15c44 <fflush+0x74>
   15c84:	00000597          	auipc	a1,0x0
   15c88:	e6c58593          	addi	a1,a1,-404 # 15af0 <_fflush_r>
   15c8c:	2281a503          	lw	a0,552(gp) # 23ae8 <_global_impure_ptr>
   15c90:	1490006f          	j	165d8 <_fwalk_reent>

00015c94 <_cleanup_r>:
   15c94:	00006597          	auipc	a1,0x6
   15c98:	56458593          	addi	a1,a1,1380 # 1c1f8 <_fclose_r>
   15c9c:	13d0006f          	j	165d8 <_fwalk_reent>

00015ca0 <__fp_lock>:
   15ca0:	06452783          	lw	a5,100(a0)
   15ca4:	0017f793          	andi	a5,a5,1
   15ca8:	00079863          	bnez	a5,15cb8 <__fp_lock+0x18>
   15cac:	00c55783          	lhu	a5,12(a0)
   15cb0:	2007f793          	andi	a5,a5,512
   15cb4:	00078663          	beqz	a5,15cc0 <__fp_lock+0x20>
   15cb8:	00000513          	li	a0,0
   15cbc:	00008067          	ret
   15cc0:	05852503          	lw	a0,88(a0)
   15cc4:	ff010113          	addi	sp,sp,-16
   15cc8:	00112623          	sw	ra,12(sp)
   15ccc:	664010ef          	jal	ra,17330 <__retarget_lock_acquire_recursive>
   15cd0:	00c12083          	lw	ra,12(sp)
   15cd4:	00000513          	li	a0,0
   15cd8:	01010113          	addi	sp,sp,16
   15cdc:	00008067          	ret

00015ce0 <__fp_unlock>:
   15ce0:	06452783          	lw	a5,100(a0)
   15ce4:	0017f793          	andi	a5,a5,1
   15ce8:	00079863          	bnez	a5,15cf8 <__fp_unlock+0x18>
   15cec:	00c55783          	lhu	a5,12(a0)
   15cf0:	2007f793          	andi	a5,a5,512
   15cf4:	00078663          	beqz	a5,15d00 <__fp_unlock+0x20>
   15cf8:	00000513          	li	a0,0
   15cfc:	00008067          	ret
   15d00:	05852503          	lw	a0,88(a0)
   15d04:	ff010113          	addi	sp,sp,-16
   15d08:	00112623          	sw	ra,12(sp)
   15d0c:	63c010ef          	jal	ra,17348 <__retarget_lock_release_recursive>
   15d10:	00c12083          	lw	ra,12(sp)
   15d14:	00000513          	li	a0,0
   15d18:	01010113          	addi	sp,sp,16
   15d1c:	00008067          	ret

00015d20 <__sfmoreglue>:
   15d20:	ff010113          	addi	sp,sp,-16
   15d24:	fff58793          	addi	a5,a1,-1
   15d28:	00812423          	sw	s0,8(sp)
   15d2c:	00179413          	slli	s0,a5,0x1
   15d30:	00f40433          	add	s0,s0,a5
   15d34:	00241413          	slli	s0,s0,0x2
   15d38:	00f40433          	add	s0,s0,a5
   15d3c:	00341413          	slli	s0,s0,0x3
   15d40:	01212023          	sw	s2,0(sp)
   15d44:	00058913          	mv	s2,a1
   15d48:	07440593          	addi	a1,s0,116
   15d4c:	00912223          	sw	s1,4(sp)
   15d50:	00112623          	sw	ra,12(sp)
   15d54:	f3cfa0ef          	jal	ra,10490 <_malloc_r>
   15d58:	00050493          	mv	s1,a0
   15d5c:	02050063          	beqz	a0,15d7c <__sfmoreglue+0x5c>
   15d60:	00c50513          	addi	a0,a0,12
   15d64:	0004a023          	sw	zero,0(s1)
   15d68:	0124a223          	sw	s2,4(s1)
   15d6c:	00a4a423          	sw	a0,8(s1)
   15d70:	06840613          	addi	a2,s0,104
   15d74:	00000593          	li	a1,0
   15d78:	e99fa0ef          	jal	ra,10c10 <memset>
   15d7c:	00c12083          	lw	ra,12(sp)
   15d80:	00812403          	lw	s0,8(sp)
   15d84:	00012903          	lw	s2,0(sp)
   15d88:	00048513          	mv	a0,s1
   15d8c:	00412483          	lw	s1,4(sp)
   15d90:	01010113          	addi	sp,sp,16
   15d94:	00008067          	ret

00015d98 <_cleanup>:
   15d98:	00006597          	auipc	a1,0x6
   15d9c:	46058593          	addi	a1,a1,1120 # 1c1f8 <_fclose_r>
   15da0:	2281a503          	lw	a0,552(gp) # 23ae8 <_global_impure_ptr>
   15da4:	0350006f          	j	165d8 <_fwalk_reent>

00015da8 <__sinit>:
   15da8:	fe010113          	addi	sp,sp,-32
   15dac:	00912a23          	sw	s1,20(sp)
   15db0:	00050493          	mv	s1,a0
   15db4:	27818513          	addi	a0,gp,632 # 23b38 <__lock___sinit_recursive_mutex>
   15db8:	00112e23          	sw	ra,28(sp)
   15dbc:	00812c23          	sw	s0,24(sp)
   15dc0:	01212823          	sw	s2,16(sp)
   15dc4:	01312623          	sw	s3,12(sp)
   15dc8:	01412423          	sw	s4,8(sp)
   15dcc:	01512223          	sw	s5,4(sp)
   15dd0:	560010ef          	jal	ra,17330 <__retarget_lock_acquire_recursive>
   15dd4:	0384a783          	lw	a5,56(s1)
   15dd8:	14079863          	bnez	a5,15f28 <__sinit+0x180>
   15ddc:	0044a403          	lw	s0,4(s1)
   15de0:	00000717          	auipc	a4,0x0
   15de4:	eb470713          	addi	a4,a4,-332 # 15c94 <_cleanup_r>
   15de8:	02e4ae23          	sw	a4,60(s1)
   15dec:	2ec48793          	addi	a5,s1,748
   15df0:	00300713          	li	a4,3
   15df4:	2ee4a223          	sw	a4,740(s1)
   15df8:	2ef4a423          	sw	a5,744(s1)
   15dfc:	2e04a023          	sw	zero,736(s1)
   15e00:	00400793          	li	a5,4
   15e04:	00f42623          	sw	a5,12(s0)
   15e08:	00800613          	li	a2,8
   15e0c:	00000593          	li	a1,0
   15e10:	00042023          	sw	zero,0(s0)
   15e14:	00042223          	sw	zero,4(s0)
   15e18:	00042423          	sw	zero,8(s0)
   15e1c:	06042223          	sw	zero,100(s0)
   15e20:	00042823          	sw	zero,16(s0)
   15e24:	00042a23          	sw	zero,20(s0)
   15e28:	00042c23          	sw	zero,24(s0)
   15e2c:	05c40513          	addi	a0,s0,92
   15e30:	de1fa0ef          	jal	ra,10c10 <memset>
   15e34:	00003a97          	auipc	s5,0x3
   15e38:	7e0a8a93          	addi	s5,s5,2016 # 19614 <__sread>
   15e3c:	00004a17          	auipc	s4,0x4
   15e40:	83ca0a13          	addi	s4,s4,-1988 # 19678 <__swrite>
   15e44:	00004997          	auipc	s3,0x4
   15e48:	8bc98993          	addi	s3,s3,-1860 # 19700 <__sseek>
   15e4c:	00004917          	auipc	s2,0x4
   15e50:	92c90913          	addi	s2,s2,-1748 # 19778 <__sclose>
   15e54:	05840513          	addi	a0,s0,88
   15e58:	00842e23          	sw	s0,28(s0)
   15e5c:	03542023          	sw	s5,32(s0)
   15e60:	03442223          	sw	s4,36(s0)
   15e64:	03342423          	sw	s3,40(s0)
   15e68:	03242623          	sw	s2,44(s0)
   15e6c:	4b4010ef          	jal	ra,17320 <__retarget_lock_init_recursive>
   15e70:	0084a403          	lw	s0,8(s1)
   15e74:	000107b7          	lui	a5,0x10
   15e78:	00978793          	addi	a5,a5,9 # 10009 <exit-0x8b>
   15e7c:	00f42623          	sw	a5,12(s0)
   15e80:	00800613          	li	a2,8
   15e84:	00000593          	li	a1,0
   15e88:	00042023          	sw	zero,0(s0)
   15e8c:	00042223          	sw	zero,4(s0)
   15e90:	00042423          	sw	zero,8(s0)
   15e94:	06042223          	sw	zero,100(s0)
   15e98:	00042823          	sw	zero,16(s0)
   15e9c:	00042a23          	sw	zero,20(s0)
   15ea0:	00042c23          	sw	zero,24(s0)
   15ea4:	05c40513          	addi	a0,s0,92
   15ea8:	d69fa0ef          	jal	ra,10c10 <memset>
   15eac:	05840513          	addi	a0,s0,88
   15eb0:	00842e23          	sw	s0,28(s0)
   15eb4:	03542023          	sw	s5,32(s0)
   15eb8:	03442223          	sw	s4,36(s0)
   15ebc:	03342423          	sw	s3,40(s0)
   15ec0:	03242623          	sw	s2,44(s0)
   15ec4:	45c010ef          	jal	ra,17320 <__retarget_lock_init_recursive>
   15ec8:	00c4a403          	lw	s0,12(s1)
   15ecc:	000207b7          	lui	a5,0x20
   15ed0:	01278793          	addi	a5,a5,18 # 20012 <__muldf3+0x6a>
   15ed4:	00f42623          	sw	a5,12(s0)
   15ed8:	00800613          	li	a2,8
   15edc:	00000593          	li	a1,0
   15ee0:	00042023          	sw	zero,0(s0)
   15ee4:	00042223          	sw	zero,4(s0)
   15ee8:	00042423          	sw	zero,8(s0)
   15eec:	06042223          	sw	zero,100(s0)
   15ef0:	00042823          	sw	zero,16(s0)
   15ef4:	00042a23          	sw	zero,20(s0)
   15ef8:	00042c23          	sw	zero,24(s0)
   15efc:	05c40513          	addi	a0,s0,92
   15f00:	d11fa0ef          	jal	ra,10c10 <memset>
   15f04:	05840513          	addi	a0,s0,88
   15f08:	00842e23          	sw	s0,28(s0)
   15f0c:	03542023          	sw	s5,32(s0)
   15f10:	03442223          	sw	s4,36(s0)
   15f14:	03342423          	sw	s3,40(s0)
   15f18:	03242623          	sw	s2,44(s0)
   15f1c:	404010ef          	jal	ra,17320 <__retarget_lock_init_recursive>
   15f20:	00100793          	li	a5,1
   15f24:	02f4ac23          	sw	a5,56(s1)
   15f28:	01812403          	lw	s0,24(sp)
   15f2c:	01c12083          	lw	ra,28(sp)
   15f30:	01412483          	lw	s1,20(sp)
   15f34:	01012903          	lw	s2,16(sp)
   15f38:	00c12983          	lw	s3,12(sp)
   15f3c:	00812a03          	lw	s4,8(sp)
   15f40:	00412a83          	lw	s5,4(sp)
   15f44:	27818513          	addi	a0,gp,632 # 23b38 <__lock___sinit_recursive_mutex>
   15f48:	02010113          	addi	sp,sp,32
   15f4c:	3fc0106f          	j	17348 <__retarget_lock_release_recursive>

00015f50 <__sfp>:
   15f50:	fe010113          	addi	sp,sp,-32
   15f54:	01312623          	sw	s3,12(sp)
   15f58:	00050993          	mv	s3,a0
   15f5c:	27418513          	addi	a0,gp,628 # 23b34 <__lock___sfp_recursive_mutex>
   15f60:	01212823          	sw	s2,16(sp)
   15f64:	00112e23          	sw	ra,28(sp)
   15f68:	00812c23          	sw	s0,24(sp)
   15f6c:	00912a23          	sw	s1,20(sp)
   15f70:	3c0010ef          	jal	ra,17330 <__retarget_lock_acquire_recursive>
   15f74:	2281a903          	lw	s2,552(gp) # 23ae8 <_global_impure_ptr>
   15f78:	03892783          	lw	a5,56(s2)
   15f7c:	0a078e63          	beqz	a5,16038 <__sfp+0xe8>
   15f80:	2e090913          	addi	s2,s2,736
   15f84:	fff00493          	li	s1,-1
   15f88:	00492783          	lw	a5,4(s2)
   15f8c:	00892403          	lw	s0,8(s2)
   15f90:	fff78793          	addi	a5,a5,-1
   15f94:	0007d863          	bgez	a5,15fa4 <__sfp+0x54>
   15f98:	0900006f          	j	16028 <__sfp+0xd8>
   15f9c:	06840413          	addi	s0,s0,104
   15fa0:	08978463          	beq	a5,s1,16028 <__sfp+0xd8>
   15fa4:	00c41703          	lh	a4,12(s0)
   15fa8:	fff78793          	addi	a5,a5,-1
   15fac:	fe0718e3          	bnez	a4,15f9c <__sfp+0x4c>
   15fb0:	ffff07b7          	lui	a5,0xffff0
   15fb4:	00178793          	addi	a5,a5,1 # ffff0001 <__BSS_END__+0xfffcc1d1>
   15fb8:	00f42623          	sw	a5,12(s0)
   15fbc:	05840513          	addi	a0,s0,88
   15fc0:	06042223          	sw	zero,100(s0)
   15fc4:	35c010ef          	jal	ra,17320 <__retarget_lock_init_recursive>
   15fc8:	27418513          	addi	a0,gp,628 # 23b34 <__lock___sfp_recursive_mutex>
   15fcc:	37c010ef          	jal	ra,17348 <__retarget_lock_release_recursive>
   15fd0:	00800613          	li	a2,8
   15fd4:	00042023          	sw	zero,0(s0)
   15fd8:	00042423          	sw	zero,8(s0)
   15fdc:	00042223          	sw	zero,4(s0)
   15fe0:	00042823          	sw	zero,16(s0)
   15fe4:	00042a23          	sw	zero,20(s0)
   15fe8:	00042c23          	sw	zero,24(s0)
   15fec:	00000593          	li	a1,0
   15ff0:	05c40513          	addi	a0,s0,92
   15ff4:	c1dfa0ef          	jal	ra,10c10 <memset>
   15ff8:	02042823          	sw	zero,48(s0)
   15ffc:	02042a23          	sw	zero,52(s0)
   16000:	04042223          	sw	zero,68(s0)
   16004:	04042423          	sw	zero,72(s0)
   16008:	01c12083          	lw	ra,28(sp)
   1600c:	00040513          	mv	a0,s0
   16010:	01812403          	lw	s0,24(sp)
   16014:	01412483          	lw	s1,20(sp)
   16018:	01012903          	lw	s2,16(sp)
   1601c:	00c12983          	lw	s3,12(sp)
   16020:	02010113          	addi	sp,sp,32
   16024:	00008067          	ret
   16028:	00092403          	lw	s0,0(s2)
   1602c:	00040c63          	beqz	s0,16044 <__sfp+0xf4>
   16030:	00040913          	mv	s2,s0
   16034:	f55ff06f          	j	15f88 <__sfp+0x38>
   16038:	00090513          	mv	a0,s2
   1603c:	d6dff0ef          	jal	ra,15da8 <__sinit>
   16040:	f41ff06f          	j	15f80 <__sfp+0x30>
   16044:	1ac00593          	li	a1,428
   16048:	00098513          	mv	a0,s3
   1604c:	c44fa0ef          	jal	ra,10490 <_malloc_r>
   16050:	00050413          	mv	s0,a0
   16054:	02050863          	beqz	a0,16084 <__sfp+0x134>
   16058:	00c50513          	addi	a0,a0,12
   1605c:	00400793          	li	a5,4
   16060:	00042023          	sw	zero,0(s0)
   16064:	00f42223          	sw	a5,4(s0)
   16068:	00a42423          	sw	a0,8(s0)
   1606c:	1a000613          	li	a2,416
   16070:	00000593          	li	a1,0
   16074:	b9dfa0ef          	jal	ra,10c10 <memset>
   16078:	00892023          	sw	s0,0(s2)
   1607c:	00040913          	mv	s2,s0
   16080:	f09ff06f          	j	15f88 <__sfp+0x38>
   16084:	00092023          	sw	zero,0(s2)
   16088:	27418513          	addi	a0,gp,628 # 23b34 <__lock___sfp_recursive_mutex>
   1608c:	2bc010ef          	jal	ra,17348 <__retarget_lock_release_recursive>
   16090:	00c00793          	li	a5,12
   16094:	00f9a023          	sw	a5,0(s3)
   16098:	f71ff06f          	j	16008 <__sfp+0xb8>

0001609c <__sfp_lock_acquire>:
   1609c:	27418513          	addi	a0,gp,628 # 23b34 <__lock___sfp_recursive_mutex>
   160a0:	2900106f          	j	17330 <__retarget_lock_acquire_recursive>

000160a4 <__sfp_lock_release>:
   160a4:	27418513          	addi	a0,gp,628 # 23b34 <__lock___sfp_recursive_mutex>
   160a8:	2a00106f          	j	17348 <__retarget_lock_release_recursive>

000160ac <__sinit_lock_acquire>:
   160ac:	27818513          	addi	a0,gp,632 # 23b38 <__lock___sinit_recursive_mutex>
   160b0:	2800106f          	j	17330 <__retarget_lock_acquire_recursive>

000160b4 <__sinit_lock_release>:
   160b4:	27818513          	addi	a0,gp,632 # 23b38 <__lock___sinit_recursive_mutex>
   160b8:	2900106f          	j	17348 <__retarget_lock_release_recursive>

000160bc <__fp_lock_all>:
   160bc:	ff010113          	addi	sp,sp,-16
   160c0:	27418513          	addi	a0,gp,628 # 23b34 <__lock___sfp_recursive_mutex>
   160c4:	00112623          	sw	ra,12(sp)
   160c8:	268010ef          	jal	ra,17330 <__retarget_lock_acquire_recursive>
   160cc:	00c12083          	lw	ra,12(sp)
   160d0:	2301a503          	lw	a0,560(gp) # 23af0 <_impure_ptr>
   160d4:	00000597          	auipc	a1,0x0
   160d8:	bcc58593          	addi	a1,a1,-1076 # 15ca0 <__fp_lock>
   160dc:	01010113          	addi	sp,sp,16
   160e0:	4540006f          	j	16534 <_fwalk>

000160e4 <__fp_unlock_all>:
   160e4:	ff010113          	addi	sp,sp,-16
   160e8:	00000597          	auipc	a1,0x0
   160ec:	bf858593          	addi	a1,a1,-1032 # 15ce0 <__fp_unlock>
   160f0:	2301a503          	lw	a0,560(gp) # 23af0 <_impure_ptr>
   160f4:	00112623          	sw	ra,12(sp)
   160f8:	43c000ef          	jal	ra,16534 <_fwalk>
   160fc:	00c12083          	lw	ra,12(sp)
   16100:	27418513          	addi	a0,gp,628 # 23b34 <__lock___sfp_recursive_mutex>
   16104:	01010113          	addi	sp,sp,16
   16108:	2400106f          	j	17348 <__retarget_lock_release_recursive>

0001610c <_malloc_trim_r>:
   1610c:	fe010113          	addi	sp,sp,-32
   16110:	00812c23          	sw	s0,24(sp)
   16114:	00912a23          	sw	s1,20(sp)
   16118:	01212823          	sw	s2,16(sp)
   1611c:	01312623          	sw	s3,12(sp)
   16120:	01412423          	sw	s4,8(sp)
   16124:	00058993          	mv	s3,a1
   16128:	00112e23          	sw	ra,28(sp)
   1612c:	c2818a13          	addi	s4,gp,-984 # 234e8 <__malloc_av_>
   16130:	00050913          	mv	s2,a0
   16134:	bb9fa0ef          	jal	ra,10cec <__malloc_lock>
   16138:	008a2703          	lw	a4,8(s4)
   1613c:	000017b7          	lui	a5,0x1
   16140:	fef78413          	addi	s0,a5,-17 # fef <exit-0xf0a5>
   16144:	00472483          	lw	s1,4(a4)
   16148:	ffc4f493          	andi	s1,s1,-4
   1614c:	00848433          	add	s0,s1,s0
   16150:	41340433          	sub	s0,s0,s3
   16154:	00c45413          	srli	s0,s0,0xc
   16158:	fff40413          	addi	s0,s0,-1
   1615c:	00c41413          	slli	s0,s0,0xc
   16160:	00f44e63          	blt	s0,a5,1617c <_malloc_trim_r+0x70>
   16164:	00000593          	li	a1,0
   16168:	00090513          	mv	a0,s2
   1616c:	c1dfa0ef          	jal	ra,10d88 <_sbrk_r>
   16170:	008a2783          	lw	a5,8(s4)
   16174:	009787b3          	add	a5,a5,s1
   16178:	02f50863          	beq	a0,a5,161a8 <_malloc_trim_r+0x9c>
   1617c:	00090513          	mv	a0,s2
   16180:	b75fa0ef          	jal	ra,10cf4 <__malloc_unlock>
   16184:	01c12083          	lw	ra,28(sp)
   16188:	01812403          	lw	s0,24(sp)
   1618c:	01412483          	lw	s1,20(sp)
   16190:	01012903          	lw	s2,16(sp)
   16194:	00c12983          	lw	s3,12(sp)
   16198:	00812a03          	lw	s4,8(sp)
   1619c:	00000513          	li	a0,0
   161a0:	02010113          	addi	sp,sp,32
   161a4:	00008067          	ret
   161a8:	408005b3          	neg	a1,s0
   161ac:	00090513          	mv	a0,s2
   161b0:	bd9fa0ef          	jal	ra,10d88 <_sbrk_r>
   161b4:	fff00793          	li	a5,-1
   161b8:	04f50863          	beq	a0,a5,16208 <_malloc_trim_r+0xfc>
   161bc:	2a018713          	addi	a4,gp,672 # 23b60 <__malloc_current_mallinfo>
   161c0:	00072783          	lw	a5,0(a4)
   161c4:	008a2683          	lw	a3,8(s4)
   161c8:	408484b3          	sub	s1,s1,s0
   161cc:	0014e493          	ori	s1,s1,1
   161d0:	408787b3          	sub	a5,a5,s0
   161d4:	00090513          	mv	a0,s2
   161d8:	0096a223          	sw	s1,4(a3)
   161dc:	00f72023          	sw	a5,0(a4)
   161e0:	b15fa0ef          	jal	ra,10cf4 <__malloc_unlock>
   161e4:	01c12083          	lw	ra,28(sp)
   161e8:	01812403          	lw	s0,24(sp)
   161ec:	01412483          	lw	s1,20(sp)
   161f0:	01012903          	lw	s2,16(sp)
   161f4:	00c12983          	lw	s3,12(sp)
   161f8:	00812a03          	lw	s4,8(sp)
   161fc:	00100513          	li	a0,1
   16200:	02010113          	addi	sp,sp,32
   16204:	00008067          	ret
   16208:	00000593          	li	a1,0
   1620c:	00090513          	mv	a0,s2
   16210:	b79fa0ef          	jal	ra,10d88 <_sbrk_r>
   16214:	008a2703          	lw	a4,8(s4)
   16218:	00f00693          	li	a3,15
   1621c:	40e507b3          	sub	a5,a0,a4
   16220:	f4f6dee3          	bge	a3,a5,1617c <_malloc_trim_r+0x70>
   16224:	2341a683          	lw	a3,564(gp) # 23af4 <__malloc_sbrk_base>
   16228:	40d50533          	sub	a0,a0,a3
   1622c:	0017e793          	ori	a5,a5,1
   16230:	2aa1a023          	sw	a0,672(gp) # 23b60 <__malloc_current_mallinfo>
   16234:	00f72223          	sw	a5,4(a4)
   16238:	f45ff06f          	j	1617c <_malloc_trim_r+0x70>

0001623c <_free_r>:
   1623c:	16058e63          	beqz	a1,163b8 <_free_r+0x17c>
   16240:	ff010113          	addi	sp,sp,-16
   16244:	00812423          	sw	s0,8(sp)
   16248:	00912223          	sw	s1,4(sp)
   1624c:	00058413          	mv	s0,a1
   16250:	00050493          	mv	s1,a0
   16254:	00112623          	sw	ra,12(sp)
   16258:	a95fa0ef          	jal	ra,10cec <__malloc_lock>
   1625c:	ffc42583          	lw	a1,-4(s0)
   16260:	ff840713          	addi	a4,s0,-8
   16264:	c2818513          	addi	a0,gp,-984 # 234e8 <__malloc_av_>
   16268:	ffe5f793          	andi	a5,a1,-2
   1626c:	00f70633          	add	a2,a4,a5
   16270:	00462683          	lw	a3,4(a2)
   16274:	00852803          	lw	a6,8(a0)
   16278:	ffc6f693          	andi	a3,a3,-4
   1627c:	18c80e63          	beq	a6,a2,16418 <_free_r+0x1dc>
   16280:	00d62223          	sw	a3,4(a2)
   16284:	0015f593          	andi	a1,a1,1
   16288:	00d60833          	add	a6,a2,a3
   1628c:	08059e63          	bnez	a1,16328 <_free_r+0xec>
   16290:	ff842303          	lw	t1,-8(s0)
   16294:	00482583          	lw	a1,4(a6)
   16298:	c3018893          	addi	a7,gp,-976 # 234f0 <__malloc_av_+0x8>
   1629c:	40670733          	sub	a4,a4,t1
   162a0:	00872803          	lw	a6,8(a4)
   162a4:	006787b3          	add	a5,a5,t1
   162a8:	0015f593          	andi	a1,a1,1
   162ac:	15180063          	beq	a6,a7,163ec <_free_r+0x1b0>
   162b0:	00c72303          	lw	t1,12(a4)
   162b4:	00682623          	sw	t1,12(a6)
   162b8:	01032423          	sw	a6,8(t1)
   162bc:	1a058463          	beqz	a1,16464 <_free_r+0x228>
   162c0:	0017e693          	ori	a3,a5,1
   162c4:	00d72223          	sw	a3,4(a4)
   162c8:	00f62023          	sw	a5,0(a2)
   162cc:	1ff00693          	li	a3,511
   162d0:	06f6ec63          	bltu	a3,a5,16348 <_free_r+0x10c>
   162d4:	ff87f693          	andi	a3,a5,-8
   162d8:	00868693          	addi	a3,a3,8
   162dc:	00452583          	lw	a1,4(a0)
   162e0:	00d506b3          	add	a3,a0,a3
   162e4:	0006a603          	lw	a2,0(a3)
   162e8:	0057d813          	srli	a6,a5,0x5
   162ec:	00100793          	li	a5,1
   162f0:	010797b3          	sll	a5,a5,a6
   162f4:	00b7e7b3          	or	a5,a5,a1
   162f8:	ff868593          	addi	a1,a3,-8
   162fc:	00b72623          	sw	a1,12(a4)
   16300:	00c72423          	sw	a2,8(a4)
   16304:	00f52223          	sw	a5,4(a0)
   16308:	00e6a023          	sw	a4,0(a3)
   1630c:	00e62623          	sw	a4,12(a2)
   16310:	00812403          	lw	s0,8(sp)
   16314:	00c12083          	lw	ra,12(sp)
   16318:	00048513          	mv	a0,s1
   1631c:	00412483          	lw	s1,4(sp)
   16320:	01010113          	addi	sp,sp,16
   16324:	9d1fa06f          	j	10cf4 <__malloc_unlock>
   16328:	00482583          	lw	a1,4(a6)
   1632c:	0015f593          	andi	a1,a1,1
   16330:	08058663          	beqz	a1,163bc <_free_r+0x180>
   16334:	0017e693          	ori	a3,a5,1
   16338:	fed42e23          	sw	a3,-4(s0)
   1633c:	00f62023          	sw	a5,0(a2)
   16340:	1ff00693          	li	a3,511
   16344:	f8f6f8e3          	bgeu	a3,a5,162d4 <_free_r+0x98>
   16348:	0097d693          	srli	a3,a5,0x9
   1634c:	00400613          	li	a2,4
   16350:	10d66e63          	bltu	a2,a3,1646c <_free_r+0x230>
   16354:	0067d693          	srli	a3,a5,0x6
   16358:	03968593          	addi	a1,a3,57
   1635c:	03868613          	addi	a2,a3,56
   16360:	00359593          	slli	a1,a1,0x3
   16364:	00b505b3          	add	a1,a0,a1
   16368:	0005a683          	lw	a3,0(a1)
   1636c:	ff858593          	addi	a1,a1,-8
   16370:	00d59863          	bne	a1,a3,16380 <_free_r+0x144>
   16374:	1500006f          	j	164c4 <_free_r+0x288>
   16378:	0086a683          	lw	a3,8(a3)
   1637c:	00d58863          	beq	a1,a3,1638c <_free_r+0x150>
   16380:	0046a603          	lw	a2,4(a3)
   16384:	ffc67613          	andi	a2,a2,-4
   16388:	fec7e8e3          	bltu	a5,a2,16378 <_free_r+0x13c>
   1638c:	00c6a583          	lw	a1,12(a3)
   16390:	00b72623          	sw	a1,12(a4)
   16394:	00d72423          	sw	a3,8(a4)
   16398:	00812403          	lw	s0,8(sp)
   1639c:	00c12083          	lw	ra,12(sp)
   163a0:	00e5a423          	sw	a4,8(a1)
   163a4:	00048513          	mv	a0,s1
   163a8:	00412483          	lw	s1,4(sp)
   163ac:	00e6a623          	sw	a4,12(a3)
   163b0:	01010113          	addi	sp,sp,16
   163b4:	941fa06f          	j	10cf4 <__malloc_unlock>
   163b8:	00008067          	ret
   163bc:	00d787b3          	add	a5,a5,a3
   163c0:	c3018893          	addi	a7,gp,-976 # 234f0 <__malloc_av_+0x8>
   163c4:	00862683          	lw	a3,8(a2)
   163c8:	0d168c63          	beq	a3,a7,164a0 <_free_r+0x264>
   163cc:	00c62803          	lw	a6,12(a2)
   163d0:	0017e593          	ori	a1,a5,1
   163d4:	00f70633          	add	a2,a4,a5
   163d8:	0106a623          	sw	a6,12(a3)
   163dc:	00d82423          	sw	a3,8(a6)
   163e0:	00b72223          	sw	a1,4(a4)
   163e4:	00f62023          	sw	a5,0(a2)
   163e8:	ee5ff06f          	j	162cc <_free_r+0x90>
   163ec:	12059c63          	bnez	a1,16524 <_free_r+0x2e8>
   163f0:	00862583          	lw	a1,8(a2)
   163f4:	00c62603          	lw	a2,12(a2)
   163f8:	00f686b3          	add	a3,a3,a5
   163fc:	0016e793          	ori	a5,a3,1
   16400:	00c5a623          	sw	a2,12(a1)
   16404:	00b62423          	sw	a1,8(a2)
   16408:	00f72223          	sw	a5,4(a4)
   1640c:	00d70733          	add	a4,a4,a3
   16410:	00d72023          	sw	a3,0(a4)
   16414:	efdff06f          	j	16310 <_free_r+0xd4>
   16418:	0015f593          	andi	a1,a1,1
   1641c:	00d786b3          	add	a3,a5,a3
   16420:	02059063          	bnez	a1,16440 <_free_r+0x204>
   16424:	ff842583          	lw	a1,-8(s0)
   16428:	40b70733          	sub	a4,a4,a1
   1642c:	00c72783          	lw	a5,12(a4)
   16430:	00872603          	lw	a2,8(a4)
   16434:	00b686b3          	add	a3,a3,a1
   16438:	00f62623          	sw	a5,12(a2)
   1643c:	00c7a423          	sw	a2,8(a5)
   16440:	0016e793          	ori	a5,a3,1
   16444:	00f72223          	sw	a5,4(a4)
   16448:	00e52423          	sw	a4,8(a0)
   1644c:	2381a783          	lw	a5,568(gp) # 23af8 <__malloc_trim_threshold>
   16450:	ecf6e0e3          	bltu	a3,a5,16310 <_free_r+0xd4>
   16454:	2501a583          	lw	a1,592(gp) # 23b10 <__malloc_top_pad>
   16458:	00048513          	mv	a0,s1
   1645c:	cb1ff0ef          	jal	ra,1610c <_malloc_trim_r>
   16460:	eb1ff06f          	j	16310 <_free_r+0xd4>
   16464:	00d787b3          	add	a5,a5,a3
   16468:	f5dff06f          	j	163c4 <_free_r+0x188>
   1646c:	01400613          	li	a2,20
   16470:	02d67063          	bgeu	a2,a3,16490 <_free_r+0x254>
   16474:	05400613          	li	a2,84
   16478:	06d66463          	bltu	a2,a3,164e0 <_free_r+0x2a4>
   1647c:	00c7d693          	srli	a3,a5,0xc
   16480:	06f68593          	addi	a1,a3,111
   16484:	06e68613          	addi	a2,a3,110
   16488:	00359593          	slli	a1,a1,0x3
   1648c:	ed9ff06f          	j	16364 <_free_r+0x128>
   16490:	05c68593          	addi	a1,a3,92
   16494:	05b68613          	addi	a2,a3,91
   16498:	00359593          	slli	a1,a1,0x3
   1649c:	ec9ff06f          	j	16364 <_free_r+0x128>
   164a0:	00e52a23          	sw	a4,20(a0)
   164a4:	00e52823          	sw	a4,16(a0)
   164a8:	0017e693          	ori	a3,a5,1
   164ac:	01172623          	sw	a7,12(a4)
   164b0:	01172423          	sw	a7,8(a4)
   164b4:	00d72223          	sw	a3,4(a4)
   164b8:	00f70733          	add	a4,a4,a5
   164bc:	00f72023          	sw	a5,0(a4)
   164c0:	e51ff06f          	j	16310 <_free_r+0xd4>
   164c4:	00452803          	lw	a6,4(a0)
   164c8:	40265613          	srai	a2,a2,0x2
   164cc:	00100793          	li	a5,1
   164d0:	00c797b3          	sll	a5,a5,a2
   164d4:	0107e7b3          	or	a5,a5,a6
   164d8:	00f52223          	sw	a5,4(a0)
   164dc:	eb5ff06f          	j	16390 <_free_r+0x154>
   164e0:	15400613          	li	a2,340
   164e4:	00d66c63          	bltu	a2,a3,164fc <_free_r+0x2c0>
   164e8:	00f7d693          	srli	a3,a5,0xf
   164ec:	07868593          	addi	a1,a3,120
   164f0:	07768613          	addi	a2,a3,119
   164f4:	00359593          	slli	a1,a1,0x3
   164f8:	e6dff06f          	j	16364 <_free_r+0x128>
   164fc:	55400613          	li	a2,1364
   16500:	00d66c63          	bltu	a2,a3,16518 <_free_r+0x2dc>
   16504:	0127d693          	srli	a3,a5,0x12
   16508:	07d68593          	addi	a1,a3,125
   1650c:	07c68613          	addi	a2,a3,124
   16510:	00359593          	slli	a1,a1,0x3
   16514:	e51ff06f          	j	16364 <_free_r+0x128>
   16518:	3f800593          	li	a1,1016
   1651c:	07e00613          	li	a2,126
   16520:	e45ff06f          	j	16364 <_free_r+0x128>
   16524:	0017e693          	ori	a3,a5,1
   16528:	00d72223          	sw	a3,4(a4)
   1652c:	00f62023          	sw	a5,0(a2)
   16530:	de1ff06f          	j	16310 <_free_r+0xd4>

00016534 <_fwalk>:
   16534:	fe010113          	addi	sp,sp,-32
   16538:	01212823          	sw	s2,16(sp)
   1653c:	01312623          	sw	s3,12(sp)
   16540:	01412423          	sw	s4,8(sp)
   16544:	01512223          	sw	s5,4(sp)
   16548:	01612023          	sw	s6,0(sp)
   1654c:	00112e23          	sw	ra,28(sp)
   16550:	00812c23          	sw	s0,24(sp)
   16554:	00912a23          	sw	s1,20(sp)
   16558:	00058b13          	mv	s6,a1
   1655c:	2e050a93          	addi	s5,a0,736
   16560:	00000a13          	li	s4,0
   16564:	00100993          	li	s3,1
   16568:	fff00913          	li	s2,-1
   1656c:	004aa483          	lw	s1,4(s5)
   16570:	008aa403          	lw	s0,8(s5)
   16574:	fff48493          	addi	s1,s1,-1
   16578:	0204c663          	bltz	s1,165a4 <_fwalk+0x70>
   1657c:	00c45783          	lhu	a5,12(s0)
   16580:	fff48493          	addi	s1,s1,-1
   16584:	00f9fc63          	bgeu	s3,a5,1659c <_fwalk+0x68>
   16588:	00e41783          	lh	a5,14(s0)
   1658c:	00040513          	mv	a0,s0
   16590:	01278663          	beq	a5,s2,1659c <_fwalk+0x68>
   16594:	000b00e7          	jalr	s6
   16598:	00aa6a33          	or	s4,s4,a0
   1659c:	06840413          	addi	s0,s0,104
   165a0:	fd249ee3          	bne	s1,s2,1657c <_fwalk+0x48>
   165a4:	000aaa83          	lw	s5,0(s5)
   165a8:	fc0a92e3          	bnez	s5,1656c <_fwalk+0x38>
   165ac:	01c12083          	lw	ra,28(sp)
   165b0:	01812403          	lw	s0,24(sp)
   165b4:	01412483          	lw	s1,20(sp)
   165b8:	01012903          	lw	s2,16(sp)
   165bc:	00c12983          	lw	s3,12(sp)
   165c0:	00412a83          	lw	s5,4(sp)
   165c4:	00012b03          	lw	s6,0(sp)
   165c8:	000a0513          	mv	a0,s4
   165cc:	00812a03          	lw	s4,8(sp)
   165d0:	02010113          	addi	sp,sp,32
   165d4:	00008067          	ret

000165d8 <_fwalk_reent>:
   165d8:	fd010113          	addi	sp,sp,-48
   165dc:	03212023          	sw	s2,32(sp)
   165e0:	01312e23          	sw	s3,28(sp)
   165e4:	01412c23          	sw	s4,24(sp)
   165e8:	01512a23          	sw	s5,20(sp)
   165ec:	01612823          	sw	s6,16(sp)
   165f0:	01712623          	sw	s7,12(sp)
   165f4:	02112623          	sw	ra,44(sp)
   165f8:	02812423          	sw	s0,40(sp)
   165fc:	02912223          	sw	s1,36(sp)
   16600:	00050a93          	mv	s5,a0
   16604:	00058b93          	mv	s7,a1
   16608:	2e050b13          	addi	s6,a0,736
   1660c:	00000a13          	li	s4,0
   16610:	00100993          	li	s3,1
   16614:	fff00913          	li	s2,-1
   16618:	004b2483          	lw	s1,4(s6)
   1661c:	008b2403          	lw	s0,8(s6)
   16620:	fff48493          	addi	s1,s1,-1
   16624:	0204c863          	bltz	s1,16654 <_fwalk_reent+0x7c>
   16628:	00c45783          	lhu	a5,12(s0)
   1662c:	fff48493          	addi	s1,s1,-1
   16630:	00f9fe63          	bgeu	s3,a5,1664c <_fwalk_reent+0x74>
   16634:	00e41783          	lh	a5,14(s0)
   16638:	00040593          	mv	a1,s0
   1663c:	000a8513          	mv	a0,s5
   16640:	01278663          	beq	a5,s2,1664c <_fwalk_reent+0x74>
   16644:	000b80e7          	jalr	s7
   16648:	00aa6a33          	or	s4,s4,a0
   1664c:	06840413          	addi	s0,s0,104
   16650:	fd249ce3          	bne	s1,s2,16628 <_fwalk_reent+0x50>
   16654:	000b2b03          	lw	s6,0(s6)
   16658:	fc0b10e3          	bnez	s6,16618 <_fwalk_reent+0x40>
   1665c:	02c12083          	lw	ra,44(sp)
   16660:	02812403          	lw	s0,40(sp)
   16664:	02412483          	lw	s1,36(sp)
   16668:	02012903          	lw	s2,32(sp)
   1666c:	01c12983          	lw	s3,28(sp)
   16670:	01412a83          	lw	s5,20(sp)
   16674:	01012b03          	lw	s6,16(sp)
   16678:	00c12b83          	lw	s7,12(sp)
   1667c:	000a0513          	mv	a0,s4
   16680:	01812a03          	lw	s4,24(sp)
   16684:	03010113          	addi	sp,sp,48
   16688:	00008067          	ret

0001668c <__localeconv_l>:
   1668c:	0f050513          	addi	a0,a0,240
   16690:	00008067          	ret

00016694 <_localeconv_r>:
   16694:	12018513          	addi	a0,gp,288 # 239e0 <__global_locale+0xf0>
   16698:	00008067          	ret

0001669c <localeconv>:
   1669c:	12018513          	addi	a0,gp,288 # 239e0 <__global_locale+0xf0>
   166a0:	00008067          	ret

000166a4 <currentlocale>:
   166a4:	fe010113          	addi	sp,sp,-32
   166a8:	00912a23          	sw	s1,20(sp)
   166ac:	05018593          	addi	a1,gp,80 # 23910 <__global_locale+0x20>
   166b0:	48818513          	addi	a0,gp,1160 # 23d48 <global_locale_string>
   166b4:	07018493          	addi	s1,gp,112 # 23930 <__global_locale+0x40>
   166b8:	00812c23          	sw	s0,24(sp)
   166bc:	01212823          	sw	s2,16(sp)
   166c0:	01312623          	sw	s3,12(sp)
   166c4:	00112e23          	sw	ra,28(sp)
   166c8:	11018913          	addi	s2,gp,272 # 239d0 <__global_locale+0xe0>
   166cc:	464030ef          	jal	ra,19b30 <strcpy>
   166d0:	00048413          	mv	s0,s1
   166d4:	05018993          	addi	s3,gp,80 # 23910 <__global_locale+0x20>
   166d8:	00040593          	mv	a1,s0
   166dc:	00098513          	mv	a0,s3
   166e0:	2d4030ef          	jal	ra,199b4 <strcmp>
   166e4:	02040413          	addi	s0,s0,32
   166e8:	02051463          	bnez	a0,16710 <currentlocale+0x6c>
   166ec:	ff2416e3          	bne	s0,s2,166d8 <currentlocale+0x34>
   166f0:	01c12083          	lw	ra,28(sp)
   166f4:	01812403          	lw	s0,24(sp)
   166f8:	01412483          	lw	s1,20(sp)
   166fc:	01012903          	lw	s2,16(sp)
   16700:	00c12983          	lw	s3,12(sp)
   16704:	48818513          	addi	a0,gp,1160 # 23d48 <global_locale_string>
   16708:	02010113          	addi	sp,sp,32
   1670c:	00008067          	ret
   16710:	0000b997          	auipc	s3,0xb
   16714:	40098993          	addi	s3,s3,1024 # 21b10 <blanks.1+0xa8>
   16718:	48818413          	addi	s0,gp,1160 # 23d48 <global_locale_string>
   1671c:	00098593          	mv	a1,s3
   16720:	00040513          	mv	a0,s0
   16724:	0c8030ef          	jal	ra,197ec <strcat>
   16728:	00048593          	mv	a1,s1
   1672c:	00040513          	mv	a0,s0
   16730:	02048493          	addi	s1,s1,32
   16734:	0b8030ef          	jal	ra,197ec <strcat>
   16738:	ff2492e3          	bne	s1,s2,1671c <currentlocale+0x78>
   1673c:	01c12083          	lw	ra,28(sp)
   16740:	01812403          	lw	s0,24(sp)
   16744:	01412483          	lw	s1,20(sp)
   16748:	01012903          	lw	s2,16(sp)
   1674c:	00c12983          	lw	s3,12(sp)
   16750:	48818513          	addi	a0,gp,1160 # 23d48 <global_locale_string>
   16754:	02010113          	addi	sp,sp,32
   16758:	00008067          	ret

0001675c <__loadlocale>:
   1675c:	fa010113          	addi	sp,sp,-96
   16760:	04912a23          	sw	s1,84(sp)
   16764:	00559493          	slli	s1,a1,0x5
   16768:	009504b3          	add	s1,a0,s1
   1676c:	05212823          	sw	s2,80(sp)
   16770:	05312623          	sw	s3,76(sp)
   16774:	00050913          	mv	s2,a0
   16778:	00058993          	mv	s3,a1
   1677c:	00060513          	mv	a0,a2
   16780:	00048593          	mv	a1,s1
   16784:	04812c23          	sw	s0,88(sp)
   16788:	04112e23          	sw	ra,92(sp)
   1678c:	05412423          	sw	s4,72(sp)
   16790:	05512223          	sw	s5,68(sp)
   16794:	05612023          	sw	s6,64(sp)
   16798:	03712e23          	sw	s7,60(sp)
   1679c:	03812c23          	sw	s8,56(sp)
   167a0:	03912a23          	sw	s9,52(sp)
   167a4:	03a12823          	sw	s10,48(sp)
   167a8:	00060413          	mv	s0,a2
   167ac:	208030ef          	jal	ra,199b4 <strcmp>
   167b0:	04051063          	bnez	a0,167f0 <__loadlocale+0x94>
   167b4:	05c12083          	lw	ra,92(sp)
   167b8:	05812403          	lw	s0,88(sp)
   167bc:	05012903          	lw	s2,80(sp)
   167c0:	04c12983          	lw	s3,76(sp)
   167c4:	04812a03          	lw	s4,72(sp)
   167c8:	04412a83          	lw	s5,68(sp)
   167cc:	04012b03          	lw	s6,64(sp)
   167d0:	03c12b83          	lw	s7,60(sp)
   167d4:	03812c03          	lw	s8,56(sp)
   167d8:	03412c83          	lw	s9,52(sp)
   167dc:	03012d03          	lw	s10,48(sp)
   167e0:	00048513          	mv	a0,s1
   167e4:	05412483          	lw	s1,84(sp)
   167e8:	06010113          	addi	sp,sp,96
   167ec:	00008067          	ret
   167f0:	0000b597          	auipc	a1,0xb
   167f4:	32458593          	addi	a1,a1,804 # 21b14 <blanks.1+0xac>
   167f8:	00040513          	mv	a0,s0
   167fc:	1b8030ef          	jal	ra,199b4 <strcmp>
   16800:	0e050063          	beqz	a0,168e0 <__loadlocale+0x184>
   16804:	0000b597          	auipc	a1,0xb
   16808:	31858593          	addi	a1,a1,792 # 21b1c <blanks.1+0xb4>
   1680c:	00040513          	mv	a0,s0
   16810:	1a4030ef          	jal	ra,199b4 <strcmp>
   16814:	0e050863          	beqz	a0,16904 <__loadlocale+0x1a8>
   16818:	00044783          	lbu	a5,0(s0)
   1681c:	04300713          	li	a4,67
   16820:	0ee78e63          	beq	a5,a4,1691c <__loadlocale+0x1c0>
   16824:	f9f78793          	addi	a5,a5,-97
   16828:	0ff7f793          	zext.b	a5,a5
   1682c:	01900713          	li	a4,25
   16830:	04f76063          	bltu	a4,a5,16870 <__loadlocale+0x114>
   16834:	00144783          	lbu	a5,1(s0)
   16838:	f9f78793          	addi	a5,a5,-97
   1683c:	0ff7f793          	zext.b	a5,a5
   16840:	02f76863          	bltu	a4,a5,16870 <__loadlocale+0x114>
   16844:	00244783          	lbu	a5,2(s0)
   16848:	00240a93          	addi	s5,s0,2
   1684c:	f9f78693          	addi	a3,a5,-97
   16850:	0ff6f693          	zext.b	a3,a3
   16854:	02d77263          	bgeu	a4,a3,16878 <__loadlocale+0x11c>
   16858:	05f00713          	li	a4,95
   1685c:	10e78663          	beq	a5,a4,16968 <__loadlocale+0x20c>
   16860:	02e00713          	li	a4,46
   16864:	5ee78663          	beq	a5,a4,16e50 <__loadlocale+0x6f4>
   16868:	0bf7f793          	andi	a5,a5,191
   1686c:	00078c63          	beqz	a5,16884 <__loadlocale+0x128>
   16870:	00000493          	li	s1,0
   16874:	f41ff06f          	j	167b4 <__loadlocale+0x58>
   16878:	00344783          	lbu	a5,3(s0)
   1687c:	00340a93          	addi	s5,s0,3
   16880:	fd9ff06f          	j	16858 <__loadlocale+0xfc>
   16884:	01010a13          	addi	s4,sp,16
   16888:	0000b597          	auipc	a1,0xb
   1688c:	2a058593          	addi	a1,a1,672 # 21b28 <blanks.1+0xc0>
   16890:	000a0513          	mv	a0,s4
   16894:	29c030ef          	jal	ra,19b30 <strcpy>
   16898:	000ac703          	lbu	a4,0(s5)
   1689c:	04000793          	li	a5,64
   168a0:	54f70263          	beq	a4,a5,16de4 <__loadlocale+0x688>
   168a4:	00000a93          	li	s5,0
   168a8:	00000b13          	li	s6,0
   168ac:	00000b93          	li	s7,0
   168b0:	01014783          	lbu	a5,16(sp)
   168b4:	03400713          	li	a4,52
   168b8:	fbf78793          	addi	a5,a5,-65
   168bc:	0ff7f793          	zext.b	a5,a5
   168c0:	faf768e3          	bltu	a4,a5,16870 <__loadlocale+0x114>
   168c4:	0000b717          	auipc	a4,0xb
   168c8:	32870713          	addi	a4,a4,808 # 21bec <blanks.1+0x184>
   168cc:	00279793          	slli	a5,a5,0x2
   168d0:	00e787b3          	add	a5,a5,a4
   168d4:	0007a783          	lw	a5,0(a5)
   168d8:	00e787b3          	add	a5,a5,a4
   168dc:	00078067          	jr	a5
   168e0:	0000b597          	auipc	a1,0xb
   168e4:	23c58593          	addi	a1,a1,572 # 21b1c <blanks.1+0xb4>
   168e8:	00040513          	mv	a0,s0
   168ec:	244030ef          	jal	ra,19b30 <strcpy>
   168f0:	0000b597          	auipc	a1,0xb
   168f4:	22c58593          	addi	a1,a1,556 # 21b1c <blanks.1+0xb4>
   168f8:	00040513          	mv	a0,s0
   168fc:	0b8030ef          	jal	ra,199b4 <strcmp>
   16900:	f0051ce3          	bnez	a0,16818 <__loadlocale+0xbc>
   16904:	01010a13          	addi	s4,sp,16
   16908:	0000b597          	auipc	a1,0xb
   1690c:	21858593          	addi	a1,a1,536 # 21b20 <blanks.1+0xb8>
   16910:	000a0513          	mv	a0,s4
   16914:	21c030ef          	jal	ra,19b30 <strcpy>
   16918:	f8dff06f          	j	168a4 <__loadlocale+0x148>
   1691c:	00144783          	lbu	a5,1(s0)
   16920:	00100713          	li	a4,1
   16924:	01010a13          	addi	s4,sp,16
   16928:	fd378793          	addi	a5,a5,-45
   1692c:	0ff7f793          	zext.b	a5,a5
   16930:	00240a93          	addi	s5,s0,2
   16934:	f2f76ee3          	bltu	a4,a5,16870 <__loadlocale+0x114>
   16938:	000a8593          	mv	a1,s5
   1693c:	000a0513          	mv	a0,s4
   16940:	1f0030ef          	jal	ra,19b30 <strcpy>
   16944:	04000593          	li	a1,64
   16948:	000a0513          	mv	a0,s4
   1694c:	729020ef          	jal	ra,19874 <strchr>
   16950:	00050463          	beqz	a0,16958 <__loadlocale+0x1fc>
   16954:	00050023          	sb	zero,0(a0)
   16958:	000a0513          	mv	a0,s4
   1695c:	2dc030ef          	jal	ra,19c38 <strlen>
   16960:	00aa8ab3          	add	s5,s5,a0
   16964:	f35ff06f          	j	16898 <__loadlocale+0x13c>
   16968:	001ac783          	lbu	a5,1(s5)
   1696c:	01900713          	li	a4,25
   16970:	fbf78793          	addi	a5,a5,-65
   16974:	0ff7f793          	zext.b	a5,a5
   16978:	eef76ce3          	bltu	a4,a5,16870 <__loadlocale+0x114>
   1697c:	002ac783          	lbu	a5,2(s5)
   16980:	fbf78793          	addi	a5,a5,-65
   16984:	0ff7f793          	zext.b	a5,a5
   16988:	eef764e3          	bltu	a4,a5,16870 <__loadlocale+0x114>
   1698c:	003ac783          	lbu	a5,3(s5)
   16990:	003a8a93          	addi	s5,s5,3
   16994:	ecdff06f          	j	16860 <__loadlocale+0x104>
   16998:	0000b597          	auipc	a1,0xb
   1699c:	1bc58593          	addi	a1,a1,444 # 21b54 <blanks.1+0xec>
   169a0:	000a0513          	mv	a0,s4
   169a4:	5dd020ef          	jal	ra,19780 <strcasecmp>
   169a8:	00050c63          	beqz	a0,169c0 <__loadlocale+0x264>
   169ac:	0000b597          	auipc	a1,0xb
   169b0:	1b058593          	addi	a1,a1,432 # 21b5c <blanks.1+0xf4>
   169b4:	000a0513          	mv	a0,s4
   169b8:	5c9020ef          	jal	ra,19780 <strcasecmp>
   169bc:	ea051ae3          	bnez	a0,16870 <__loadlocale+0x114>
   169c0:	0000b597          	auipc	a1,0xb
   169c4:	19458593          	addi	a1,a1,404 # 21b54 <blanks.1+0xec>
   169c8:	000a0513          	mv	a0,s4
   169cc:	164030ef          	jal	ra,19b30 <strcpy>
   169d0:	00001c97          	auipc	s9,0x1
   169d4:	c54c8c93          	addi	s9,s9,-940 # 17624 <__utf8_mbtowc>
   169d8:	00005d17          	auipc	s10,0x5
   169dc:	25cd0d13          	addi	s10,s10,604 # 1bc34 <__utf8_wctomb>
   169e0:	00600c13          	li	s8,6
   169e4:	00200793          	li	a5,2
   169e8:	3af98863          	beq	s3,a5,16d98 <__loadlocale+0x63c>
   169ec:	00600793          	li	a5,6
   169f0:	00f99863          	bne	s3,a5,16a00 <__loadlocale+0x2a4>
   169f4:	000a0593          	mv	a1,s4
   169f8:	14a90513          	addi	a0,s2,330
   169fc:	134030ef          	jal	ra,19b30 <strcpy>
   16a00:	00048513          	mv	a0,s1
   16a04:	00040593          	mv	a1,s0
   16a08:	128030ef          	jal	ra,19b30 <strcpy>
   16a0c:	00050493          	mv	s1,a0
   16a10:	da5ff06f          	j	167b4 <__loadlocale+0x58>
   16a14:	00300613          	li	a2,3
   16a18:	0000b597          	auipc	a1,0xb
   16a1c:	1c458593          	addi	a1,a1,452 # 21bdc <blanks.1+0x174>
   16a20:	000a0513          	mv	a0,s4
   16a24:	2a0030ef          	jal	ra,19cc4 <strncasecmp>
   16a28:	e40514e3          	bnez	a0,16870 <__loadlocale+0x114>
   16a2c:	01314503          	lbu	a0,19(sp)
   16a30:	0000b597          	auipc	a1,0xb
   16a34:	1b058593          	addi	a1,a1,432 # 21be0 <blanks.1+0x178>
   16a38:	fd350513          	addi	a0,a0,-45
   16a3c:	00153513          	seqz	a0,a0
   16a40:	03050793          	addi	a5,a0,48
   16a44:	00278533          	add	a0,a5,sp
   16a48:	fe350513          	addi	a0,a0,-29
   16a4c:	769020ef          	jal	ra,199b4 <strcmp>
   16a50:	e20510e3          	bnez	a0,16870 <__loadlocale+0x114>
   16a54:	0000b597          	auipc	a1,0xb
   16a58:	19058593          	addi	a1,a1,400 # 21be4 <blanks.1+0x17c>
   16a5c:	000a0513          	mv	a0,s4
   16a60:	0d0030ef          	jal	ra,19b30 <strcpy>
   16a64:	00001c97          	auipc	s9,0x1
   16a68:	b58c8c93          	addi	s9,s9,-1192 # 175bc <__ascii_mbtowc>
   16a6c:	00005d17          	auipc	s10,0x5
   16a70:	198d0d13          	addi	s10,s10,408 # 1bc04 <__ascii_wctomb>
   16a74:	00100c13          	li	s8,1
   16a78:	f6dff06f          	j	169e4 <__loadlocale+0x288>
   16a7c:	0000b597          	auipc	a1,0xb
   16a80:	0fc58593          	addi	a1,a1,252 # 21b78 <blanks.1+0x110>
   16a84:	000a0513          	mv	a0,s4
   16a88:	4f9020ef          	jal	ra,19780 <strcasecmp>
   16a8c:	de0512e3          	bnez	a0,16870 <__loadlocale+0x114>
   16a90:	0000b597          	auipc	a1,0xb
   16a94:	0e858593          	addi	a1,a1,232 # 21b78 <blanks.1+0x110>
   16a98:	000a0513          	mv	a0,s4
   16a9c:	094030ef          	jal	ra,19b30 <strcpy>
   16aa0:	00001c97          	auipc	s9,0x1
   16aa4:	e7cc8c93          	addi	s9,s9,-388 # 1791c <__sjis_mbtowc>
   16aa8:	00005d17          	auipc	s10,0x5
   16aac:	278d0d13          	addi	s10,s10,632 # 1bd20 <__sjis_wctomb>
   16ab0:	00200c13          	li	s8,2
   16ab4:	f31ff06f          	j	169e4 <__loadlocale+0x288>
   16ab8:	0000b597          	auipc	a1,0xb
   16abc:	11458593          	addi	a1,a1,276 # 21bcc <blanks.1+0x164>
   16ac0:	000a0513          	mv	a0,s4
   16ac4:	4bd020ef          	jal	ra,19780 <strcasecmp>
   16ac8:	da0514e3          	bnez	a0,16870 <__loadlocale+0x114>
   16acc:	0000b597          	auipc	a1,0xb
   16ad0:	10858593          	addi	a1,a1,264 # 21bd4 <blanks.1+0x16c>
   16ad4:	000a0513          	mv	a0,s4
   16ad8:	058030ef          	jal	ra,19b30 <strcpy>
   16adc:	f89ff06f          	j	16a64 <__loadlocale+0x308>
   16ae0:	00400613          	li	a2,4
   16ae4:	0000b597          	auipc	a1,0xb
   16ae8:	0b858593          	addi	a1,a1,184 # 21b9c <blanks.1+0x134>
   16aec:	000a0513          	mv	a0,s4
   16af0:	1d4030ef          	jal	ra,19cc4 <strncasecmp>
   16af4:	d6051ee3          	bnez	a0,16870 <__loadlocale+0x114>
   16af8:	01414783          	lbu	a5,20(sp)
   16afc:	02d00713          	li	a4,45
   16b00:	00e79463          	bne	a5,a4,16b08 <__loadlocale+0x3ac>
   16b04:	01514783          	lbu	a5,21(sp)
   16b08:	0df7f793          	andi	a5,a5,223
   16b0c:	05200713          	li	a4,82
   16b10:	3ae78063          	beq	a5,a4,16eb0 <__loadlocale+0x754>
   16b14:	05500713          	li	a4,85
   16b18:	d4e79ce3          	bne	a5,a4,16870 <__loadlocale+0x114>
   16b1c:	0000b597          	auipc	a1,0xb
   16b20:	09058593          	addi	a1,a1,144 # 21bac <blanks.1+0x144>
   16b24:	000a0513          	mv	a0,s4
   16b28:	008030ef          	jal	ra,19b30 <strcpy>
   16b2c:	f39ff06f          	j	16a64 <__loadlocale+0x308>
   16b30:	0000b597          	auipc	a1,0xb
   16b34:	03458593          	addi	a1,a1,52 # 21b64 <blanks.1+0xfc>
   16b38:	000a0513          	mv	a0,s4
   16b3c:	445020ef          	jal	ra,19780 <strcasecmp>
   16b40:	d20518e3          	bnez	a0,16870 <__loadlocale+0x114>
   16b44:	0000b597          	auipc	a1,0xb
   16b48:	02058593          	addi	a1,a1,32 # 21b64 <blanks.1+0xfc>
   16b4c:	000a0513          	mv	a0,s4
   16b50:	7e1020ef          	jal	ra,19b30 <strcpy>
   16b54:	00001c97          	auipc	s9,0x1
   16b58:	144c8c93          	addi	s9,s9,324 # 17c98 <__jis_mbtowc>
   16b5c:	00005d17          	auipc	s10,0x5
   16b60:	2f4d0d13          	addi	s10,s10,756 # 1be50 <__jis_wctomb>
   16b64:	00800c13          	li	s8,8
   16b68:	e7dff06f          	j	169e4 <__loadlocale+0x288>
   16b6c:	00300613          	li	a2,3
   16b70:	0000b597          	auipc	a1,0xb
   16b74:	01058593          	addi	a1,a1,16 # 21b80 <blanks.1+0x118>
   16b78:	000a0513          	mv	a0,s4
   16b7c:	148030ef          	jal	ra,19cc4 <strncasecmp>
   16b80:	ce0518e3          	bnez	a0,16870 <__loadlocale+0x114>
   16b84:	01314783          	lbu	a5,19(sp)
   16b88:	00400613          	li	a2,4
   16b8c:	0000b597          	auipc	a1,0xb
   16b90:	ff858593          	addi	a1,a1,-8 # 21b84 <blanks.1+0x11c>
   16b94:	fd378793          	addi	a5,a5,-45
   16b98:	0017b793          	seqz	a5,a5
   16b9c:	03078793          	addi	a5,a5,48
   16ba0:	002787b3          	add	a5,a5,sp
   16ba4:	fe378c13          	addi	s8,a5,-29
   16ba8:	000c0513          	mv	a0,s8
   16bac:	118030ef          	jal	ra,19cc4 <strncasecmp>
   16bb0:	cc0510e3          	bnez	a0,16870 <__loadlocale+0x114>
   16bb4:	004c4503          	lbu	a0,4(s8)
   16bb8:	00a00613          	li	a2,10
   16bbc:	00c10593          	addi	a1,sp,12
   16bc0:	fd350513          	addi	a0,a0,-45
   16bc4:	00153513          	seqz	a0,a0
   16bc8:	00ac0533          	add	a0,s8,a0
   16bcc:	00450513          	addi	a0,a0,4
   16bd0:	4a4030ef          	jal	ra,1a074 <strtol>
   16bd4:	fff50713          	addi	a4,a0,-1
   16bd8:	00f00793          	li	a5,15
   16bdc:	00050c13          	mv	s8,a0
   16be0:	c8e7e8e3          	bltu	a5,a4,16870 <__loadlocale+0x114>
   16be4:	00c00793          	li	a5,12
   16be8:	c8f504e3          	beq	a0,a5,16870 <__loadlocale+0x114>
   16bec:	00c12783          	lw	a5,12(sp)
   16bf0:	0007c783          	lbu	a5,0(a5)
   16bf4:	c6079ee3          	bnez	a5,16870 <__loadlocale+0x114>
   16bf8:	0000b597          	auipc	a1,0xb
   16bfc:	f9458593          	addi	a1,a1,-108 # 21b8c <blanks.1+0x124>
   16c00:	000a0513          	mv	a0,s4
   16c04:	72d020ef          	jal	ra,19b30 <strcpy>
   16c08:	00a00793          	li	a5,10
   16c0c:	01910c93          	addi	s9,sp,25
   16c10:	0187d863          	bge	a5,s8,16c20 <__loadlocale+0x4c4>
   16c14:	03100793          	li	a5,49
   16c18:	00f10ca3          	sb	a5,25(sp)
   16c1c:	01a10c93          	addi	s9,sp,26
   16c20:	00a00593          	li	a1,10
   16c24:	000c0513          	mv	a0,s8
   16c28:	3110a0ef          	jal	ra,21738 <__modsi3>
   16c2c:	03050793          	addi	a5,a0,48
   16c30:	00fc8023          	sb	a5,0(s9)
   16c34:	000c80a3          	sb	zero,1(s9)
   16c38:	e2dff06f          	j	16a64 <__loadlocale+0x308>
   16c3c:	00800613          	li	a2,8
   16c40:	0000b597          	auipc	a1,0xb
   16c44:	f7458593          	addi	a1,a1,-140 # 21bb4 <blanks.1+0x14c>
   16c48:	000a0513          	mv	a0,s4
   16c4c:	078030ef          	jal	ra,19cc4 <strncasecmp>
   16c50:	c20510e3          	bnez	a0,16870 <__loadlocale+0x114>
   16c54:	01814503          	lbu	a0,24(sp)
   16c58:	0000b597          	auipc	a1,0xb
   16c5c:	f6858593          	addi	a1,a1,-152 # 21bc0 <blanks.1+0x158>
   16c60:	fd350513          	addi	a0,a0,-45
   16c64:	00153513          	seqz	a0,a0
   16c68:	03050793          	addi	a5,a0,48
   16c6c:	00278533          	add	a0,a5,sp
   16c70:	fe850513          	addi	a0,a0,-24
   16c74:	30d020ef          	jal	ra,19780 <strcasecmp>
   16c78:	be051ce3          	bnez	a0,16870 <__loadlocale+0x114>
   16c7c:	0000b597          	auipc	a1,0xb
   16c80:	f4858593          	addi	a1,a1,-184 # 21bc4 <blanks.1+0x15c>
   16c84:	000a0513          	mv	a0,s4
   16c88:	6a9020ef          	jal	ra,19b30 <strcpy>
   16c8c:	dd9ff06f          	j	16a64 <__loadlocale+0x308>
   16c90:	00300613          	li	a2,3
   16c94:	0000b597          	auipc	a1,0xb
   16c98:	ed458593          	addi	a1,a1,-300 # 21b68 <blanks.1+0x100>
   16c9c:	000a0513          	mv	a0,s4
   16ca0:	024030ef          	jal	ra,19cc4 <strncasecmp>
   16ca4:	bc0516e3          	bnez	a0,16870 <__loadlocale+0x114>
   16ca8:	01314503          	lbu	a0,19(sp)
   16cac:	0000b597          	auipc	a1,0xb
   16cb0:	ec058593          	addi	a1,a1,-320 # 21b6c <blanks.1+0x104>
   16cb4:	fd350513          	addi	a0,a0,-45
   16cb8:	00153513          	seqz	a0,a0
   16cbc:	03050793          	addi	a5,a0,48
   16cc0:	00278533          	add	a0,a5,sp
   16cc4:	fe350513          	addi	a0,a0,-29
   16cc8:	2b9020ef          	jal	ra,19780 <strcasecmp>
   16ccc:	ba0512e3          	bnez	a0,16870 <__loadlocale+0x114>
   16cd0:	0000b597          	auipc	a1,0xb
   16cd4:	ea058593          	addi	a1,a1,-352 # 21b70 <blanks.1+0x108>
   16cd8:	000a0513          	mv	a0,s4
   16cdc:	655020ef          	jal	ra,19b30 <strcpy>
   16ce0:	00001c97          	auipc	s9,0x1
   16ce4:	dacc8c93          	addi	s9,s9,-596 # 17a8c <__eucjp_mbtowc>
   16ce8:	00005d17          	auipc	s10,0x5
   16cec:	0bcd0d13          	addi	s10,s10,188 # 1bda4 <__eucjp_wctomb>
   16cf0:	00300c13          	li	s8,3
   16cf4:	cf1ff06f          	j	169e4 <__loadlocale+0x288>
   16cf8:	01114783          	lbu	a5,17(sp)
   16cfc:	05000713          	li	a4,80
   16d00:	0df7f793          	andi	a5,a5,223
   16d04:	b6e796e3          	bne	a5,a4,16870 <__loadlocale+0x114>
   16d08:	00200613          	li	a2,2
   16d0c:	0000b597          	auipc	a1,0xb
   16d10:	e8c58593          	addi	a1,a1,-372 # 21b98 <blanks.1+0x130>
   16d14:	000a0513          	mv	a0,s4
   16d18:	028030ef          	jal	ra,19d40 <strncpy>
   16d1c:	00a00613          	li	a2,10
   16d20:	00c10593          	addi	a1,sp,12
   16d24:	01210513          	addi	a0,sp,18
   16d28:	34c030ef          	jal	ra,1a074 <strtol>
   16d2c:	00c12783          	lw	a5,12(sp)
   16d30:	0007c783          	lbu	a5,0(a5)
   16d34:	b2079ee3          	bnez	a5,16870 <__loadlocale+0x114>
   16d38:	3a400793          	li	a5,932
   16d3c:	d6f502e3          	beq	a0,a5,16aa0 <__loadlocale+0x344>
   16d40:	14a7ca63          	blt	a5,a0,16e94 <__loadlocale+0x738>
   16d44:	36a00793          	li	a5,874
   16d48:	b2a7c4e3          	blt	a5,a0,16870 <__loadlocale+0x114>
   16d4c:	35100793          	li	a5,849
   16d50:	12a7c263          	blt	a5,a0,16e74 <__loadlocale+0x718>
   16d54:	2e100793          	li	a5,737
   16d58:	d0f506e3          	beq	a0,a5,16a64 <__loadlocale+0x308>
   16d5c:	10a7d063          	bge	a5,a0,16e5c <__loadlocale+0x700>
   16d60:	30700793          	li	a5,775
   16d64:	d0f500e3          	beq	a0,a5,16a64 <__loadlocale+0x308>
   16d68:	00000493          	li	s1,0
   16d6c:	a49ff06f          	j	167b4 <__loadlocale+0x58>
   16d70:	0000b597          	auipc	a1,0xb
   16d74:	db058593          	addi	a1,a1,-592 # 21b20 <blanks.1+0xb8>
   16d78:	000a0513          	mv	a0,s4
   16d7c:	205020ef          	jal	ra,19780 <strcasecmp>
   16d80:	ae0518e3          	bnez	a0,16870 <__loadlocale+0x114>
   16d84:	0000b597          	auipc	a1,0xb
   16d88:	d9c58593          	addi	a1,a1,-612 # 21b20 <blanks.1+0xb8>
   16d8c:	000a0513          	mv	a0,s4
   16d90:	5a1020ef          	jal	ra,19b30 <strcpy>
   16d94:	cd1ff06f          	j	16a64 <__loadlocale+0x308>
   16d98:	000a0593          	mv	a1,s4
   16d9c:	12a90513          	addi	a0,s2,298
   16da0:	591020ef          	jal	ra,19b30 <strcpy>
   16da4:	000a0593          	mv	a1,s4
   16da8:	13890423          	sb	s8,296(s2)
   16dac:	0fa92023          	sw	s10,224(s2)
   16db0:	0f992223          	sw	s9,228(s2)
   16db4:	00090513          	mv	a0,s2
   16db8:	428050ef          	jal	ra,1c1e0 <__set_ctype>
   16dbc:	000a9e63          	bnez	s5,16dd8 <__loadlocale+0x67c>
   16dc0:	000b1c63          	bnez	s6,16dd8 <__loadlocale+0x67c>
   16dc4:	00100793          	li	a5,1
   16dc8:	00fc0863          	beq	s8,a5,16dd8 <__loadlocale+0x67c>
   16dcc:	01014a83          	lbu	s5,16(sp)
   16dd0:	faba8a93          	addi	s5,s5,-85
   16dd4:	01503ab3          	snez	s5,s5
   16dd8:	060b9663          	bnez	s7,16e44 <__loadlocale+0x6e8>
   16ddc:	0f592423          	sw	s5,232(s2)
   16de0:	c21ff06f          	j	16a00 <__loadlocale+0x2a4>
   16de4:	001a8c13          	addi	s8,s5,1
   16de8:	0000b597          	auipc	a1,0xb
   16dec:	d4c58593          	addi	a1,a1,-692 # 21b34 <blanks.1+0xcc>
   16df0:	000c0513          	mv	a0,s8
   16df4:	3c1020ef          	jal	ra,199b4 <strcmp>
   16df8:	00050b13          	mv	s6,a0
   16dfc:	00000a93          	li	s5,0
   16e00:	00100b93          	li	s7,1
   16e04:	aa0506e3          	beqz	a0,168b0 <__loadlocale+0x154>
   16e08:	0000b597          	auipc	a1,0xb
   16e0c:	d3858593          	addi	a1,a1,-712 # 21b40 <blanks.1+0xd8>
   16e10:	000c0513          	mv	a0,s8
   16e14:	3a1020ef          	jal	ra,199b4 <strcmp>
   16e18:	00050a93          	mv	s5,a0
   16e1c:	00000b93          	li	s7,0
   16e20:	00100b13          	li	s6,1
   16e24:	a80506e3          	beqz	a0,168b0 <__loadlocale+0x154>
   16e28:	0000b597          	auipc	a1,0xb
   16e2c:	d2458593          	addi	a1,a1,-732 # 21b4c <blanks.1+0xe4>
   16e30:	000c0513          	mv	a0,s8
   16e34:	381020ef          	jal	ra,199b4 <strcmp>
   16e38:	00153a93          	seqz	s5,a0
   16e3c:	00000b13          	li	s6,0
   16e40:	a71ff06f          	j	168b0 <__loadlocale+0x154>
   16e44:	fff00793          	li	a5,-1
   16e48:	0ef92423          	sw	a5,232(s2)
   16e4c:	bb5ff06f          	j	16a00 <__loadlocale+0x2a4>
   16e50:	01010a13          	addi	s4,sp,16
   16e54:	001a8a93          	addi	s5,s5,1
   16e58:	ae1ff06f          	j	16938 <__loadlocale+0x1dc>
   16e5c:	1b500793          	li	a5,437
   16e60:	c0f502e3          	beq	a0,a5,16a64 <__loadlocale+0x308>
   16e64:	2d000793          	li	a5,720
   16e68:	bef50ee3          	beq	a0,a5,16a64 <__loadlocale+0x308>
   16e6c:	00000493          	li	s1,0
   16e70:	945ff06f          	j	167b4 <__loadlocale+0x58>
   16e74:	010117b7          	lui	a5,0x1011
   16e78:	cae50513          	addi	a0,a0,-850
   16e7c:	1a578793          	addi	a5,a5,421 # 10111a5 <__BSS_END__+0xfed375>
   16e80:	00a7d7b3          	srl	a5,a5,a0
   16e84:	0017f793          	andi	a5,a5,1
   16e88:	bc079ee3          	bnez	a5,16a64 <__loadlocale+0x308>
   16e8c:	00000493          	li	s1,0
   16e90:	925ff06f          	j	167b4 <__loadlocale+0x58>
   16e94:	46500793          	li	a5,1125
   16e98:	bcf506e3          	beq	a0,a5,16a64 <__loadlocale+0x308>
   16e9c:	b1e50513          	addi	a0,a0,-1250
   16ea0:	00800793          	li	a5,8
   16ea4:	bca7f0e3          	bgeu	a5,a0,16a64 <__loadlocale+0x308>
   16ea8:	00000493          	li	s1,0
   16eac:	909ff06f          	j	167b4 <__loadlocale+0x58>
   16eb0:	0000b597          	auipc	a1,0xb
   16eb4:	cf458593          	addi	a1,a1,-780 # 21ba4 <blanks.1+0x13c>
   16eb8:	000a0513          	mv	a0,s4
   16ebc:	475020ef          	jal	ra,19b30 <strcpy>
   16ec0:	ba5ff06f          	j	16a64 <__loadlocale+0x308>

00016ec4 <__get_locale_env>:
   16ec4:	ff010113          	addi	sp,sp,-16
   16ec8:	00812423          	sw	s0,8(sp)
   16ecc:	00058413          	mv	s0,a1
   16ed0:	0000b597          	auipc	a1,0xb
   16ed4:	df058593          	addi	a1,a1,-528 # 21cc0 <blanks.1+0x258>
   16ed8:	00912223          	sw	s1,4(sp)
   16edc:	00112623          	sw	ra,12(sp)
   16ee0:	00050493          	mv	s1,a0
   16ee4:	5fd050ef          	jal	ra,1cce0 <_getenv_r>
   16ee8:	00050663          	beqz	a0,16ef4 <__get_locale_env+0x30>
   16eec:	00054783          	lbu	a5,0(a0)
   16ef0:	04079663          	bnez	a5,16f3c <__get_locale_env+0x78>
   16ef4:	00241793          	slli	a5,s0,0x2
   16ef8:	0000b717          	auipc	a4,0xb
   16efc:	f8c70713          	addi	a4,a4,-116 # 21e84 <categories>
   16f00:	00f707b3          	add	a5,a4,a5
   16f04:	0007a583          	lw	a1,0(a5)
   16f08:	00048513          	mv	a0,s1
   16f0c:	5d5050ef          	jal	ra,1cce0 <_getenv_r>
   16f10:	00050663          	beqz	a0,16f1c <__get_locale_env+0x58>
   16f14:	00054783          	lbu	a5,0(a0)
   16f18:	02079263          	bnez	a5,16f3c <__get_locale_env+0x78>
   16f1c:	0000b597          	auipc	a1,0xb
   16f20:	dac58593          	addi	a1,a1,-596 # 21cc8 <blanks.1+0x260>
   16f24:	00048513          	mv	a0,s1
   16f28:	5b9050ef          	jal	ra,1cce0 <_getenv_r>
   16f2c:	00050663          	beqz	a0,16f38 <__get_locale_env+0x74>
   16f30:	00054783          	lbu	a5,0(a0)
   16f34:	00079463          	bnez	a5,16f3c <__get_locale_env+0x78>
   16f38:	19c18513          	addi	a0,gp,412 # 23a5c <__default_locale>
   16f3c:	00c12083          	lw	ra,12(sp)
   16f40:	00812403          	lw	s0,8(sp)
   16f44:	00412483          	lw	s1,4(sp)
   16f48:	01010113          	addi	sp,sp,16
   16f4c:	00008067          	ret

00016f50 <_setlocale_r>:
   16f50:	fd010113          	addi	sp,sp,-48
   16f54:	01412c23          	sw	s4,24(sp)
   16f58:	02112623          	sw	ra,44(sp)
   16f5c:	02812423          	sw	s0,40(sp)
   16f60:	02912223          	sw	s1,36(sp)
   16f64:	03212023          	sw	s2,32(sp)
   16f68:	01312e23          	sw	s3,28(sp)
   16f6c:	01512a23          	sw	s5,20(sp)
   16f70:	01612823          	sw	s6,16(sp)
   16f74:	01712623          	sw	s7,12(sp)
   16f78:	01812423          	sw	s8,8(sp)
   16f7c:	01912223          	sw	s9,4(sp)
   16f80:	01a12023          	sw	s10,0(sp)
   16f84:	00600793          	li	a5,6
   16f88:	00050a13          	mv	s4,a0
   16f8c:	18b7e063          	bltu	a5,a1,1710c <_setlocale_r+0x1bc>
   16f90:	00058b93          	mv	s7,a1
   16f94:	00060993          	mv	s3,a2
   16f98:	24060e63          	beqz	a2,171f4 <_setlocale_r+0x2a4>
   16f9c:	3c818a93          	addi	s5,gp,968 # 23c88 <new_categories.1+0x20>
   16fa0:	05018913          	addi	s2,gp,80 # 23910 <__global_locale+0x20>
   16fa4:	48818b13          	addi	s6,gp,1160 # 23d48 <global_locale_string>
   16fa8:	00090493          	mv	s1,s2
   16fac:	000a8413          	mv	s0,s5
   16fb0:	00048593          	mv	a1,s1
   16fb4:	00040513          	mv	a0,s0
   16fb8:	02040413          	addi	s0,s0,32
   16fbc:	375020ef          	jal	ra,19b30 <strcpy>
   16fc0:	02048493          	addi	s1,s1,32
   16fc4:	ff6416e3          	bne	s0,s6,16fb0 <_setlocale_r+0x60>
   16fc8:	0009c783          	lbu	a5,0(s3)
   16fcc:	0c079863          	bnez	a5,1709c <_setlocale_r+0x14c>
   16fd0:	220b9c63          	bnez	s7,17208 <_setlocale_r+0x2b8>
   16fd4:	3c818993          	addi	s3,gp,968 # 23c88 <new_categories.1+0x20>
   16fd8:	00100413          	li	s0,1
   16fdc:	01f00b13          	li	s6,31
   16fe0:	00700b93          	li	s7,7
   16fe4:	00040593          	mv	a1,s0
   16fe8:	000a0513          	mv	a0,s4
   16fec:	ed9ff0ef          	jal	ra,16ec4 <__get_locale_env>
   16ff0:	00050493          	mv	s1,a0
   16ff4:	445020ef          	jal	ra,19c38 <strlen>
   16ff8:	00050793          	mv	a5,a0
   16ffc:	00048593          	mv	a1,s1
   17000:	00098513          	mv	a0,s3
   17004:	00140413          	addi	s0,s0,1
   17008:	10fb6263          	bltu	s6,a5,1710c <_setlocale_r+0x1bc>
   1700c:	325020ef          	jal	ra,19b30 <strcpy>
   17010:	02098993          	addi	s3,s3,32
   17014:	fd7418e3          	bne	s0,s7,16fe4 <_setlocale_r+0x94>
   17018:	2e818c13          	addi	s8,gp,744 # 23ba8 <saved_categories.0+0x20>
   1701c:	3c818993          	addi	s3,gp,968 # 23c88 <new_categories.1+0x20>
   17020:	000c0493          	mv	s1,s8
   17024:	00100413          	li	s0,1
   17028:	03018b93          	addi	s7,gp,48 # 238f0 <__global_locale>
   1702c:	00700b13          	li	s6,7
   17030:	00090593          	mv	a1,s2
   17034:	00048513          	mv	a0,s1
   17038:	2f9020ef          	jal	ra,19b30 <strcpy>
   1703c:	00098613          	mv	a2,s3
   17040:	00040593          	mv	a1,s0
   17044:	000b8513          	mv	a0,s7
   17048:	f14ff0ef          	jal	ra,1675c <__loadlocale>
   1704c:	1e050a63          	beqz	a0,17240 <_setlocale_r+0x2f0>
   17050:	00140413          	addi	s0,s0,1
   17054:	02048493          	addi	s1,s1,32
   17058:	02090913          	addi	s2,s2,32
   1705c:	02098993          	addi	s3,s3,32
   17060:	fd6418e3          	bne	s0,s6,17030 <_setlocale_r+0xe0>
   17064:	02812403          	lw	s0,40(sp)
   17068:	02c12083          	lw	ra,44(sp)
   1706c:	02412483          	lw	s1,36(sp)
   17070:	02012903          	lw	s2,32(sp)
   17074:	01c12983          	lw	s3,28(sp)
   17078:	01812a03          	lw	s4,24(sp)
   1707c:	01412a83          	lw	s5,20(sp)
   17080:	01012b03          	lw	s6,16(sp)
   17084:	00c12b83          	lw	s7,12(sp)
   17088:	00812c03          	lw	s8,8(sp)
   1708c:	00412c83          	lw	s9,4(sp)
   17090:	00012d03          	lw	s10,0(sp)
   17094:	03010113          	addi	sp,sp,48
   17098:	e0cff06f          	j	166a4 <currentlocale>
   1709c:	0a0b8a63          	beqz	s7,17150 <_setlocale_r+0x200>
   170a0:	00098513          	mv	a0,s3
   170a4:	395020ef          	jal	ra,19c38 <strlen>
   170a8:	01f00793          	li	a5,31
   170ac:	06a7e063          	bltu	a5,a0,1710c <_setlocale_r+0x1bc>
   170b0:	005b9413          	slli	s0,s7,0x5
   170b4:	3a818793          	addi	a5,gp,936 # 23c68 <new_categories.1>
   170b8:	00f40433          	add	s0,s0,a5
   170bc:	00098593          	mv	a1,s3
   170c0:	00040513          	mv	a0,s0
   170c4:	26d020ef          	jal	ra,19b30 <strcpy>
   170c8:	00040613          	mv	a2,s0
   170cc:	02812403          	lw	s0,40(sp)
   170d0:	02c12083          	lw	ra,44(sp)
   170d4:	02412483          	lw	s1,36(sp)
   170d8:	02012903          	lw	s2,32(sp)
   170dc:	01c12983          	lw	s3,28(sp)
   170e0:	01812a03          	lw	s4,24(sp)
   170e4:	01412a83          	lw	s5,20(sp)
   170e8:	01012b03          	lw	s6,16(sp)
   170ec:	00812c03          	lw	s8,8(sp)
   170f0:	00412c83          	lw	s9,4(sp)
   170f4:	00012d03          	lw	s10,0(sp)
   170f8:	000b8593          	mv	a1,s7
   170fc:	00c12b83          	lw	s7,12(sp)
   17100:	03018513          	addi	a0,gp,48 # 238f0 <__global_locale>
   17104:	03010113          	addi	sp,sp,48
   17108:	e54ff06f          	j	1675c <__loadlocale>
   1710c:	01600993          	li	s3,22
   17110:	013a2023          	sw	s3,0(s4)
   17114:	00000513          	li	a0,0
   17118:	02c12083          	lw	ra,44(sp)
   1711c:	02812403          	lw	s0,40(sp)
   17120:	02412483          	lw	s1,36(sp)
   17124:	02012903          	lw	s2,32(sp)
   17128:	01c12983          	lw	s3,28(sp)
   1712c:	01812a03          	lw	s4,24(sp)
   17130:	01412a83          	lw	s5,20(sp)
   17134:	01012b03          	lw	s6,16(sp)
   17138:	00c12b83          	lw	s7,12(sp)
   1713c:	00812c03          	lw	s8,8(sp)
   17140:	00412c83          	lw	s9,4(sp)
   17144:	00012d03          	lw	s10,0(sp)
   17148:	03010113          	addi	sp,sp,48
   1714c:	00008067          	ret
   17150:	02f00593          	li	a1,47
   17154:	00098513          	mv	a0,s3
   17158:	71c020ef          	jal	ra,19874 <strchr>
   1715c:	00050413          	mv	s0,a0
   17160:	16050c63          	beqz	a0,172d8 <_setlocale_r+0x388>
   17164:	00154783          	lbu	a5,1(a0)
   17168:	02f00693          	li	a3,47
   1716c:	02f00713          	li	a4,47
   17170:	00d79863          	bne	a5,a3,17180 <_setlocale_r+0x230>
   17174:	00244783          	lbu	a5,2(s0)
   17178:	00140413          	addi	s0,s0,1
   1717c:	fee78ce3          	beq	a5,a4,17174 <_setlocale_r+0x224>
   17180:	f80786e3          	beqz	a5,1710c <_setlocale_r+0x1bc>
   17184:	3c818d13          	addi	s10,gp,968 # 23c88 <new_categories.1+0x20>
   17188:	00100b93          	li	s7,1
   1718c:	01f00c13          	li	s8,31
   17190:	02f00493          	li	s1,47
   17194:	00700c93          	li	s9,7
   17198:	41340633          	sub	a2,s0,s3
   1719c:	f6cc48e3          	blt	s8,a2,1710c <_setlocale_r+0x1bc>
   171a0:	00160613          	addi	a2,a2,1
   171a4:	00098593          	mv	a1,s3
   171a8:	000d0513          	mv	a0,s10
   171ac:	235020ef          	jal	ra,19be0 <strlcpy>
   171b0:	00044783          	lbu	a5,0(s0)
   171b4:	001b8b93          	addi	s7,s7,1
   171b8:	00979863          	bne	a5,s1,171c8 <_setlocale_r+0x278>
   171bc:	00144783          	lbu	a5,1(s0)
   171c0:	00140413          	addi	s0,s0,1
   171c4:	fe978ce3          	beq	a5,s1,171bc <_setlocale_r+0x26c>
   171c8:	0e078263          	beqz	a5,172ac <_setlocale_r+0x35c>
   171cc:	00040713          	mv	a4,s0
   171d0:	00978863          	beq	a5,s1,171e0 <_setlocale_r+0x290>
   171d4:	00174783          	lbu	a5,1(a4)
   171d8:	00170713          	addi	a4,a4,1
   171dc:	fe079ae3          	bnez	a5,171d0 <_setlocale_r+0x280>
   171e0:	020d0d13          	addi	s10,s10,32
   171e4:	e39b8ae3          	beq	s7,s9,17018 <_setlocale_r+0xc8>
   171e8:	00040993          	mv	s3,s0
   171ec:	00070413          	mv	s0,a4
   171f0:	fa9ff06f          	j	17198 <_setlocale_r+0x248>
   171f4:	e60588e3          	beqz	a1,17064 <_setlocale_r+0x114>
   171f8:	00559513          	slli	a0,a1,0x5
   171fc:	03018793          	addi	a5,gp,48 # 238f0 <__global_locale>
   17200:	00f50533          	add	a0,a0,a5
   17204:	f15ff06f          	j	17118 <_setlocale_r+0x1c8>
   17208:	000b8593          	mv	a1,s7
   1720c:	000a0513          	mv	a0,s4
   17210:	cb5ff0ef          	jal	ra,16ec4 <__get_locale_env>
   17214:	00050493          	mv	s1,a0
   17218:	221020ef          	jal	ra,19c38 <strlen>
   1721c:	01f00793          	li	a5,31
   17220:	eea7e6e3          	bltu	a5,a0,1710c <_setlocale_r+0x1bc>
   17224:	005b9413          	slli	s0,s7,0x5
   17228:	3a818793          	addi	a5,gp,936 # 23c68 <new_categories.1>
   1722c:	00f40433          	add	s0,s0,a5
   17230:	00048593          	mv	a1,s1
   17234:	00040513          	mv	a0,s0
   17238:	0f9020ef          	jal	ra,19b30 <strcpy>
   1723c:	e8dff06f          	j	170c8 <_setlocale_r+0x178>
   17240:	00100493          	li	s1,1
   17244:	000a2983          	lw	s3,0(s4)
   17248:	03018913          	addi	s2,gp,48 # 238f0 <__global_locale>
   1724c:	0000bb17          	auipc	s6,0xb
   17250:	8d0b0b13          	addi	s6,s6,-1840 # 21b1c <blanks.1+0xb4>
   17254:	00941c63          	bne	s0,s1,1726c <_setlocale_r+0x31c>
   17258:	eb9ff06f          	j	17110 <_setlocale_r+0x1c0>
   1725c:	00148493          	addi	s1,s1,1
   17260:	020a8a93          	addi	s5,s5,32
   17264:	020c0c13          	addi	s8,s8,32
   17268:	ea8484e3          	beq	s1,s0,17110 <_setlocale_r+0x1c0>
   1726c:	000c0593          	mv	a1,s8
   17270:	000a8513          	mv	a0,s5
   17274:	0bd020ef          	jal	ra,19b30 <strcpy>
   17278:	000a8613          	mv	a2,s5
   1727c:	00048593          	mv	a1,s1
   17280:	00090513          	mv	a0,s2
   17284:	cd8ff0ef          	jal	ra,1675c <__loadlocale>
   17288:	fc051ae3          	bnez	a0,1725c <_setlocale_r+0x30c>
   1728c:	000b0593          	mv	a1,s6
   17290:	000a8513          	mv	a0,s5
   17294:	09d020ef          	jal	ra,19b30 <strcpy>
   17298:	000a8613          	mv	a2,s5
   1729c:	00048593          	mv	a1,s1
   172a0:	00090513          	mv	a0,s2
   172a4:	cb8ff0ef          	jal	ra,1675c <__loadlocale>
   172a8:	fb5ff06f          	j	1725c <_setlocale_r+0x30c>
   172ac:	00700793          	li	a5,7
   172b0:	d6fb84e3          	beq	s7,a5,17018 <_setlocale_r+0xc8>
   172b4:	005b9413          	slli	s0,s7,0x5
   172b8:	3a818793          	addi	a5,gp,936 # 23c68 <new_categories.1>
   172bc:	00f40433          	add	s0,s0,a5
   172c0:	fe040593          	addi	a1,s0,-32
   172c4:	00040513          	mv	a0,s0
   172c8:	02040413          	addi	s0,s0,32
   172cc:	065020ef          	jal	ra,19b30 <strcpy>
   172d0:	ff6418e3          	bne	s0,s6,172c0 <_setlocale_r+0x370>
   172d4:	d45ff06f          	j	17018 <_setlocale_r+0xc8>
   172d8:	00098513          	mv	a0,s3
   172dc:	15d020ef          	jal	ra,19c38 <strlen>
   172e0:	01f00793          	li	a5,31
   172e4:	e2a7e4e3          	bltu	a5,a0,1710c <_setlocale_r+0x1bc>
   172e8:	3c818413          	addi	s0,gp,968 # 23c88 <new_categories.1+0x20>
   172ec:	00040513          	mv	a0,s0
   172f0:	00098593          	mv	a1,s3
   172f4:	02040413          	addi	s0,s0,32
   172f8:	039020ef          	jal	ra,19b30 <strcpy>
   172fc:	ff6418e3          	bne	s0,s6,172ec <_setlocale_r+0x39c>
   17300:	d19ff06f          	j	17018 <_setlocale_r+0xc8>

00017304 <__locale_mb_cur_max>:
   17304:	1581c503          	lbu	a0,344(gp) # 23a18 <__global_locale+0x128>
   17308:	00008067          	ret

0001730c <setlocale>:
   1730c:	00058613          	mv	a2,a1
   17310:	00050593          	mv	a1,a0
   17314:	2301a503          	lw	a0,560(gp) # 23af0 <_impure_ptr>
   17318:	c39ff06f          	j	16f50 <_setlocale_r>

0001731c <__retarget_lock_init>:
   1731c:	00008067          	ret

00017320 <__retarget_lock_init_recursive>:
   17320:	00008067          	ret

00017324 <__retarget_lock_close>:
   17324:	00008067          	ret

00017328 <__retarget_lock_close_recursive>:
   17328:	00008067          	ret

0001732c <__retarget_lock_acquire>:
   1732c:	00008067          	ret

00017330 <__retarget_lock_acquire_recursive>:
   17330:	00008067          	ret

00017334 <__retarget_lock_try_acquire>:
   17334:	00100513          	li	a0,1
   17338:	00008067          	ret

0001733c <__retarget_lock_try_acquire_recursive>:
   1733c:	00100513          	li	a0,1
   17340:	00008067          	ret

00017344 <__retarget_lock_release>:
   17344:	00008067          	ret

00017348 <__retarget_lock_release_recursive>:
   17348:	00008067          	ret

0001734c <__smakebuf_r>:
   1734c:	00c59783          	lh	a5,12(a1)
   17350:	f8010113          	addi	sp,sp,-128
   17354:	06812c23          	sw	s0,120(sp)
   17358:	06112e23          	sw	ra,124(sp)
   1735c:	06912a23          	sw	s1,116(sp)
   17360:	07212823          	sw	s2,112(sp)
   17364:	07312623          	sw	s3,108(sp)
   17368:	07412423          	sw	s4,104(sp)
   1736c:	0027f713          	andi	a4,a5,2
   17370:	00058413          	mv	s0,a1
   17374:	02070c63          	beqz	a4,173ac <__smakebuf_r+0x60>
   17378:	04358793          	addi	a5,a1,67
   1737c:	00f5a023          	sw	a5,0(a1)
   17380:	00f5a823          	sw	a5,16(a1)
   17384:	00100793          	li	a5,1
   17388:	00f5aa23          	sw	a5,20(a1)
   1738c:	07c12083          	lw	ra,124(sp)
   17390:	07812403          	lw	s0,120(sp)
   17394:	07412483          	lw	s1,116(sp)
   17398:	07012903          	lw	s2,112(sp)
   1739c:	06c12983          	lw	s3,108(sp)
   173a0:	06812a03          	lw	s4,104(sp)
   173a4:	08010113          	addi	sp,sp,128
   173a8:	00008067          	ret
   173ac:	00e59583          	lh	a1,14(a1)
   173b0:	00050493          	mv	s1,a0
   173b4:	0805cc63          	bltz	a1,1744c <__smakebuf_r+0x100>
   173b8:	00810613          	addi	a2,sp,8
   173bc:	328050ef          	jal	ra,1c6e4 <_fstat_r>
   173c0:	08054463          	bltz	a0,17448 <__smakebuf_r+0xfc>
   173c4:	00c12783          	lw	a5,12(sp)
   173c8:	0000f937          	lui	s2,0xf
   173cc:	00001a37          	lui	s4,0x1
   173d0:	00f97933          	and	s2,s2,a5
   173d4:	ffffe7b7          	lui	a5,0xffffe
   173d8:	00f90933          	add	s2,s2,a5
   173dc:	00193913          	seqz	s2,s2
   173e0:	40000993          	li	s3,1024
   173e4:	800a0a13          	addi	s4,s4,-2048 # 800 <exit-0xf894>
   173e8:	00098593          	mv	a1,s3
   173ec:	00048513          	mv	a0,s1
   173f0:	8a0f90ef          	jal	ra,10490 <_malloc_r>
   173f4:	00c41783          	lh	a5,12(s0)
   173f8:	06050e63          	beqz	a0,17474 <__smakebuf_r+0x128>
   173fc:	fffff717          	auipc	a4,0xfffff
   17400:	89870713          	addi	a4,a4,-1896 # 15c94 <_cleanup_r>
   17404:	02e4ae23          	sw	a4,60(s1)
   17408:	0807e793          	ori	a5,a5,128
   1740c:	00f41623          	sh	a5,12(s0)
   17410:	00a42023          	sw	a0,0(s0)
   17414:	00a42823          	sw	a0,16(s0)
   17418:	01342a23          	sw	s3,20(s0)
   1741c:	08091863          	bnez	s2,174ac <__smakebuf_r+0x160>
   17420:	0147e7b3          	or	a5,a5,s4
   17424:	07c12083          	lw	ra,124(sp)
   17428:	00f41623          	sh	a5,12(s0)
   1742c:	07812403          	lw	s0,120(sp)
   17430:	07412483          	lw	s1,116(sp)
   17434:	07012903          	lw	s2,112(sp)
   17438:	06c12983          	lw	s3,108(sp)
   1743c:	06812a03          	lw	s4,104(sp)
   17440:	08010113          	addi	sp,sp,128
   17444:	00008067          	ret
   17448:	00c41783          	lh	a5,12(s0)
   1744c:	0807f793          	andi	a5,a5,128
   17450:	00000913          	li	s2,0
   17454:	04078663          	beqz	a5,174a0 <__smakebuf_r+0x154>
   17458:	04000993          	li	s3,64
   1745c:	00098593          	mv	a1,s3
   17460:	00048513          	mv	a0,s1
   17464:	82cf90ef          	jal	ra,10490 <_malloc_r>
   17468:	00c41783          	lh	a5,12(s0)
   1746c:	00000a13          	li	s4,0
   17470:	f80516e3          	bnez	a0,173fc <__smakebuf_r+0xb0>
   17474:	2007f713          	andi	a4,a5,512
   17478:	f0071ae3          	bnez	a4,1738c <__smakebuf_r+0x40>
   1747c:	ffc7f793          	andi	a5,a5,-4
   17480:	0027e793          	ori	a5,a5,2
   17484:	04340713          	addi	a4,s0,67
   17488:	00f41623          	sh	a5,12(s0)
   1748c:	00100793          	li	a5,1
   17490:	00e42023          	sw	a4,0(s0)
   17494:	00e42823          	sw	a4,16(s0)
   17498:	00f42a23          	sw	a5,20(s0)
   1749c:	ef1ff06f          	j	1738c <__smakebuf_r+0x40>
   174a0:	40000993          	li	s3,1024
   174a4:	00000a13          	li	s4,0
   174a8:	f41ff06f          	j	173e8 <__smakebuf_r+0x9c>
   174ac:	00e41583          	lh	a1,14(s0)
   174b0:	00048513          	mv	a0,s1
   174b4:	049050ef          	jal	ra,1ccfc <_isatty_r>
   174b8:	00051663          	bnez	a0,174c4 <__smakebuf_r+0x178>
   174bc:	00c41783          	lh	a5,12(s0)
   174c0:	f61ff06f          	j	17420 <__smakebuf_r+0xd4>
   174c4:	00c45783          	lhu	a5,12(s0)
   174c8:	ffc7f793          	andi	a5,a5,-4
   174cc:	0017e793          	ori	a5,a5,1
   174d0:	01079793          	slli	a5,a5,0x10
   174d4:	4107d793          	srai	a5,a5,0x10
   174d8:	f49ff06f          	j	17420 <__smakebuf_r+0xd4>

000174dc <__swhatbuf_r>:
   174dc:	f9010113          	addi	sp,sp,-112
   174e0:	06812423          	sw	s0,104(sp)
   174e4:	00058413          	mv	s0,a1
   174e8:	00e59583          	lh	a1,14(a1)
   174ec:	06912223          	sw	s1,100(sp)
   174f0:	07212023          	sw	s2,96(sp)
   174f4:	06112623          	sw	ra,108(sp)
   174f8:	00060493          	mv	s1,a2
   174fc:	00068913          	mv	s2,a3
   17500:	0405ca63          	bltz	a1,17554 <__swhatbuf_r+0x78>
   17504:	00810613          	addi	a2,sp,8
   17508:	1dc050ef          	jal	ra,1c6e4 <_fstat_r>
   1750c:	04054463          	bltz	a0,17554 <__swhatbuf_r+0x78>
   17510:	00c12703          	lw	a4,12(sp)
   17514:	0000f7b7          	lui	a5,0xf
   17518:	06c12083          	lw	ra,108(sp)
   1751c:	00e7f7b3          	and	a5,a5,a4
   17520:	ffffe737          	lui	a4,0xffffe
   17524:	00e787b3          	add	a5,a5,a4
   17528:	06812403          	lw	s0,104(sp)
   1752c:	0017b793          	seqz	a5,a5
   17530:	00f92023          	sw	a5,0(s2) # f000 <exit-0x1094>
   17534:	40000713          	li	a4,1024
   17538:	00e4a023          	sw	a4,0(s1)
   1753c:	00001537          	lui	a0,0x1
   17540:	06412483          	lw	s1,100(sp)
   17544:	06012903          	lw	s2,96(sp)
   17548:	80050513          	addi	a0,a0,-2048 # 800 <exit-0xf894>
   1754c:	07010113          	addi	sp,sp,112
   17550:	00008067          	ret
   17554:	00c45783          	lhu	a5,12(s0)
   17558:	0807f793          	andi	a5,a5,128
   1755c:	02078863          	beqz	a5,1758c <__swhatbuf_r+0xb0>
   17560:	06c12083          	lw	ra,108(sp)
   17564:	06812403          	lw	s0,104(sp)
   17568:	00000793          	li	a5,0
   1756c:	00f92023          	sw	a5,0(s2)
   17570:	04000713          	li	a4,64
   17574:	00e4a023          	sw	a4,0(s1)
   17578:	06012903          	lw	s2,96(sp)
   1757c:	06412483          	lw	s1,100(sp)
   17580:	00000513          	li	a0,0
   17584:	07010113          	addi	sp,sp,112
   17588:	00008067          	ret
   1758c:	06c12083          	lw	ra,108(sp)
   17590:	06812403          	lw	s0,104(sp)
   17594:	00f92023          	sw	a5,0(s2)
   17598:	40000713          	li	a4,1024
   1759c:	00e4a023          	sw	a4,0(s1)
   175a0:	06012903          	lw	s2,96(sp)
   175a4:	06412483          	lw	s1,100(sp)
   175a8:	00000513          	li	a0,0
   175ac:	07010113          	addi	sp,sp,112
   175b0:	00008067          	ret

000175b4 <_mbtowc_r>:
   175b4:	1141a783          	lw	a5,276(gp) # 239d4 <__global_locale+0xe4>
   175b8:	00078067          	jr	a5 # f000 <exit-0x1094>

000175bc <__ascii_mbtowc>:
   175bc:	02058063          	beqz	a1,175dc <__ascii_mbtowc+0x20>
   175c0:	04060263          	beqz	a2,17604 <__ascii_mbtowc+0x48>
   175c4:	04068863          	beqz	a3,17614 <__ascii_mbtowc+0x58>
   175c8:	00064783          	lbu	a5,0(a2)
   175cc:	00f5a023          	sw	a5,0(a1)
   175d0:	00064503          	lbu	a0,0(a2)
   175d4:	00a03533          	snez	a0,a0
   175d8:	00008067          	ret
   175dc:	ff010113          	addi	sp,sp,-16
   175e0:	00c10593          	addi	a1,sp,12
   175e4:	02060463          	beqz	a2,1760c <__ascii_mbtowc+0x50>
   175e8:	02068a63          	beqz	a3,1761c <__ascii_mbtowc+0x60>
   175ec:	00064783          	lbu	a5,0(a2)
   175f0:	00f5a023          	sw	a5,0(a1)
   175f4:	00064503          	lbu	a0,0(a2)
   175f8:	00a03533          	snez	a0,a0
   175fc:	01010113          	addi	sp,sp,16
   17600:	00008067          	ret
   17604:	00000513          	li	a0,0
   17608:	00008067          	ret
   1760c:	00000513          	li	a0,0
   17610:	fedff06f          	j	175fc <__ascii_mbtowc+0x40>
   17614:	ffe00513          	li	a0,-2
   17618:	00008067          	ret
   1761c:	ffe00513          	li	a0,-2
   17620:	fddff06f          	j	175fc <__ascii_mbtowc+0x40>

00017624 <__utf8_mbtowc>:
   17624:	ff010113          	addi	sp,sp,-16
   17628:	00050e13          	mv	t3,a0
   1762c:	0a058463          	beqz	a1,176d4 <__utf8_mbtowc+0xb0>
   17630:	08060c63          	beqz	a2,176c8 <__utf8_mbtowc+0xa4>
   17634:	28068663          	beqz	a3,178c0 <__utf8_mbtowc+0x29c>
   17638:	00072803          	lw	a6,0(a4) # ffffe000 <__BSS_END__+0xfffda1d0>
   1763c:	06081c63          	bnez	a6,176b4 <__utf8_mbtowc+0x90>
   17640:	00064783          	lbu	a5,0(a2)
   17644:	00100513          	li	a0,1
   17648:	06078c63          	beqz	a5,176c0 <__utf8_mbtowc+0x9c>
   1764c:	07f00893          	li	a7,127
   17650:	12f8d263          	bge	a7,a5,17774 <__utf8_mbtowc+0x150>
   17654:	f4078893          	addi	a7,a5,-192
   17658:	01f00313          	li	t1,31
   1765c:	09136063          	bltu	t1,a7,176dc <__utf8_mbtowc+0xb8>
   17660:	00f70223          	sb	a5,4(a4)
   17664:	00081863          	bnez	a6,17674 <__utf8_mbtowc+0x50>
   17668:	00100813          	li	a6,1
   1766c:	01072023          	sw	a6,0(a4)
   17670:	25068863          	beq	a3,a6,178c0 <__utf8_mbtowc+0x29c>
   17674:	00a60633          	add	a2,a2,a0
   17678:	00064683          	lbu	a3,0(a2)
   1767c:	03f00613          	li	a2,63
   17680:	00150513          	addi	a0,a0,1
   17684:	f8068813          	addi	a6,a3,-128
   17688:	21066e63          	bltu	a2,a6,178a4 <__utf8_mbtowc+0x280>
   1768c:	0c100613          	li	a2,193
   17690:	20f65a63          	bge	a2,a5,178a4 <__utf8_mbtowc+0x280>
   17694:	00679793          	slli	a5,a5,0x6
   17698:	7c07f793          	andi	a5,a5,1984
   1769c:	03f6f693          	andi	a3,a3,63
   176a0:	00072023          	sw	zero,0(a4)
   176a4:	00d7e7b3          	or	a5,a5,a3
   176a8:	00f5a023          	sw	a5,0(a1)
   176ac:	01010113          	addi	sp,sp,16
   176b0:	00008067          	ret
   176b4:	00474783          	lbu	a5,4(a4)
   176b8:	00000513          	li	a0,0
   176bc:	f80798e3          	bnez	a5,1764c <__utf8_mbtowc+0x28>
   176c0:	0005a023          	sw	zero,0(a1)
   176c4:	00072023          	sw	zero,0(a4)
   176c8:	00000513          	li	a0,0
   176cc:	01010113          	addi	sp,sp,16
   176d0:	00008067          	ret
   176d4:	00c10593          	addi	a1,sp,12
   176d8:	f59ff06f          	j	17630 <__utf8_mbtowc+0xc>
   176dc:	f2078893          	addi	a7,a5,-224
   176e0:	00f00313          	li	t1,15
   176e4:	0b136263          	bltu	t1,a7,17788 <__utf8_mbtowc+0x164>
   176e8:	00f70223          	sb	a5,4(a4)
   176ec:	16080863          	beqz	a6,1785c <__utf8_mbtowc+0x238>
   176f0:	00168893          	addi	a7,a3,1
   176f4:	011038b3          	snez	a7,a7
   176f8:	00100313          	li	t1,1
   176fc:	011686b3          	add	a3,a3,a7
   17700:	16680463          	beq	a6,t1,17868 <__utf8_mbtowc+0x244>
   17704:	00574883          	lbu	a7,5(a4)
   17708:	0e000313          	li	t1,224
   1770c:	18678863          	beq	a5,t1,1789c <__utf8_mbtowc+0x278>
   17710:	f8088313          	addi	t1,a7,-128
   17714:	03f00e93          	li	t4,63
   17718:	186ee663          	bltu	t4,t1,178a4 <__utf8_mbtowc+0x280>
   1771c:	011702a3          	sb	a7,5(a4)
   17720:	00100313          	li	t1,1
   17724:	18680863          	beq	a6,t1,178b4 <__utf8_mbtowc+0x290>
   17728:	00a60633          	add	a2,a2,a0
   1772c:	00064683          	lbu	a3,0(a2)
   17730:	03f00613          	li	a2,63
   17734:	00150513          	addi	a0,a0,1
   17738:	f8068813          	addi	a6,a3,-128
   1773c:	17066463          	bltu	a2,a6,178a4 <__utf8_mbtowc+0x280>
   17740:	0000f637          	lui	a2,0xf
   17744:	00c79793          	slli	a5,a5,0xc
   17748:	00c7f7b3          	and	a5,a5,a2
   1774c:	00001637          	lui	a2,0x1
   17750:	00689893          	slli	a7,a7,0x6
   17754:	fc060613          	addi	a2,a2,-64 # fc0 <exit-0xf0d4>
   17758:	00c8f8b3          	and	a7,a7,a2
   1775c:	0117e7b3          	or	a5,a5,a7
   17760:	03f6f693          	andi	a3,a3,63
   17764:	00072023          	sw	zero,0(a4)
   17768:	00d7e7b3          	or	a5,a5,a3
   1776c:	00f5a023          	sw	a5,0(a1)
   17770:	f5dff06f          	j	176cc <__utf8_mbtowc+0xa8>
   17774:	00072023          	sw	zero,0(a4)
   17778:	00f5a023          	sw	a5,0(a1)
   1777c:	00100513          	li	a0,1
   17780:	01010113          	addi	sp,sp,16
   17784:	00008067          	ret
   17788:	f1078893          	addi	a7,a5,-240
   1778c:	00400313          	li	t1,4
   17790:	11136a63          	bltu	t1,a7,178a4 <__utf8_mbtowc+0x280>
   17794:	00f70223          	sb	a5,4(a4)
   17798:	0e080263          	beqz	a6,1787c <__utf8_mbtowc+0x258>
   1779c:	00168893          	addi	a7,a3,1
   177a0:	011038b3          	snez	a7,a7
   177a4:	00100313          	li	t1,1
   177a8:	011686b3          	add	a3,a3,a7
   177ac:	0c680e63          	beq	a6,t1,17888 <__utf8_mbtowc+0x264>
   177b0:	00574883          	lbu	a7,5(a4)
   177b4:	0f000313          	li	t1,240
   177b8:	10678863          	beq	a5,t1,178c8 <__utf8_mbtowc+0x2a4>
   177bc:	0f400313          	li	t1,244
   177c0:	14678863          	beq	a5,t1,17910 <__utf8_mbtowc+0x2ec>
   177c4:	f8088313          	addi	t1,a7,-128
   177c8:	03f00e93          	li	t4,63
   177cc:	0c6eec63          	bltu	t4,t1,178a4 <__utf8_mbtowc+0x280>
   177d0:	011702a3          	sb	a7,5(a4)
   177d4:	00100313          	li	t1,1
   177d8:	0e680e63          	beq	a6,t1,178d4 <__utf8_mbtowc+0x2b0>
   177dc:	00072f03          	lw	t5,0(a4)
   177e0:	00168813          	addi	a6,a3,1
   177e4:	01003833          	snez	a6,a6
   177e8:	00200313          	li	t1,2
   177ec:	010686b3          	add	a3,a3,a6
   177f0:	0e6f0863          	beq	t5,t1,178e0 <__utf8_mbtowc+0x2bc>
   177f4:	00674803          	lbu	a6,6(a4)
   177f8:	f8080693          	addi	a3,a6,-128
   177fc:	0adee463          	bltu	t4,a3,178a4 <__utf8_mbtowc+0x280>
   17800:	00a60633          	add	a2,a2,a0
   17804:	00064683          	lbu	a3,0(a2)
   17808:	03f00613          	li	a2,63
   1780c:	00150513          	addi	a0,a0,1
   17810:	f8068313          	addi	t1,a3,-128
   17814:	08666863          	bltu	a2,t1,178a4 <__utf8_mbtowc+0x280>
   17818:	001c0637          	lui	a2,0x1c0
   1781c:	01279793          	slli	a5,a5,0x12
   17820:	00c7f7b3          	and	a5,a5,a2
   17824:	00c89893          	slli	a7,a7,0xc
   17828:	0003f637          	lui	a2,0x3f
   1782c:	00c8f8b3          	and	a7,a7,a2
   17830:	00001637          	lui	a2,0x1
   17834:	00681813          	slli	a6,a6,0x6
   17838:	fc060613          	addi	a2,a2,-64 # fc0 <exit-0xf0d4>
   1783c:	0117e7b3          	or	a5,a5,a7
   17840:	00c87833          	and	a6,a6,a2
   17844:	0107e7b3          	or	a5,a5,a6
   17848:	03f6f693          	andi	a3,a3,63
   1784c:	00d7e7b3          	or	a5,a5,a3
   17850:	00f5a023          	sw	a5,0(a1)
   17854:	00072023          	sw	zero,0(a4)
   17858:	e75ff06f          	j	176cc <__utf8_mbtowc+0xa8>
   1785c:	00100813          	li	a6,1
   17860:	01072023          	sw	a6,0(a4)
   17864:	05068e63          	beq	a3,a6,178c0 <__utf8_mbtowc+0x29c>
   17868:	00a60833          	add	a6,a2,a0
   1786c:	00084883          	lbu	a7,0(a6)
   17870:	00150513          	addi	a0,a0,1
   17874:	00100813          	li	a6,1
   17878:	e91ff06f          	j	17708 <__utf8_mbtowc+0xe4>
   1787c:	00100813          	li	a6,1
   17880:	01072023          	sw	a6,0(a4)
   17884:	03068e63          	beq	a3,a6,178c0 <__utf8_mbtowc+0x29c>
   17888:	00a60833          	add	a6,a2,a0
   1788c:	00084883          	lbu	a7,0(a6)
   17890:	00150513          	addi	a0,a0,1
   17894:	00100813          	li	a6,1
   17898:	f1dff06f          	j	177b4 <__utf8_mbtowc+0x190>
   1789c:	09f00313          	li	t1,159
   178a0:	e71348e3          	blt	t1,a7,17710 <__utf8_mbtowc+0xec>
   178a4:	08a00793          	li	a5,138
   178a8:	00fe2023          	sw	a5,0(t3)
   178ac:	fff00513          	li	a0,-1
   178b0:	e1dff06f          	j	176cc <__utf8_mbtowc+0xa8>
   178b4:	00200813          	li	a6,2
   178b8:	01072023          	sw	a6,0(a4)
   178bc:	e70696e3          	bne	a3,a6,17728 <__utf8_mbtowc+0x104>
   178c0:	ffe00513          	li	a0,-2
   178c4:	e09ff06f          	j	176cc <__utf8_mbtowc+0xa8>
   178c8:	08f00313          	li	t1,143
   178cc:	ef134ce3          	blt	t1,a7,177c4 <__utf8_mbtowc+0x1a0>
   178d0:	fd5ff06f          	j	178a4 <__utf8_mbtowc+0x280>
   178d4:	00200813          	li	a6,2
   178d8:	01072023          	sw	a6,0(a4)
   178dc:	ff0682e3          	beq	a3,a6,178c0 <__utf8_mbtowc+0x29c>
   178e0:	00a60833          	add	a6,a2,a0
   178e4:	00084803          	lbu	a6,0(a6)
   178e8:	03f00313          	li	t1,63
   178ec:	00150513          	addi	a0,a0,1
   178f0:	f8080e93          	addi	t4,a6,-128
   178f4:	fbd368e3          	bltu	t1,t4,178a4 <__utf8_mbtowc+0x280>
   178f8:	00300313          	li	t1,3
   178fc:	01070323          	sb	a6,6(a4)
   17900:	00672023          	sw	t1,0(a4)
   17904:	ee669ee3          	bne	a3,t1,17800 <__utf8_mbtowc+0x1dc>
   17908:	ffe00513          	li	a0,-2
   1790c:	dc1ff06f          	j	176cc <__utf8_mbtowc+0xa8>
   17910:	08f00313          	li	t1,143
   17914:	eb1358e3          	bge	t1,a7,177c4 <__utf8_mbtowc+0x1a0>
   17918:	f8dff06f          	j	178a4 <__utf8_mbtowc+0x280>

0001791c <__sjis_mbtowc>:
   1791c:	00050813          	mv	a6,a0
   17920:	08058263          	beqz	a1,179a4 <__sjis_mbtowc+0x88>
   17924:	12060463          	beqz	a2,17a4c <__sjis_mbtowc+0x130>
   17928:	12068a63          	beqz	a3,17a5c <__sjis_mbtowc+0x140>
   1792c:	00072503          	lw	a0,0(a4)
   17930:	00064783          	lbu	a5,0(a2)
   17934:	00050e63          	beqz	a0,17950 <__sjis_mbtowc+0x34>
   17938:	00100693          	li	a3,1
   1793c:	02d50c63          	beq	a0,a3,17974 <__sjis_mbtowc+0x58>
   17940:	00f5a023          	sw	a5,0(a1)
   17944:	00064503          	lbu	a0,0(a2)
   17948:	00a03533          	snez	a0,a0
   1794c:	00008067          	ret
   17950:	f7f78513          	addi	a0,a5,-129
   17954:	01e00893          	li	a7,30
   17958:	08a8e263          	bltu	a7,a0,179dc <__sjis_mbtowc+0xc0>
   1795c:	00100513          	li	a0,1
   17960:	00f70223          	sb	a5,4(a4)
   17964:	00a72023          	sw	a0,0(a4)
   17968:	0ea68a63          	beq	a3,a0,17a5c <__sjis_mbtowc+0x140>
   1796c:	00164783          	lbu	a5,1(a2)
   17970:	00200513          	li	a0,2
   17974:	fc078693          	addi	a3,a5,-64
   17978:	03e00613          	li	a2,62
   1797c:	00d67863          	bgeu	a2,a3,1798c <__sjis_mbtowc+0x70>
   17980:	f8078693          	addi	a3,a5,-128
   17984:	07c00613          	li	a2,124
   17988:	0ed66263          	bltu	a2,a3,17a6c <__sjis_mbtowc+0x150>
   1798c:	00474683          	lbu	a3,4(a4)
   17990:	00869693          	slli	a3,a3,0x8
   17994:	00f687b3          	add	a5,a3,a5
   17998:	00f5a023          	sw	a5,0(a1)
   1799c:	00072023          	sw	zero,0(a4)
   179a0:	00008067          	ret
   179a4:	ff010113          	addi	sp,sp,-16
   179a8:	00c10593          	addi	a1,sp,12
   179ac:	0a060463          	beqz	a2,17a54 <__sjis_mbtowc+0x138>
   179b0:	0a068a63          	beqz	a3,17a64 <__sjis_mbtowc+0x148>
   179b4:	00072503          	lw	a0,0(a4)
   179b8:	00064783          	lbu	a5,0(a2)
   179bc:	02050863          	beqz	a0,179ec <__sjis_mbtowc+0xd0>
   179c0:	00100693          	li	a3,1
   179c4:	04d50c63          	beq	a0,a3,17a1c <__sjis_mbtowc+0x100>
   179c8:	00f5a023          	sw	a5,0(a1)
   179cc:	00064503          	lbu	a0,0(a2)
   179d0:	00a03533          	snez	a0,a0
   179d4:	01010113          	addi	sp,sp,16
   179d8:	00008067          	ret
   179dc:	f2078513          	addi	a0,a5,-224
   179e0:	00f00893          	li	a7,15
   179e4:	f4a8eee3          	bltu	a7,a0,17940 <__sjis_mbtowc+0x24>
   179e8:	f75ff06f          	j	1795c <__sjis_mbtowc+0x40>
   179ec:	f7f78513          	addi	a0,a5,-129
   179f0:	01e00893          	li	a7,30
   179f4:	00a8f863          	bgeu	a7,a0,17a04 <__sjis_mbtowc+0xe8>
   179f8:	f2078513          	addi	a0,a5,-224
   179fc:	00f00893          	li	a7,15
   17a00:	fca8e4e3          	bltu	a7,a0,179c8 <__sjis_mbtowc+0xac>
   17a04:	00100513          	li	a0,1
   17a08:	00f70223          	sb	a5,4(a4)
   17a0c:	00a72023          	sw	a0,0(a4)
   17a10:	04a68a63          	beq	a3,a0,17a64 <__sjis_mbtowc+0x148>
   17a14:	00164783          	lbu	a5,1(a2)
   17a18:	00200513          	li	a0,2
   17a1c:	fc078693          	addi	a3,a5,-64
   17a20:	03e00613          	li	a2,62
   17a24:	00d67863          	bgeu	a2,a3,17a34 <__sjis_mbtowc+0x118>
   17a28:	f8078693          	addi	a3,a5,-128
   17a2c:	07c00613          	li	a2,124
   17a30:	04d66663          	bltu	a2,a3,17a7c <__sjis_mbtowc+0x160>
   17a34:	00474683          	lbu	a3,4(a4)
   17a38:	00869693          	slli	a3,a3,0x8
   17a3c:	00f687b3          	add	a5,a3,a5
   17a40:	00f5a023          	sw	a5,0(a1)
   17a44:	00072023          	sw	zero,0(a4)
   17a48:	f8dff06f          	j	179d4 <__sjis_mbtowc+0xb8>
   17a4c:	00000513          	li	a0,0
   17a50:	00008067          	ret
   17a54:	00000513          	li	a0,0
   17a58:	f7dff06f          	j	179d4 <__sjis_mbtowc+0xb8>
   17a5c:	ffe00513          	li	a0,-2
   17a60:	00008067          	ret
   17a64:	ffe00513          	li	a0,-2
   17a68:	f6dff06f          	j	179d4 <__sjis_mbtowc+0xb8>
   17a6c:	08a00793          	li	a5,138
   17a70:	00f82023          	sw	a5,0(a6)
   17a74:	fff00513          	li	a0,-1
   17a78:	00008067          	ret
   17a7c:	08a00793          	li	a5,138
   17a80:	00f82023          	sw	a5,0(a6)
   17a84:	fff00513          	li	a0,-1
   17a88:	f4dff06f          	j	179d4 <__sjis_mbtowc+0xb8>

00017a8c <__eucjp_mbtowc>:
   17a8c:	00050813          	mv	a6,a0
   17a90:	0c058263          	beqz	a1,17b54 <__eucjp_mbtowc+0xc8>
   17a94:	18060663          	beqz	a2,17c20 <__eucjp_mbtowc+0x194>
   17a98:	1c068463          	beqz	a3,17c60 <__eucjp_mbtowc+0x1d4>
   17a9c:	00072503          	lw	a0,0(a4)
   17aa0:	00064783          	lbu	a5,0(a2)
   17aa4:	02050263          	beqz	a0,17ac8 <__eucjp_mbtowc+0x3c>
   17aa8:	00100893          	li	a7,1
   17aac:	05150663          	beq	a0,a7,17af8 <__eucjp_mbtowc+0x6c>
   17ab0:	00200693          	li	a3,2
   17ab4:	18d50463          	beq	a0,a3,17c3c <__eucjp_mbtowc+0x1b0>
   17ab8:	00f5a023          	sw	a5,0(a1)
   17abc:	00064503          	lbu	a0,0(a2)
   17ac0:	00a03533          	snez	a0,a0
   17ac4:	00008067          	ret
   17ac8:	f7278513          	addi	a0,a5,-142
   17acc:	00100893          	li	a7,1
   17ad0:	00a8f863          	bgeu	a7,a0,17ae0 <__eucjp_mbtowc+0x54>
   17ad4:	f5f78513          	addi	a0,a5,-161
   17ad8:	05d00893          	li	a7,93
   17adc:	fca8eee3          	bltu	a7,a0,17ab8 <__eucjp_mbtowc+0x2c>
   17ae0:	00100513          	li	a0,1
   17ae4:	00f70223          	sb	a5,4(a4)
   17ae8:	00a72023          	sw	a0,0(a4)
   17aec:	16a68a63          	beq	a3,a0,17c60 <__eucjp_mbtowc+0x1d4>
   17af0:	00164783          	lbu	a5,1(a2)
   17af4:	00200513          	li	a0,2
   17af8:	f5f78893          	addi	a7,a5,-161
   17afc:	05d00313          	li	t1,93
   17b00:	17136863          	bltu	t1,a7,17c70 <__eucjp_mbtowc+0x1e4>
   17b04:	00474883          	lbu	a7,4(a4)
   17b08:	08f00313          	li	t1,143
   17b0c:	10689e63          	bne	a7,t1,17c28 <__eucjp_mbtowc+0x19c>
   17b10:	00f702a3          	sb	a5,5(a4)
   17b14:	00200793          	li	a5,2
   17b18:	00f72023          	sw	a5,0(a4)
   17b1c:	14d57263          	bgeu	a0,a3,17c60 <__eucjp_mbtowc+0x1d4>
   17b20:	00a60633          	add	a2,a2,a0
   17b24:	00064783          	lbu	a5,0(a2)
   17b28:	00150513          	addi	a0,a0,1
   17b2c:	f5f78693          	addi	a3,a5,-161
   17b30:	05d00613          	li	a2,93
   17b34:	12d66e63          	bltu	a2,a3,17c70 <__eucjp_mbtowc+0x1e4>
   17b38:	00574683          	lbu	a3,5(a4)
   17b3c:	07f7f793          	andi	a5,a5,127
   17b40:	00869693          	slli	a3,a3,0x8
   17b44:	00f687b3          	add	a5,a3,a5
   17b48:	00f5a023          	sw	a5,0(a1)
   17b4c:	00072023          	sw	zero,0(a4)
   17b50:	00008067          	ret
   17b54:	ff010113          	addi	sp,sp,-16
   17b58:	00c10593          	addi	a1,sp,12
   17b5c:	0e060463          	beqz	a2,17c44 <__eucjp_mbtowc+0x1b8>
   17b60:	12068063          	beqz	a3,17c80 <__eucjp_mbtowc+0x1f4>
   17b64:	00072503          	lw	a0,0(a4)
   17b68:	00064783          	lbu	a5,0(a2)
   17b6c:	02050463          	beqz	a0,17b94 <__eucjp_mbtowc+0x108>
   17b70:	00100893          	li	a7,1
   17b74:	05150863          	beq	a0,a7,17bc4 <__eucjp_mbtowc+0x138>
   17b78:	00200693          	li	a3,2
   17b7c:	0ed50663          	beq	a0,a3,17c68 <__eucjp_mbtowc+0x1dc>
   17b80:	00f5a023          	sw	a5,0(a1)
   17b84:	00064503          	lbu	a0,0(a2)
   17b88:	00a03533          	snez	a0,a0
   17b8c:	01010113          	addi	sp,sp,16
   17b90:	00008067          	ret
   17b94:	f7278513          	addi	a0,a5,-142
   17b98:	00100893          	li	a7,1
   17b9c:	00a8f863          	bgeu	a7,a0,17bac <__eucjp_mbtowc+0x120>
   17ba0:	f5f78513          	addi	a0,a5,-161
   17ba4:	05d00893          	li	a7,93
   17ba8:	fca8ece3          	bltu	a7,a0,17b80 <__eucjp_mbtowc+0xf4>
   17bac:	00100513          	li	a0,1
   17bb0:	00f70223          	sb	a5,4(a4)
   17bb4:	00a72023          	sw	a0,0(a4)
   17bb8:	0ca68463          	beq	a3,a0,17c80 <__eucjp_mbtowc+0x1f4>
   17bbc:	00164783          	lbu	a5,1(a2)
   17bc0:	00200513          	li	a0,2
   17bc4:	f5f78893          	addi	a7,a5,-161
   17bc8:	05d00313          	li	t1,93
   17bcc:	0b136e63          	bltu	t1,a7,17c88 <__eucjp_mbtowc+0x1fc>
   17bd0:	00474883          	lbu	a7,4(a4)
   17bd4:	08f00313          	li	t1,143
   17bd8:	06689a63          	bne	a7,t1,17c4c <__eucjp_mbtowc+0x1c0>
   17bdc:	00f702a3          	sb	a5,5(a4)
   17be0:	00200793          	li	a5,2
   17be4:	00f72023          	sw	a5,0(a4)
   17be8:	08d57c63          	bgeu	a0,a3,17c80 <__eucjp_mbtowc+0x1f4>
   17bec:	00a60633          	add	a2,a2,a0
   17bf0:	00064783          	lbu	a5,0(a2)
   17bf4:	00150513          	addi	a0,a0,1
   17bf8:	f5f78693          	addi	a3,a5,-161
   17bfc:	05d00613          	li	a2,93
   17c00:	08d66463          	bltu	a2,a3,17c88 <__eucjp_mbtowc+0x1fc>
   17c04:	00574683          	lbu	a3,5(a4)
   17c08:	07f7f793          	andi	a5,a5,127
   17c0c:	00869693          	slli	a3,a3,0x8
   17c10:	00f687b3          	add	a5,a3,a5
   17c14:	00f5a023          	sw	a5,0(a1)
   17c18:	00072023          	sw	zero,0(a4)
   17c1c:	f71ff06f          	j	17b8c <__eucjp_mbtowc+0x100>
   17c20:	00000513          	li	a0,0
   17c24:	00008067          	ret
   17c28:	00889893          	slli	a7,a7,0x8
   17c2c:	00f888b3          	add	a7,a7,a5
   17c30:	0115a023          	sw	a7,0(a1)
   17c34:	00072023          	sw	zero,0(a4)
   17c38:	00008067          	ret
   17c3c:	00100513          	li	a0,1
   17c40:	eedff06f          	j	17b2c <__eucjp_mbtowc+0xa0>
   17c44:	00000513          	li	a0,0
   17c48:	f45ff06f          	j	17b8c <__eucjp_mbtowc+0x100>
   17c4c:	00889893          	slli	a7,a7,0x8
   17c50:	00f888b3          	add	a7,a7,a5
   17c54:	0115a023          	sw	a7,0(a1)
   17c58:	00072023          	sw	zero,0(a4)
   17c5c:	f31ff06f          	j	17b8c <__eucjp_mbtowc+0x100>
   17c60:	ffe00513          	li	a0,-2
   17c64:	00008067          	ret
   17c68:	00100513          	li	a0,1
   17c6c:	f8dff06f          	j	17bf8 <__eucjp_mbtowc+0x16c>
   17c70:	08a00793          	li	a5,138
   17c74:	00f82023          	sw	a5,0(a6)
   17c78:	fff00513          	li	a0,-1
   17c7c:	00008067          	ret
   17c80:	ffe00513          	li	a0,-2
   17c84:	f09ff06f          	j	17b8c <__eucjp_mbtowc+0x100>
   17c88:	08a00793          	li	a5,138
   17c8c:	00f82023          	sw	a5,0(a6)
   17c90:	fff00513          	li	a0,-1
   17c94:	ef9ff06f          	j	17b8c <__eucjp_mbtowc+0x100>

00017c98 <__jis_mbtowc>:
   17c98:	fe010113          	addi	sp,sp,-32
   17c9c:	00812e23          	sw	s0,28(sp)
   17ca0:	00912c23          	sw	s1,24(sp)
   17ca4:	01212a23          	sw	s2,20(sp)
   17ca8:	01312823          	sw	s3,16(sp)
   17cac:	06058663          	beqz	a1,17d18 <__jis_mbtowc+0x80>
   17cb0:	06060863          	beqz	a2,17d20 <__jis_mbtowc+0x88>
   17cb4:	1c068e63          	beqz	a3,17e90 <__jis_mbtowc+0x1f8>
   17cb8:	00060f13          	mv	t5,a2
   17cbc:	000f4303          	lbu	t1,0(t5)
   17cc0:	00074903          	lbu	s2,0(a4)
   17cc4:	00060493          	mv	s1,a2
   17cc8:	00100893          	li	a7,1
   17ccc:	0000a417          	auipc	s0,0xa
   17cd0:	2f440413          	addi	s0,s0,756 # 21fc0 <JIS_state_table>
   17cd4:	0000a397          	auipc	t2,0xa
   17cd8:	2a438393          	addi	t2,t2,676 # 21f78 <JIS_action_table>
   17cdc:	02f00293          	li	t0,47
   17ce0:	0000ae97          	auipc	t4,0xa
   17ce4:	1c0e8e93          	addi	t4,t4,448 # 21ea0 <categories+0x1c>
   17ce8:	00500f93          	li	t6,5
   17cec:	0000ae17          	auipc	t3,0xa
   17cf0:	274e0e13          	addi	t3,t3,628 # 21f60 <categories+0xdc>
   17cf4:	0a030863          	beqz	t1,17da4 <__jis_mbtowc+0x10c>
   17cf8:	fe530793          	addi	a5,t1,-27
   17cfc:	0ff7f793          	zext.b	a5,a5
   17d00:	04f2e063          	bltu	t0,a5,17d40 <__jis_mbtowc+0xa8>
   17d04:	00279793          	slli	a5,a5,0x2
   17d08:	01d787b3          	add	a5,a5,t4
   17d0c:	0007a783          	lw	a5,0(a5)
   17d10:	01d787b3          	add	a5,a5,t4
   17d14:	00078067          	jr	a5
   17d18:	00c10593          	addi	a1,sp,12
   17d1c:	f8061ce3          	bnez	a2,17cb4 <__jis_mbtowc+0x1c>
   17d20:	01c12403          	lw	s0,28(sp)
   17d24:	00072023          	sw	zero,0(a4)
   17d28:	01812483          	lw	s1,24(sp)
   17d2c:	01412903          	lw	s2,20(sp)
   17d30:	01012983          	lw	s3,16(sp)
   17d34:	00100513          	li	a0,1
   17d38:	02010113          	addi	sp,sp,32
   17d3c:	00008067          	ret
   17d40:	fdf30993          	addi	s3,t1,-33
   17d44:	05d00793          	li	a5,93
   17d48:	0137b9b3          	sltu	s3,a5,s3
   17d4c:	00798993          	addi	s3,s3,7
   17d50:	00391793          	slli	a5,s2,0x3
   17d54:	012787b3          	add	a5,a5,s2
   17d58:	00f38833          	add	a6,t2,a5
   17d5c:	01380833          	add	a6,a6,s3
   17d60:	00084803          	lbu	a6,0(a6)
   17d64:	00f407b3          	add	a5,s0,a5
   17d68:	013787b3          	add	a5,a5,s3
   17d6c:	0007c903          	lbu	s2,0(a5)
   17d70:	0f0fe863          	bltu	t6,a6,17e60 <__jis_mbtowc+0x1c8>
   17d74:	00281813          	slli	a6,a6,0x2
   17d78:	01c80833          	add	a6,a6,t3
   17d7c:	00082783          	lw	a5,0(a6)
   17d80:	01c787b3          	add	a5,a5,t3
   17d84:	00078067          	jr	a5
   17d88:	00670223          	sb	t1,4(a4)
   17d8c:	001f0f13          	addi	t5,t5,1
   17d90:	00188793          	addi	a5,a7,1
   17d94:	0ed8fc63          	bgeu	a7,a3,17e8c <__jis_mbtowc+0x1f4>
   17d98:	000f4303          	lbu	t1,0(t5)
   17d9c:	00078893          	mv	a7,a5
   17da0:	f4031ce3          	bnez	t1,17cf8 <__jis_mbtowc+0x60>
   17da4:	00600993          	li	s3,6
   17da8:	fa9ff06f          	j	17d50 <__jis_mbtowc+0xb8>
   17dac:	01148633          	add	a2,s1,a7
   17db0:	fddff06f          	j	17d8c <__jis_mbtowc+0xf4>
   17db4:	00100693          	li	a3,1
   17db8:	00474783          	lbu	a5,4(a4)
   17dbc:	00d72023          	sw	a3,0(a4)
   17dc0:	000f4703          	lbu	a4,0(t5)
   17dc4:	00879793          	slli	a5,a5,0x8
   17dc8:	00088513          	mv	a0,a7
   17dcc:	00e787b3          	add	a5,a5,a4
   17dd0:	00f5a023          	sw	a5,0(a1)
   17dd4:	01c12403          	lw	s0,28(sp)
   17dd8:	01812483          	lw	s1,24(sp)
   17ddc:	01412903          	lw	s2,20(sp)
   17de0:	01012983          	lw	s3,16(sp)
   17de4:	02010113          	addi	sp,sp,32
   17de8:	00008067          	ret
   17dec:	00072023          	sw	zero,0(a4)
   17df0:	00064783          	lbu	a5,0(a2)
   17df4:	01c12403          	lw	s0,28(sp)
   17df8:	01812483          	lw	s1,24(sp)
   17dfc:	00f5a023          	sw	a5,0(a1)
   17e00:	01412903          	lw	s2,20(sp)
   17e04:	01012983          	lw	s3,16(sp)
   17e08:	00088513          	mv	a0,a7
   17e0c:	02010113          	addi	sp,sp,32
   17e10:	00008067          	ret
   17e14:	01c12403          	lw	s0,28(sp)
   17e18:	00072023          	sw	zero,0(a4)
   17e1c:	0005a023          	sw	zero,0(a1)
   17e20:	01812483          	lw	s1,24(sp)
   17e24:	01412903          	lw	s2,20(sp)
   17e28:	01012983          	lw	s3,16(sp)
   17e2c:	00000513          	li	a0,0
   17e30:	02010113          	addi	sp,sp,32
   17e34:	00008067          	ret
   17e38:	00200993          	li	s3,2
   17e3c:	f15ff06f          	j	17d50 <__jis_mbtowc+0xb8>
   17e40:	00300993          	li	s3,3
   17e44:	f0dff06f          	j	17d50 <__jis_mbtowc+0xb8>
   17e48:	00400993          	li	s3,4
   17e4c:	f05ff06f          	j	17d50 <__jis_mbtowc+0xb8>
   17e50:	00500993          	li	s3,5
   17e54:	efdff06f          	j	17d50 <__jis_mbtowc+0xb8>
   17e58:	00000993          	li	s3,0
   17e5c:	ef5ff06f          	j	17d50 <__jis_mbtowc+0xb8>
   17e60:	01c12403          	lw	s0,28(sp)
   17e64:	08a00793          	li	a5,138
   17e68:	00f52023          	sw	a5,0(a0)
   17e6c:	01812483          	lw	s1,24(sp)
   17e70:	01412903          	lw	s2,20(sp)
   17e74:	01012983          	lw	s3,16(sp)
   17e78:	fff00513          	li	a0,-1
   17e7c:	02010113          	addi	sp,sp,32
   17e80:	00008067          	ret
   17e84:	00100993          	li	s3,1
   17e88:	ec9ff06f          	j	17d50 <__jis_mbtowc+0xb8>
   17e8c:	01272023          	sw	s2,0(a4)
   17e90:	ffe00513          	li	a0,-2
   17e94:	f41ff06f          	j	17dd4 <__jis_mbtowc+0x13c>

00017e98 <memchr>:
   17e98:	00357793          	andi	a5,a0,3
   17e9c:	0ff5f693          	zext.b	a3,a1
   17ea0:	02078e63          	beqz	a5,17edc <memchr+0x44>
   17ea4:	fff60793          	addi	a5,a2,-1
   17ea8:	02060663          	beqz	a2,17ed4 <memchr+0x3c>
   17eac:	fff00613          	li	a2,-1
   17eb0:	0180006f          	j	17ec8 <memchr+0x30>
   17eb4:	00150513          	addi	a0,a0,1
   17eb8:	00357713          	andi	a4,a0,3
   17ebc:	02070263          	beqz	a4,17ee0 <memchr+0x48>
   17ec0:	fff78793          	addi	a5,a5,-1
   17ec4:	00c78863          	beq	a5,a2,17ed4 <memchr+0x3c>
   17ec8:	00054703          	lbu	a4,0(a0)
   17ecc:	fed714e3          	bne	a4,a3,17eb4 <memchr+0x1c>
   17ed0:	00008067          	ret
   17ed4:	00000513          	li	a0,0
   17ed8:	00008067          	ret
   17edc:	00060793          	mv	a5,a2
   17ee0:	00300713          	li	a4,3
   17ee4:	04f77c63          	bgeu	a4,a5,17f3c <memchr+0xa4>
   17ee8:	0ff5f593          	zext.b	a1,a1
   17eec:	00859713          	slli	a4,a1,0x8
   17ef0:	00b705b3          	add	a1,a4,a1
   17ef4:	01059713          	slli	a4,a1,0x10
   17ef8:	feff08b7          	lui	a7,0xfeff0
   17efc:	80808837          	lui	a6,0x80808
   17f00:	00e585b3          	add	a1,a1,a4
   17f04:	eff88893          	addi	a7,a7,-257 # fefefeff <__BSS_END__+0xfefcc0cf>
   17f08:	08080813          	addi	a6,a6,128 # 80808080 <__BSS_END__+0x807e4250>
   17f0c:	00300313          	li	t1,3
   17f10:	0100006f          	j	17f20 <memchr+0x88>
   17f14:	ffc78793          	addi	a5,a5,-4
   17f18:	00450513          	addi	a0,a0,4
   17f1c:	02f37063          	bgeu	t1,a5,17f3c <memchr+0xa4>
   17f20:	00052703          	lw	a4,0(a0)
   17f24:	00e5c733          	xor	a4,a1,a4
   17f28:	01170633          	add	a2,a4,a7
   17f2c:	fff74713          	not	a4,a4
   17f30:	00e67733          	and	a4,a2,a4
   17f34:	01077733          	and	a4,a4,a6
   17f38:	fc070ee3          	beqz	a4,17f14 <memchr+0x7c>
   17f3c:	00f50733          	add	a4,a0,a5
   17f40:	00079863          	bnez	a5,17f50 <memchr+0xb8>
   17f44:	f91ff06f          	j	17ed4 <memchr+0x3c>
   17f48:	00150513          	addi	a0,a0,1
   17f4c:	f8e504e3          	beq	a0,a4,17ed4 <memchr+0x3c>
   17f50:	00054783          	lbu	a5,0(a0)
   17f54:	fed79ae3          	bne	a5,a3,17f48 <memchr+0xb0>
   17f58:	00008067          	ret

00017f5c <memcpy>:
   17f5c:	00b547b3          	xor	a5,a0,a1
   17f60:	0037f793          	andi	a5,a5,3
   17f64:	00c508b3          	add	a7,a0,a2
   17f68:	06079463          	bnez	a5,17fd0 <memcpy+0x74>
   17f6c:	00300793          	li	a5,3
   17f70:	06c7f063          	bgeu	a5,a2,17fd0 <memcpy+0x74>
   17f74:	00357793          	andi	a5,a0,3
   17f78:	00050713          	mv	a4,a0
   17f7c:	06079a63          	bnez	a5,17ff0 <memcpy+0x94>
   17f80:	ffc8f613          	andi	a2,a7,-4
   17f84:	40e606b3          	sub	a3,a2,a4
   17f88:	02000793          	li	a5,32
   17f8c:	08d7ce63          	blt	a5,a3,18028 <memcpy+0xcc>
   17f90:	00058693          	mv	a3,a1
   17f94:	00070793          	mv	a5,a4
   17f98:	02c77863          	bgeu	a4,a2,17fc8 <memcpy+0x6c>
   17f9c:	0006a803          	lw	a6,0(a3)
   17fa0:	00478793          	addi	a5,a5,4
   17fa4:	00468693          	addi	a3,a3,4
   17fa8:	ff07ae23          	sw	a6,-4(a5)
   17fac:	fec7e8e3          	bltu	a5,a2,17f9c <memcpy+0x40>
   17fb0:	fff60793          	addi	a5,a2,-1
   17fb4:	40e787b3          	sub	a5,a5,a4
   17fb8:	ffc7f793          	andi	a5,a5,-4
   17fbc:	00478793          	addi	a5,a5,4
   17fc0:	00f70733          	add	a4,a4,a5
   17fc4:	00f585b3          	add	a1,a1,a5
   17fc8:	01176863          	bltu	a4,a7,17fd8 <memcpy+0x7c>
   17fcc:	00008067          	ret
   17fd0:	00050713          	mv	a4,a0
   17fd4:	05157863          	bgeu	a0,a7,18024 <memcpy+0xc8>
   17fd8:	0005c783          	lbu	a5,0(a1)
   17fdc:	00170713          	addi	a4,a4,1
   17fe0:	00158593          	addi	a1,a1,1
   17fe4:	fef70fa3          	sb	a5,-1(a4)
   17fe8:	fee898e3          	bne	a7,a4,17fd8 <memcpy+0x7c>
   17fec:	00008067          	ret
   17ff0:	0005c683          	lbu	a3,0(a1)
   17ff4:	00170713          	addi	a4,a4,1
   17ff8:	00377793          	andi	a5,a4,3
   17ffc:	fed70fa3          	sb	a3,-1(a4)
   18000:	00158593          	addi	a1,a1,1
   18004:	f6078ee3          	beqz	a5,17f80 <memcpy+0x24>
   18008:	0005c683          	lbu	a3,0(a1)
   1800c:	00170713          	addi	a4,a4,1
   18010:	00377793          	andi	a5,a4,3
   18014:	fed70fa3          	sb	a3,-1(a4)
   18018:	00158593          	addi	a1,a1,1
   1801c:	fc079ae3          	bnez	a5,17ff0 <memcpy+0x94>
   18020:	f61ff06f          	j	17f80 <memcpy+0x24>
   18024:	00008067          	ret
   18028:	ff010113          	addi	sp,sp,-16
   1802c:	00812623          	sw	s0,12(sp)
   18030:	02000413          	li	s0,32
   18034:	0005a383          	lw	t2,0(a1)
   18038:	0045a283          	lw	t0,4(a1)
   1803c:	0085af83          	lw	t6,8(a1)
   18040:	00c5af03          	lw	t5,12(a1)
   18044:	0105ae83          	lw	t4,16(a1)
   18048:	0145ae03          	lw	t3,20(a1)
   1804c:	0185a303          	lw	t1,24(a1)
   18050:	01c5a803          	lw	a6,28(a1)
   18054:	0205a683          	lw	a3,32(a1)
   18058:	02470713          	addi	a4,a4,36
   1805c:	40e607b3          	sub	a5,a2,a4
   18060:	fc772e23          	sw	t2,-36(a4)
   18064:	fe572023          	sw	t0,-32(a4)
   18068:	fff72223          	sw	t6,-28(a4)
   1806c:	ffe72423          	sw	t5,-24(a4)
   18070:	ffd72623          	sw	t4,-20(a4)
   18074:	ffc72823          	sw	t3,-16(a4)
   18078:	fe672a23          	sw	t1,-12(a4)
   1807c:	ff072c23          	sw	a6,-8(a4)
   18080:	fed72e23          	sw	a3,-4(a4)
   18084:	02458593          	addi	a1,a1,36
   18088:	faf446e3          	blt	s0,a5,18034 <memcpy+0xd8>
   1808c:	00058693          	mv	a3,a1
   18090:	00070793          	mv	a5,a4
   18094:	02c77863          	bgeu	a4,a2,180c4 <memcpy+0x168>
   18098:	0006a803          	lw	a6,0(a3)
   1809c:	00478793          	addi	a5,a5,4
   180a0:	00468693          	addi	a3,a3,4
   180a4:	ff07ae23          	sw	a6,-4(a5)
   180a8:	fec7e8e3          	bltu	a5,a2,18098 <memcpy+0x13c>
   180ac:	fff60793          	addi	a5,a2,-1
   180b0:	40e787b3          	sub	a5,a5,a4
   180b4:	ffc7f793          	andi	a5,a5,-4
   180b8:	00478793          	addi	a5,a5,4
   180bc:	00f70733          	add	a4,a4,a5
   180c0:	00f585b3          	add	a1,a1,a5
   180c4:	01176863          	bltu	a4,a7,180d4 <memcpy+0x178>
   180c8:	00c12403          	lw	s0,12(sp)
   180cc:	01010113          	addi	sp,sp,16
   180d0:	00008067          	ret
   180d4:	0005c783          	lbu	a5,0(a1)
   180d8:	00170713          	addi	a4,a4,1
   180dc:	00158593          	addi	a1,a1,1
   180e0:	fef70fa3          	sb	a5,-1(a4)
   180e4:	fee882e3          	beq	a7,a4,180c8 <memcpy+0x16c>
   180e8:	0005c783          	lbu	a5,0(a1)
   180ec:	00170713          	addi	a4,a4,1
   180f0:	00158593          	addi	a1,a1,1
   180f4:	fef70fa3          	sb	a5,-1(a4)
   180f8:	fce89ee3          	bne	a7,a4,180d4 <memcpy+0x178>
   180fc:	fcdff06f          	j	180c8 <memcpy+0x16c>

00018100 <_Balloc>:
   18100:	04c52783          	lw	a5,76(a0)
   18104:	ff010113          	addi	sp,sp,-16
   18108:	00812423          	sw	s0,8(sp)
   1810c:	00912223          	sw	s1,4(sp)
   18110:	00112623          	sw	ra,12(sp)
   18114:	01212023          	sw	s2,0(sp)
   18118:	00050413          	mv	s0,a0
   1811c:	00058493          	mv	s1,a1
   18120:	02078e63          	beqz	a5,1815c <_Balloc+0x5c>
   18124:	00249713          	slli	a4,s1,0x2
   18128:	00e787b3          	add	a5,a5,a4
   1812c:	0007a503          	lw	a0,0(a5)
   18130:	04050663          	beqz	a0,1817c <_Balloc+0x7c>
   18134:	00052703          	lw	a4,0(a0)
   18138:	00e7a023          	sw	a4,0(a5)
   1813c:	00052823          	sw	zero,16(a0)
   18140:	00052623          	sw	zero,12(a0)
   18144:	00c12083          	lw	ra,12(sp)
   18148:	00812403          	lw	s0,8(sp)
   1814c:	00412483          	lw	s1,4(sp)
   18150:	00012903          	lw	s2,0(sp)
   18154:	01010113          	addi	sp,sp,16
   18158:	00008067          	ret
   1815c:	02100613          	li	a2,33
   18160:	00400593          	li	a1,4
   18164:	671030ef          	jal	ra,1bfd4 <_calloc_r>
   18168:	04a42623          	sw	a0,76(s0)
   1816c:	00050793          	mv	a5,a0
   18170:	fa051ae3          	bnez	a0,18124 <_Balloc+0x24>
   18174:	00000513          	li	a0,0
   18178:	fcdff06f          	j	18144 <_Balloc+0x44>
   1817c:	00100913          	li	s2,1
   18180:	00991933          	sll	s2,s2,s1
   18184:	00590613          	addi	a2,s2,5
   18188:	00261613          	slli	a2,a2,0x2
   1818c:	00100593          	li	a1,1
   18190:	00040513          	mv	a0,s0
   18194:	641030ef          	jal	ra,1bfd4 <_calloc_r>
   18198:	fc050ee3          	beqz	a0,18174 <_Balloc+0x74>
   1819c:	00952223          	sw	s1,4(a0)
   181a0:	01252423          	sw	s2,8(a0)
   181a4:	f99ff06f          	j	1813c <_Balloc+0x3c>

000181a8 <_Bfree>:
   181a8:	02058063          	beqz	a1,181c8 <_Bfree+0x20>
   181ac:	0045a703          	lw	a4,4(a1)
   181b0:	04c52783          	lw	a5,76(a0)
   181b4:	00271713          	slli	a4,a4,0x2
   181b8:	00e787b3          	add	a5,a5,a4
   181bc:	0007a703          	lw	a4,0(a5)
   181c0:	00e5a023          	sw	a4,0(a1)
   181c4:	00b7a023          	sw	a1,0(a5)
   181c8:	00008067          	ret

000181cc <__multadd>:
   181cc:	fd010113          	addi	sp,sp,-48
   181d0:	01312e23          	sw	s3,28(sp)
   181d4:	0105a983          	lw	s3,16(a1)
   181d8:	01812423          	sw	s8,8(sp)
   181dc:	00010c37          	lui	s8,0x10
   181e0:	02812423          	sw	s0,40(sp)
   181e4:	02912223          	sw	s1,36(sp)
   181e8:	03212023          	sw	s2,32(sp)
   181ec:	01412c23          	sw	s4,24(sp)
   181f0:	01512a23          	sw	s5,20(sp)
   181f4:	01612823          	sw	s6,16(sp)
   181f8:	02112623          	sw	ra,44(sp)
   181fc:	01712623          	sw	s7,12(sp)
   18200:	00058a13          	mv	s4,a1
   18204:	00050a93          	mv	s5,a0
   18208:	00060913          	mv	s2,a2
   1820c:	00068413          	mv	s0,a3
   18210:	01458493          	addi	s1,a1,20
   18214:	00000b13          	li	s6,0
   18218:	fffc0c13          	addi	s8,s8,-1 # ffff <exit-0x95>
   1821c:	0004ab83          	lw	s7,0(s1)
   18220:	00090593          	mv	a1,s2
   18224:	00448493          	addi	s1,s1,4
   18228:	018bf533          	and	a0,s7,s8
   1822c:	464090ef          	jal	ra,21690 <__mulsi3>
   18230:	00850433          	add	s0,a0,s0
   18234:	00090593          	mv	a1,s2
   18238:	010bd513          	srli	a0,s7,0x10
   1823c:	454090ef          	jal	ra,21690 <__mulsi3>
   18240:	01045793          	srli	a5,s0,0x10
   18244:	00f50533          	add	a0,a0,a5
   18248:	01847433          	and	s0,s0,s8
   1824c:	01051793          	slli	a5,a0,0x10
   18250:	008787b3          	add	a5,a5,s0
   18254:	fef4ae23          	sw	a5,-4(s1)
   18258:	001b0b13          	addi	s6,s6,1
   1825c:	01055413          	srli	s0,a0,0x10
   18260:	fb3b4ee3          	blt	s6,s3,1821c <__multadd+0x50>
   18264:	02040263          	beqz	s0,18288 <__multadd+0xbc>
   18268:	008a2783          	lw	a5,8(s4)
   1826c:	04f9d863          	bge	s3,a5,182bc <__multadd+0xf0>
   18270:	00498793          	addi	a5,s3,4
   18274:	00279793          	slli	a5,a5,0x2
   18278:	00fa07b3          	add	a5,s4,a5
   1827c:	0087a223          	sw	s0,4(a5)
   18280:	00198993          	addi	s3,s3,1
   18284:	013a2823          	sw	s3,16(s4)
   18288:	02c12083          	lw	ra,44(sp)
   1828c:	02812403          	lw	s0,40(sp)
   18290:	02412483          	lw	s1,36(sp)
   18294:	02012903          	lw	s2,32(sp)
   18298:	01c12983          	lw	s3,28(sp)
   1829c:	01412a83          	lw	s5,20(sp)
   182a0:	01012b03          	lw	s6,16(sp)
   182a4:	00c12b83          	lw	s7,12(sp)
   182a8:	00812c03          	lw	s8,8(sp)
   182ac:	000a0513          	mv	a0,s4
   182b0:	01812a03          	lw	s4,24(sp)
   182b4:	03010113          	addi	sp,sp,48
   182b8:	00008067          	ret
   182bc:	004a2583          	lw	a1,4(s4)
   182c0:	000a8513          	mv	a0,s5
   182c4:	00158593          	addi	a1,a1,1
   182c8:	e39ff0ef          	jal	ra,18100 <_Balloc>
   182cc:	00050493          	mv	s1,a0
   182d0:	04050c63          	beqz	a0,18328 <__multadd+0x15c>
   182d4:	010a2603          	lw	a2,16(s4)
   182d8:	00ca0593          	addi	a1,s4,12
   182dc:	00c50513          	addi	a0,a0,12
   182e0:	00260613          	addi	a2,a2,2
   182e4:	00261613          	slli	a2,a2,0x2
   182e8:	c75ff0ef          	jal	ra,17f5c <memcpy>
   182ec:	004a2703          	lw	a4,4(s4)
   182f0:	04caa783          	lw	a5,76(s5)
   182f4:	00271713          	slli	a4,a4,0x2
   182f8:	00e787b3          	add	a5,a5,a4
   182fc:	0007a703          	lw	a4,0(a5)
   18300:	00ea2023          	sw	a4,0(s4)
   18304:	0147a023          	sw	s4,0(a5)
   18308:	00498793          	addi	a5,s3,4
   1830c:	00048a13          	mv	s4,s1
   18310:	00279793          	slli	a5,a5,0x2
   18314:	00fa07b3          	add	a5,s4,a5
   18318:	0087a223          	sw	s0,4(a5)
   1831c:	00198993          	addi	s3,s3,1
   18320:	013a2823          	sw	s3,16(s4)
   18324:	f65ff06f          	j	18288 <__multadd+0xbc>
   18328:	00009697          	auipc	a3,0x9
   1832c:	76068693          	addi	a3,a3,1888 # 21a88 <blanks.1+0x20>
   18330:	00000613          	li	a2,0
   18334:	0b500593          	li	a1,181
   18338:	0000a517          	auipc	a0,0xa
   1833c:	cd050513          	addi	a0,a0,-816 # 22008 <JIS_state_table+0x48>
   18340:	42d030ef          	jal	ra,1bf6c <__assert_func>

00018344 <__s2b>:
   18344:	fe010113          	addi	sp,sp,-32
   18348:	00812c23          	sw	s0,24(sp)
   1834c:	01212823          	sw	s2,16(sp)
   18350:	00058413          	mv	s0,a1
   18354:	00050913          	mv	s2,a0
   18358:	00900593          	li	a1,9
   1835c:	00868513          	addi	a0,a3,8
   18360:	00912a23          	sw	s1,20(sp)
   18364:	01312623          	sw	s3,12(sp)
   18368:	01412423          	sw	s4,8(sp)
   1836c:	00112e23          	sw	ra,28(sp)
   18370:	01512223          	sw	s5,4(sp)
   18374:	00068493          	mv	s1,a3
   18378:	00060993          	mv	s3,a2
   1837c:	00070a13          	mv	s4,a4
   18380:	334090ef          	jal	ra,216b4 <__divsi3>
   18384:	00900793          	li	a5,9
   18388:	0c97d863          	bge	a5,s1,18458 <__s2b+0x114>
   1838c:	00100793          	li	a5,1
   18390:	00000593          	li	a1,0
   18394:	00179793          	slli	a5,a5,0x1
   18398:	00158593          	addi	a1,a1,1
   1839c:	fea7cce3          	blt	a5,a0,18394 <__s2b+0x50>
   183a0:	00090513          	mv	a0,s2
   183a4:	d5dff0ef          	jal	ra,18100 <_Balloc>
   183a8:	00050593          	mv	a1,a0
   183ac:	0a050a63          	beqz	a0,18460 <__s2b+0x11c>
   183b0:	00100793          	li	a5,1
   183b4:	00f52823          	sw	a5,16(a0)
   183b8:	01452a23          	sw	s4,20(a0)
   183bc:	00900793          	li	a5,9
   183c0:	0937d663          	bge	a5,s3,1844c <__s2b+0x108>
   183c4:	00940a93          	addi	s5,s0,9
   183c8:	01340a33          	add	s4,s0,s3
   183cc:	000a8413          	mv	s0,s5
   183d0:	00044683          	lbu	a3,0(s0)
   183d4:	00a00613          	li	a2,10
   183d8:	00090513          	mv	a0,s2
   183dc:	fd068693          	addi	a3,a3,-48
   183e0:	dedff0ef          	jal	ra,181cc <__multadd>
   183e4:	00140413          	addi	s0,s0,1
   183e8:	00050593          	mv	a1,a0
   183ec:	ff4412e3          	bne	s0,s4,183d0 <__s2b+0x8c>
   183f0:	ff898413          	addi	s0,s3,-8
   183f4:	008a8433          	add	s0,s5,s0
   183f8:	0299d663          	bge	s3,s1,18424 <__s2b+0xe0>
   183fc:	413484b3          	sub	s1,s1,s3
   18400:	009404b3          	add	s1,s0,s1
   18404:	00044683          	lbu	a3,0(s0)
   18408:	00a00613          	li	a2,10
   1840c:	00090513          	mv	a0,s2
   18410:	fd068693          	addi	a3,a3,-48
   18414:	db9ff0ef          	jal	ra,181cc <__multadd>
   18418:	00140413          	addi	s0,s0,1
   1841c:	00050593          	mv	a1,a0
   18420:	fe8492e3          	bne	s1,s0,18404 <__s2b+0xc0>
   18424:	01c12083          	lw	ra,28(sp)
   18428:	01812403          	lw	s0,24(sp)
   1842c:	01412483          	lw	s1,20(sp)
   18430:	01012903          	lw	s2,16(sp)
   18434:	00c12983          	lw	s3,12(sp)
   18438:	00812a03          	lw	s4,8(sp)
   1843c:	00412a83          	lw	s5,4(sp)
   18440:	00058513          	mv	a0,a1
   18444:	02010113          	addi	sp,sp,32
   18448:	00008067          	ret
   1844c:	00a40413          	addi	s0,s0,10
   18450:	00900993          	li	s3,9
   18454:	fa5ff06f          	j	183f8 <__s2b+0xb4>
   18458:	00000593          	li	a1,0
   1845c:	f45ff06f          	j	183a0 <__s2b+0x5c>
   18460:	00009697          	auipc	a3,0x9
   18464:	62868693          	addi	a3,a3,1576 # 21a88 <blanks.1+0x20>
   18468:	00000613          	li	a2,0
   1846c:	0ce00593          	li	a1,206
   18470:	0000a517          	auipc	a0,0xa
   18474:	b9850513          	addi	a0,a0,-1128 # 22008 <JIS_state_table+0x48>
   18478:	2f5030ef          	jal	ra,1bf6c <__assert_func>

0001847c <__hi0bits>:
   1847c:	00050793          	mv	a5,a0
   18480:	00010737          	lui	a4,0x10
   18484:	00000513          	li	a0,0
   18488:	00e7f663          	bgeu	a5,a4,18494 <__hi0bits+0x18>
   1848c:	01079793          	slli	a5,a5,0x10
   18490:	01000513          	li	a0,16
   18494:	01000737          	lui	a4,0x1000
   18498:	00e7f663          	bgeu	a5,a4,184a4 <__hi0bits+0x28>
   1849c:	00850513          	addi	a0,a0,8
   184a0:	00879793          	slli	a5,a5,0x8
   184a4:	10000737          	lui	a4,0x10000
   184a8:	00e7f663          	bgeu	a5,a4,184b4 <__hi0bits+0x38>
   184ac:	00450513          	addi	a0,a0,4
   184b0:	00479793          	slli	a5,a5,0x4
   184b4:	40000737          	lui	a4,0x40000
   184b8:	00e7ea63          	bltu	a5,a4,184cc <__hi0bits+0x50>
   184bc:	fff7c793          	not	a5,a5
   184c0:	01f7d793          	srli	a5,a5,0x1f
   184c4:	00f50533          	add	a0,a0,a5
   184c8:	00008067          	ret
   184cc:	00279793          	slli	a5,a5,0x2
   184d0:	0007ca63          	bltz	a5,184e4 <__hi0bits+0x68>
   184d4:	00e7f7b3          	and	a5,a5,a4
   184d8:	00079a63          	bnez	a5,184ec <__hi0bits+0x70>
   184dc:	02000513          	li	a0,32
   184e0:	00008067          	ret
   184e4:	00250513          	addi	a0,a0,2
   184e8:	00008067          	ret
   184ec:	00350513          	addi	a0,a0,3
   184f0:	00008067          	ret

000184f4 <__lo0bits>:
   184f4:	00052783          	lw	a5,0(a0)
   184f8:	00050713          	mv	a4,a0
   184fc:	0077f693          	andi	a3,a5,7
   18500:	02068463          	beqz	a3,18528 <__lo0bits+0x34>
   18504:	0017f693          	andi	a3,a5,1
   18508:	00000513          	li	a0,0
   1850c:	04069e63          	bnez	a3,18568 <__lo0bits+0x74>
   18510:	0027f693          	andi	a3,a5,2
   18514:	0a068863          	beqz	a3,185c4 <__lo0bits+0xd0>
   18518:	0017d793          	srli	a5,a5,0x1
   1851c:	00f72023          	sw	a5,0(a4) # 40000000 <__BSS_END__+0x3ffdc1d0>
   18520:	00100513          	li	a0,1
   18524:	00008067          	ret
   18528:	01079693          	slli	a3,a5,0x10
   1852c:	0106d693          	srli	a3,a3,0x10
   18530:	00000513          	li	a0,0
   18534:	06068e63          	beqz	a3,185b0 <__lo0bits+0xbc>
   18538:	0ff7f693          	zext.b	a3,a5
   1853c:	06068063          	beqz	a3,1859c <__lo0bits+0xa8>
   18540:	00f7f693          	andi	a3,a5,15
   18544:	04068263          	beqz	a3,18588 <__lo0bits+0x94>
   18548:	0037f693          	andi	a3,a5,3
   1854c:	02068463          	beqz	a3,18574 <__lo0bits+0x80>
   18550:	0017f693          	andi	a3,a5,1
   18554:	00069c63          	bnez	a3,1856c <__lo0bits+0x78>
   18558:	0017d793          	srli	a5,a5,0x1
   1855c:	00150513          	addi	a0,a0,1
   18560:	00079663          	bnez	a5,1856c <__lo0bits+0x78>
   18564:	02000513          	li	a0,32
   18568:	00008067          	ret
   1856c:	00f72023          	sw	a5,0(a4)
   18570:	00008067          	ret
   18574:	0027d793          	srli	a5,a5,0x2
   18578:	0017f693          	andi	a3,a5,1
   1857c:	00250513          	addi	a0,a0,2
   18580:	fe0696e3          	bnez	a3,1856c <__lo0bits+0x78>
   18584:	fd5ff06f          	j	18558 <__lo0bits+0x64>
   18588:	0047d793          	srli	a5,a5,0x4
   1858c:	0037f693          	andi	a3,a5,3
   18590:	00450513          	addi	a0,a0,4
   18594:	fa069ee3          	bnez	a3,18550 <__lo0bits+0x5c>
   18598:	fddff06f          	j	18574 <__lo0bits+0x80>
   1859c:	0087d793          	srli	a5,a5,0x8
   185a0:	00f7f693          	andi	a3,a5,15
   185a4:	00850513          	addi	a0,a0,8
   185a8:	fa0690e3          	bnez	a3,18548 <__lo0bits+0x54>
   185ac:	fddff06f          	j	18588 <__lo0bits+0x94>
   185b0:	0107d793          	srli	a5,a5,0x10
   185b4:	0ff7f693          	zext.b	a3,a5
   185b8:	01000513          	li	a0,16
   185bc:	f80692e3          	bnez	a3,18540 <__lo0bits+0x4c>
   185c0:	fddff06f          	j	1859c <__lo0bits+0xa8>
   185c4:	0027d793          	srli	a5,a5,0x2
   185c8:	00f72023          	sw	a5,0(a4)
   185cc:	00200513          	li	a0,2
   185d0:	00008067          	ret

000185d4 <__i2b>:
   185d4:	04c52783          	lw	a5,76(a0)
   185d8:	ff010113          	addi	sp,sp,-16
   185dc:	00812423          	sw	s0,8(sp)
   185e0:	00912223          	sw	s1,4(sp)
   185e4:	00112623          	sw	ra,12(sp)
   185e8:	00050413          	mv	s0,a0
   185ec:	00058493          	mv	s1,a1
   185f0:	02078c63          	beqz	a5,18628 <__i2b+0x54>
   185f4:	0047a503          	lw	a0,4(a5)
   185f8:	06050263          	beqz	a0,1865c <__i2b+0x88>
   185fc:	00052703          	lw	a4,0(a0)
   18600:	00e7a223          	sw	a4,4(a5)
   18604:	00c12083          	lw	ra,12(sp)
   18608:	00812403          	lw	s0,8(sp)
   1860c:	00100793          	li	a5,1
   18610:	00952a23          	sw	s1,20(a0)
   18614:	00052623          	sw	zero,12(a0)
   18618:	00f52823          	sw	a5,16(a0)
   1861c:	00412483          	lw	s1,4(sp)
   18620:	01010113          	addi	sp,sp,16
   18624:	00008067          	ret
   18628:	02100613          	li	a2,33
   1862c:	00400593          	li	a1,4
   18630:	1a5030ef          	jal	ra,1bfd4 <_calloc_r>
   18634:	04a42623          	sw	a0,76(s0)
   18638:	00050793          	mv	a5,a0
   1863c:	fa051ce3          	bnez	a0,185f4 <__i2b+0x20>
   18640:	00009697          	auipc	a3,0x9
   18644:	44868693          	addi	a3,a3,1096 # 21a88 <blanks.1+0x20>
   18648:	00000613          	li	a2,0
   1864c:	14000593          	li	a1,320
   18650:	0000a517          	auipc	a0,0xa
   18654:	9b850513          	addi	a0,a0,-1608 # 22008 <JIS_state_table+0x48>
   18658:	115030ef          	jal	ra,1bf6c <__assert_func>
   1865c:	01c00613          	li	a2,28
   18660:	00100593          	li	a1,1
   18664:	00040513          	mv	a0,s0
   18668:	16d030ef          	jal	ra,1bfd4 <_calloc_r>
   1866c:	fc050ae3          	beqz	a0,18640 <__i2b+0x6c>
   18670:	00100793          	li	a5,1
   18674:	00f52223          	sw	a5,4(a0)
   18678:	00200793          	li	a5,2
   1867c:	00f52423          	sw	a5,8(a0)
   18680:	f85ff06f          	j	18604 <__i2b+0x30>

00018684 <__multiply>:
   18684:	fb010113          	addi	sp,sp,-80
   18688:	03312e23          	sw	s3,60(sp)
   1868c:	03812423          	sw	s8,40(sp)
   18690:	01062983          	lw	s3,16(a2)
   18694:	0105ac03          	lw	s8,16(a1)
   18698:	04812423          	sw	s0,72(sp)
   1869c:	03412c23          	sw	s4,56(sp)
   186a0:	04112623          	sw	ra,76(sp)
   186a4:	04912223          	sw	s1,68(sp)
   186a8:	05212023          	sw	s2,64(sp)
   186ac:	03512a23          	sw	s5,52(sp)
   186b0:	03612823          	sw	s6,48(sp)
   186b4:	03712623          	sw	s7,44(sp)
   186b8:	03912223          	sw	s9,36(sp)
   186bc:	03a12023          	sw	s10,32(sp)
   186c0:	01b12e23          	sw	s11,28(sp)
   186c4:	00058a13          	mv	s4,a1
   186c8:	00060413          	mv	s0,a2
   186cc:	013c4c63          	blt	s8,s3,186e4 <__multiply+0x60>
   186d0:	00098713          	mv	a4,s3
   186d4:	00058413          	mv	s0,a1
   186d8:	000c0993          	mv	s3,s8
   186dc:	00060a13          	mv	s4,a2
   186e0:	00070c13          	mv	s8,a4
   186e4:	00842783          	lw	a5,8(s0)
   186e8:	00442583          	lw	a1,4(s0)
   186ec:	01898bb3          	add	s7,s3,s8
   186f0:	0177a7b3          	slt	a5,a5,s7
   186f4:	00f585b3          	add	a1,a1,a5
   186f8:	a09ff0ef          	jal	ra,18100 <_Balloc>
   186fc:	00a12623          	sw	a0,12(sp)
   18700:	20050a63          	beqz	a0,18914 <__multiply+0x290>
   18704:	00c12783          	lw	a5,12(sp)
   18708:	002b9a93          	slli	s5,s7,0x2
   1870c:	01478b13          	addi	s6,a5,20
   18710:	015b0ab3          	add	s5,s6,s5
   18714:	000b0793          	mv	a5,s6
   18718:	015b7863          	bgeu	s6,s5,18728 <__multiply+0xa4>
   1871c:	0007a023          	sw	zero,0(a5)
   18720:	00478793          	addi	a5,a5,4
   18724:	ff57ece3          	bltu	a5,s5,1871c <__multiply+0x98>
   18728:	014a0a13          	addi	s4,s4,20
   1872c:	002c1c13          	slli	s8,s8,0x2
   18730:	01440793          	addi	a5,s0,20
   18734:	018a0733          	add	a4,s4,s8
   18738:	00299993          	slli	s3,s3,0x2
   1873c:	00f12423          	sw	a5,8(sp)
   18740:	00e12023          	sw	a4,0(sp)
   18744:	013789b3          	add	s3,a5,s3
   18748:	14ea7863          	bgeu	s4,a4,18898 <__multiply+0x214>
   1874c:	00400713          	li	a4,4
   18750:	01540793          	addi	a5,s0,21
   18754:	00e12223          	sw	a4,4(sp)
   18758:	1af9f263          	bgeu	s3,a5,188fc <__multiply+0x278>
   1875c:	00010437          	lui	s0,0x10
   18760:	fff40413          	addi	s0,s0,-1 # ffff <exit-0x95>
   18764:	01c0006f          	j	18780 <__multiply+0xfc>
   18768:	01095913          	srli	s2,s2,0x10
   1876c:	0a091063          	bnez	s2,1880c <__multiply+0x188>
   18770:	00012783          	lw	a5,0(sp)
   18774:	004a0a13          	addi	s4,s4,4
   18778:	004b0b13          	addi	s6,s6,4
   1877c:	10fa7e63          	bgeu	s4,a5,18898 <__multiply+0x214>
   18780:	000a2903          	lw	s2,0(s4)
   18784:	008974b3          	and	s1,s2,s0
   18788:	fe0480e3          	beqz	s1,18768 <__multiply+0xe4>
   1878c:	00812c83          	lw	s9,8(sp)
   18790:	000b0d13          	mv	s10,s6
   18794:	00000c13          	li	s8,0
   18798:	000cad83          	lw	s11,0(s9)
   1879c:	000d2903          	lw	s2,0(s10)
   187a0:	00048593          	mv	a1,s1
   187a4:	008df533          	and	a0,s11,s0
   187a8:	6e9080ef          	jal	ra,21690 <__mulsi3>
   187ac:	00897733          	and	a4,s2,s0
   187b0:	00e50733          	add	a4,a0,a4
   187b4:	00048593          	mv	a1,s1
   187b8:	010dd513          	srli	a0,s11,0x10
   187bc:	01870c33          	add	s8,a4,s8
   187c0:	01095913          	srli	s2,s2,0x10
   187c4:	6cd080ef          	jal	ra,21690 <__mulsi3>
   187c8:	010c5713          	srli	a4,s8,0x10
   187cc:	01250533          	add	a0,a0,s2
   187d0:	00e50533          	add	a0,a0,a4
   187d4:	008c77b3          	and	a5,s8,s0
   187d8:	01051713          	slli	a4,a0,0x10
   187dc:	004d0d13          	addi	s10,s10,4
   187e0:	00f767b3          	or	a5,a4,a5
   187e4:	004c8c93          	addi	s9,s9,4
   187e8:	fefd2e23          	sw	a5,-4(s10)
   187ec:	01055c13          	srli	s8,a0,0x10
   187f0:	fb3ce4e3          	bltu	s9,s3,18798 <__multiply+0x114>
   187f4:	00412783          	lw	a5,4(sp)
   187f8:	00fb0733          	add	a4,s6,a5
   187fc:	01872023          	sw	s8,0(a4)
   18800:	000a2903          	lw	s2,0(s4)
   18804:	01095913          	srli	s2,s2,0x10
   18808:	f60904e3          	beqz	s2,18770 <__multiply+0xec>
   1880c:	000b2c83          	lw	s9,0(s6)
   18810:	00812d03          	lw	s10,8(sp)
   18814:	000b0c13          	mv	s8,s6
   18818:	000c8493          	mv	s1,s9
   1881c:	00000d93          	li	s11,0
   18820:	000d2503          	lw	a0,0(s10)
   18824:	00090593          	mv	a1,s2
   18828:	0104d493          	srli	s1,s1,0x10
   1882c:	00857533          	and	a0,a0,s0
   18830:	661080ef          	jal	ra,21690 <__mulsi3>
   18834:	01b50733          	add	a4,a0,s11
   18838:	00970db3          	add	s11,a4,s1
   1883c:	010d9593          	slli	a1,s11,0x10
   18840:	008cf7b3          	and	a5,s9,s0
   18844:	00f5e7b3          	or	a5,a1,a5
   18848:	00fc2023          	sw	a5,0(s8)
   1884c:	002d5503          	lhu	a0,2(s10)
   18850:	004c2483          	lw	s1,4(s8)
   18854:	00090593          	mv	a1,s2
   18858:	639080ef          	jal	ra,21690 <__mulsi3>
   1885c:	0084f7b3          	and	a5,s1,s0
   18860:	010dd713          	srli	a4,s11,0x10
   18864:	00f507b3          	add	a5,a0,a5
   18868:	00e78cb3          	add	s9,a5,a4
   1886c:	004d0d13          	addi	s10,s10,4
   18870:	004c0c13          	addi	s8,s8,4
   18874:	010cdd93          	srli	s11,s9,0x10
   18878:	fb3d64e3          	bltu	s10,s3,18820 <__multiply+0x19c>
   1887c:	00412783          	lw	a5,4(sp)
   18880:	004a0a13          	addi	s4,s4,4
   18884:	00fb0733          	add	a4,s6,a5
   18888:	00012783          	lw	a5,0(sp)
   1888c:	01972023          	sw	s9,0(a4)
   18890:	004b0b13          	addi	s6,s6,4
   18894:	eefa66e3          	bltu	s4,a5,18780 <__multiply+0xfc>
   18898:	01704863          	bgtz	s7,188a8 <__multiply+0x224>
   1889c:	0180006f          	j	188b4 <__multiply+0x230>
   188a0:	fffb8b93          	addi	s7,s7,-1
   188a4:	000b8863          	beqz	s7,188b4 <__multiply+0x230>
   188a8:	ffcaa783          	lw	a5,-4(s5)
   188ac:	ffca8a93          	addi	s5,s5,-4
   188b0:	fe0788e3          	beqz	a5,188a0 <__multiply+0x21c>
   188b4:	00c12783          	lw	a5,12(sp)
   188b8:	04c12083          	lw	ra,76(sp)
   188bc:	04812403          	lw	s0,72(sp)
   188c0:	0177a823          	sw	s7,16(a5)
   188c4:	04412483          	lw	s1,68(sp)
   188c8:	04012903          	lw	s2,64(sp)
   188cc:	03c12983          	lw	s3,60(sp)
   188d0:	03812a03          	lw	s4,56(sp)
   188d4:	03412a83          	lw	s5,52(sp)
   188d8:	03012b03          	lw	s6,48(sp)
   188dc:	02c12b83          	lw	s7,44(sp)
   188e0:	02812c03          	lw	s8,40(sp)
   188e4:	02412c83          	lw	s9,36(sp)
   188e8:	02012d03          	lw	s10,32(sp)
   188ec:	01c12d83          	lw	s11,28(sp)
   188f0:	00078513          	mv	a0,a5
   188f4:	05010113          	addi	sp,sp,80
   188f8:	00008067          	ret
   188fc:	408987b3          	sub	a5,s3,s0
   18900:	feb78793          	addi	a5,a5,-21
   18904:	ffc7f793          	andi	a5,a5,-4
   18908:	00478793          	addi	a5,a5,4
   1890c:	00f12223          	sw	a5,4(sp)
   18910:	e4dff06f          	j	1875c <__multiply+0xd8>
   18914:	00009697          	auipc	a3,0x9
   18918:	17468693          	addi	a3,a3,372 # 21a88 <blanks.1+0x20>
   1891c:	00000613          	li	a2,0
   18920:	15d00593          	li	a1,349
   18924:	00009517          	auipc	a0,0x9
   18928:	6e450513          	addi	a0,a0,1764 # 22008 <JIS_state_table+0x48>
   1892c:	640030ef          	jal	ra,1bf6c <__assert_func>

00018930 <__pow5mult>:
   18930:	fe010113          	addi	sp,sp,-32
   18934:	00812c23          	sw	s0,24(sp)
   18938:	01212823          	sw	s2,16(sp)
   1893c:	01312623          	sw	s3,12(sp)
   18940:	00112e23          	sw	ra,28(sp)
   18944:	00912a23          	sw	s1,20(sp)
   18948:	00367793          	andi	a5,a2,3
   1894c:	00060413          	mv	s0,a2
   18950:	00050993          	mv	s3,a0
   18954:	00058913          	mv	s2,a1
   18958:	0a079a63          	bnez	a5,18a0c <__pow5mult+0xdc>
   1895c:	40245413          	srai	s0,s0,0x2
   18960:	06040663          	beqz	s0,189cc <__pow5mult+0x9c>
   18964:	0489a483          	lw	s1,72(s3)
   18968:	0c048663          	beqz	s1,18a34 <__pow5mult+0x104>
   1896c:	00147793          	andi	a5,s0,1
   18970:	02079063          	bnez	a5,18990 <__pow5mult+0x60>
   18974:	40145413          	srai	s0,s0,0x1
   18978:	04040a63          	beqz	s0,189cc <__pow5mult+0x9c>
   1897c:	0004a503          	lw	a0,0(s1)
   18980:	06050663          	beqz	a0,189ec <__pow5mult+0xbc>
   18984:	00050493          	mv	s1,a0
   18988:	00147793          	andi	a5,s0,1
   1898c:	fe0784e3          	beqz	a5,18974 <__pow5mult+0x44>
   18990:	00048613          	mv	a2,s1
   18994:	00090593          	mv	a1,s2
   18998:	00098513          	mv	a0,s3
   1899c:	ce9ff0ef          	jal	ra,18684 <__multiply>
   189a0:	02090063          	beqz	s2,189c0 <__pow5mult+0x90>
   189a4:	00492703          	lw	a4,4(s2)
   189a8:	04c9a783          	lw	a5,76(s3)
   189ac:	00271713          	slli	a4,a4,0x2
   189b0:	00e787b3          	add	a5,a5,a4
   189b4:	0007a703          	lw	a4,0(a5)
   189b8:	00e92023          	sw	a4,0(s2)
   189bc:	0127a023          	sw	s2,0(a5)
   189c0:	40145413          	srai	s0,s0,0x1
   189c4:	00050913          	mv	s2,a0
   189c8:	fa041ae3          	bnez	s0,1897c <__pow5mult+0x4c>
   189cc:	01c12083          	lw	ra,28(sp)
   189d0:	01812403          	lw	s0,24(sp)
   189d4:	01412483          	lw	s1,20(sp)
   189d8:	00c12983          	lw	s3,12(sp)
   189dc:	00090513          	mv	a0,s2
   189e0:	01012903          	lw	s2,16(sp)
   189e4:	02010113          	addi	sp,sp,32
   189e8:	00008067          	ret
   189ec:	00048613          	mv	a2,s1
   189f0:	00048593          	mv	a1,s1
   189f4:	00098513          	mv	a0,s3
   189f8:	c8dff0ef          	jal	ra,18684 <__multiply>
   189fc:	00a4a023          	sw	a0,0(s1)
   18a00:	00052023          	sw	zero,0(a0)
   18a04:	00050493          	mv	s1,a0
   18a08:	f81ff06f          	j	18988 <__pow5mult+0x58>
   18a0c:	fff78793          	addi	a5,a5,-1
   18a10:	00009717          	auipc	a4,0x9
   18a14:	66c70713          	addi	a4,a4,1644 # 2207c <p05.0>
   18a18:	00279793          	slli	a5,a5,0x2
   18a1c:	00f707b3          	add	a5,a4,a5
   18a20:	0007a603          	lw	a2,0(a5)
   18a24:	00000693          	li	a3,0
   18a28:	fa4ff0ef          	jal	ra,181cc <__multadd>
   18a2c:	00050913          	mv	s2,a0
   18a30:	f2dff06f          	j	1895c <__pow5mult+0x2c>
   18a34:	00100593          	li	a1,1
   18a38:	00098513          	mv	a0,s3
   18a3c:	ec4ff0ef          	jal	ra,18100 <_Balloc>
   18a40:	00050493          	mv	s1,a0
   18a44:	02050063          	beqz	a0,18a64 <__pow5mult+0x134>
   18a48:	27100793          	li	a5,625
   18a4c:	00f52a23          	sw	a5,20(a0)
   18a50:	00100793          	li	a5,1
   18a54:	00f52823          	sw	a5,16(a0)
   18a58:	04a9a423          	sw	a0,72(s3)
   18a5c:	00052023          	sw	zero,0(a0)
   18a60:	f0dff06f          	j	1896c <__pow5mult+0x3c>
   18a64:	00009697          	auipc	a3,0x9
   18a68:	02468693          	addi	a3,a3,36 # 21a88 <blanks.1+0x20>
   18a6c:	00000613          	li	a2,0
   18a70:	14000593          	li	a1,320
   18a74:	00009517          	auipc	a0,0x9
   18a78:	59450513          	addi	a0,a0,1428 # 22008 <JIS_state_table+0x48>
   18a7c:	4f0030ef          	jal	ra,1bf6c <__assert_func>

00018a80 <__lshift>:
   18a80:	fe010113          	addi	sp,sp,-32
   18a84:	01512223          	sw	s5,4(sp)
   18a88:	0105aa83          	lw	s5,16(a1)
   18a8c:	0085a783          	lw	a5,8(a1)
   18a90:	01312623          	sw	s3,12(sp)
   18a94:	40565993          	srai	s3,a2,0x5
   18a98:	01598ab3          	add	s5,s3,s5
   18a9c:	00812c23          	sw	s0,24(sp)
   18aa0:	00912a23          	sw	s1,20(sp)
   18aa4:	01212823          	sw	s2,16(sp)
   18aa8:	01412423          	sw	s4,8(sp)
   18aac:	00112e23          	sw	ra,28(sp)
   18ab0:	001a8913          	addi	s2,s5,1
   18ab4:	00058493          	mv	s1,a1
   18ab8:	00060413          	mv	s0,a2
   18abc:	0045a583          	lw	a1,4(a1)
   18ac0:	00050a13          	mv	s4,a0
   18ac4:	0127d863          	bge	a5,s2,18ad4 <__lshift+0x54>
   18ac8:	00179793          	slli	a5,a5,0x1
   18acc:	00158593          	addi	a1,a1,1
   18ad0:	ff27cce3          	blt	a5,s2,18ac8 <__lshift+0x48>
   18ad4:	000a0513          	mv	a0,s4
   18ad8:	e28ff0ef          	jal	ra,18100 <_Balloc>
   18adc:	10050c63          	beqz	a0,18bf4 <__lshift+0x174>
   18ae0:	01450813          	addi	a6,a0,20
   18ae4:	03305463          	blez	s3,18b0c <__lshift+0x8c>
   18ae8:	00598993          	addi	s3,s3,5
   18aec:	00299993          	slli	s3,s3,0x2
   18af0:	01350733          	add	a4,a0,s3
   18af4:	00080793          	mv	a5,a6
   18af8:	00478793          	addi	a5,a5,4
   18afc:	fe07ae23          	sw	zero,-4(a5)
   18b00:	fee79ce3          	bne	a5,a4,18af8 <__lshift+0x78>
   18b04:	fec98993          	addi	s3,s3,-20
   18b08:	01380833          	add	a6,a6,s3
   18b0c:	0104a883          	lw	a7,16(s1)
   18b10:	01448793          	addi	a5,s1,20
   18b14:	01f47613          	andi	a2,s0,31
   18b18:	00289893          	slli	a7,a7,0x2
   18b1c:	011788b3          	add	a7,a5,a7
   18b20:	0a060463          	beqz	a2,18bc8 <__lshift+0x148>
   18b24:	02000593          	li	a1,32
   18b28:	40c585b3          	sub	a1,a1,a2
   18b2c:	00080313          	mv	t1,a6
   18b30:	00000693          	li	a3,0
   18b34:	0007a703          	lw	a4,0(a5)
   18b38:	00430313          	addi	t1,t1,4
   18b3c:	00478793          	addi	a5,a5,4
   18b40:	00c71733          	sll	a4,a4,a2
   18b44:	00d76733          	or	a4,a4,a3
   18b48:	fee32e23          	sw	a4,-4(t1)
   18b4c:	ffc7a683          	lw	a3,-4(a5)
   18b50:	00b6d6b3          	srl	a3,a3,a1
   18b54:	ff17e0e3          	bltu	a5,a7,18b34 <__lshift+0xb4>
   18b58:	01548793          	addi	a5,s1,21
   18b5c:	00400713          	li	a4,4
   18b60:	00f8ea63          	bltu	a7,a5,18b74 <__lshift+0xf4>
   18b64:	409887b3          	sub	a5,a7,s1
   18b68:	feb78793          	addi	a5,a5,-21
   18b6c:	ffc7f793          	andi	a5,a5,-4
   18b70:	00478713          	addi	a4,a5,4
   18b74:	00e80833          	add	a6,a6,a4
   18b78:	00d82023          	sw	a3,0(a6)
   18b7c:	00069463          	bnez	a3,18b84 <__lshift+0x104>
   18b80:	000a8913          	mv	s2,s5
   18b84:	0044a703          	lw	a4,4(s1)
   18b88:	04ca2783          	lw	a5,76(s4)
   18b8c:	01c12083          	lw	ra,28(sp)
   18b90:	00271713          	slli	a4,a4,0x2
   18b94:	00e787b3          	add	a5,a5,a4
   18b98:	0007a703          	lw	a4,0(a5)
   18b9c:	01252823          	sw	s2,16(a0)
   18ba0:	01812403          	lw	s0,24(sp)
   18ba4:	00e4a023          	sw	a4,0(s1)
   18ba8:	0097a023          	sw	s1,0(a5)
   18bac:	01012903          	lw	s2,16(sp)
   18bb0:	01412483          	lw	s1,20(sp)
   18bb4:	00c12983          	lw	s3,12(sp)
   18bb8:	00812a03          	lw	s4,8(sp)
   18bbc:	00412a83          	lw	s5,4(sp)
   18bc0:	02010113          	addi	sp,sp,32
   18bc4:	00008067          	ret
   18bc8:	0007a703          	lw	a4,0(a5)
   18bcc:	00478793          	addi	a5,a5,4
   18bd0:	00480813          	addi	a6,a6,4
   18bd4:	fee82e23          	sw	a4,-4(a6)
   18bd8:	fb17f4e3          	bgeu	a5,a7,18b80 <__lshift+0x100>
   18bdc:	0007a703          	lw	a4,0(a5)
   18be0:	00478793          	addi	a5,a5,4
   18be4:	00480813          	addi	a6,a6,4
   18be8:	fee82e23          	sw	a4,-4(a6)
   18bec:	fd17eee3          	bltu	a5,a7,18bc8 <__lshift+0x148>
   18bf0:	f91ff06f          	j	18b80 <__lshift+0x100>
   18bf4:	00009697          	auipc	a3,0x9
   18bf8:	e9468693          	addi	a3,a3,-364 # 21a88 <blanks.1+0x20>
   18bfc:	00000613          	li	a2,0
   18c00:	1d900593          	li	a1,473
   18c04:	00009517          	auipc	a0,0x9
   18c08:	40450513          	addi	a0,a0,1028 # 22008 <JIS_state_table+0x48>
   18c0c:	360030ef          	jal	ra,1bf6c <__assert_func>

00018c10 <__mcmp>:
   18c10:	01052703          	lw	a4,16(a0)
   18c14:	0105a783          	lw	a5,16(a1)
   18c18:	00050813          	mv	a6,a0
   18c1c:	40f70533          	sub	a0,a4,a5
   18c20:	04f71263          	bne	a4,a5,18c64 <__mcmp+0x54>
   18c24:	00279793          	slli	a5,a5,0x2
   18c28:	01480813          	addi	a6,a6,20
   18c2c:	01458593          	addi	a1,a1,20
   18c30:	00f80733          	add	a4,a6,a5
   18c34:	00f587b3          	add	a5,a1,a5
   18c38:	0080006f          	j	18c40 <__mcmp+0x30>
   18c3c:	02e87463          	bgeu	a6,a4,18c64 <__mcmp+0x54>
   18c40:	ffc72603          	lw	a2,-4(a4)
   18c44:	ffc7a683          	lw	a3,-4(a5)
   18c48:	ffc70713          	addi	a4,a4,-4
   18c4c:	ffc78793          	addi	a5,a5,-4
   18c50:	fed606e3          	beq	a2,a3,18c3c <__mcmp+0x2c>
   18c54:	00100513          	li	a0,1
   18c58:	00d67663          	bgeu	a2,a3,18c64 <__mcmp+0x54>
   18c5c:	fff00513          	li	a0,-1
   18c60:	00008067          	ret
   18c64:	00008067          	ret

00018c68 <__mdiff>:
   18c68:	0105a703          	lw	a4,16(a1)
   18c6c:	01062783          	lw	a5,16(a2)
   18c70:	ff010113          	addi	sp,sp,-16
   18c74:	00812423          	sw	s0,8(sp)
   18c78:	00912223          	sw	s1,4(sp)
   18c7c:	01212023          	sw	s2,0(sp)
   18c80:	00112623          	sw	ra,12(sp)
   18c84:	00058493          	mv	s1,a1
   18c88:	00060413          	mv	s0,a2
   18c8c:	40f70933          	sub	s2,a4,a5
   18c90:	04f71663          	bne	a4,a5,18cdc <__mdiff+0x74>
   18c94:	00279693          	slli	a3,a5,0x2
   18c98:	01458593          	addi	a1,a1,20
   18c9c:	01460713          	addi	a4,a2,20
   18ca0:	00d587b3          	add	a5,a1,a3
   18ca4:	00d70733          	add	a4,a4,a3
   18ca8:	0080006f          	j	18cb0 <__mdiff+0x48>
   18cac:	18f5f463          	bgeu	a1,a5,18e34 <__mdiff+0x1cc>
   18cb0:	ffc7a603          	lw	a2,-4(a5)
   18cb4:	ffc72683          	lw	a3,-4(a4)
   18cb8:	ffc78793          	addi	a5,a5,-4
   18cbc:	ffc70713          	addi	a4,a4,-4
   18cc0:	fed606e3          	beq	a2,a3,18cac <__mdiff+0x44>
   18cc4:	02d67063          	bgeu	a2,a3,18ce4 <__mdiff+0x7c>
   18cc8:	00048793          	mv	a5,s1
   18ccc:	00100913          	li	s2,1
   18cd0:	00040493          	mv	s1,s0
   18cd4:	00078413          	mv	s0,a5
   18cd8:	00c0006f          	j	18ce4 <__mdiff+0x7c>
   18cdc:	fe0946e3          	bltz	s2,18cc8 <__mdiff+0x60>
   18ce0:	00000913          	li	s2,0
   18ce4:	0044a583          	lw	a1,4(s1)
   18ce8:	c18ff0ef          	jal	ra,18100 <_Balloc>
   18cec:	1a050863          	beqz	a0,18e9c <__mdiff+0x234>
   18cf0:	0104a303          	lw	t1,16(s1)
   18cf4:	01042603          	lw	a2,16(s0)
   18cf8:	01448293          	addi	t0,s1,20
   18cfc:	00231e13          	slli	t3,t1,0x2
   18d00:	01440813          	addi	a6,s0,20
   18d04:	00261613          	slli	a2,a2,0x2
   18d08:	01450f93          	addi	t6,a0,20
   18d0c:	000108b7          	lui	a7,0x10
   18d10:	01252623          	sw	s2,12(a0)
   18d14:	01c28e33          	add	t3,t0,t3
   18d18:	00c80633          	add	a2,a6,a2
   18d1c:	000f8f13          	mv	t5,t6
   18d20:	00028e93          	mv	t4,t0
   18d24:	00000693          	li	a3,0
   18d28:	fff88893          	addi	a7,a7,-1 # ffff <exit-0x95>
   18d2c:	000ea703          	lw	a4,0(t4)
   18d30:	00082583          	lw	a1,0(a6)
   18d34:	004f0f13          	addi	t5,t5,4
   18d38:	011777b3          	and	a5,a4,a7
   18d3c:	0115f3b3          	and	t2,a1,a7
   18d40:	407787b3          	sub	a5,a5,t2
   18d44:	00d787b3          	add	a5,a5,a3
   18d48:	01075713          	srli	a4,a4,0x10
   18d4c:	0105d593          	srli	a1,a1,0x10
   18d50:	4107d693          	srai	a3,a5,0x10
   18d54:	40b70733          	sub	a4,a4,a1
   18d58:	00d70733          	add	a4,a4,a3
   18d5c:	01071693          	slli	a3,a4,0x10
   18d60:	0117f7b3          	and	a5,a5,a7
   18d64:	00d7e7b3          	or	a5,a5,a3
   18d68:	00480813          	addi	a6,a6,4
   18d6c:	feff2e23          	sw	a5,-4(t5)
   18d70:	004e8e93          	addi	t4,t4,4
   18d74:	41075693          	srai	a3,a4,0x10
   18d78:	fac86ae3          	bltu	a6,a2,18d2c <__mdiff+0xc4>
   18d7c:	40860733          	sub	a4,a2,s0
   18d80:	feb70713          	addi	a4,a4,-21
   18d84:	01540413          	addi	s0,s0,21
   18d88:	00275f13          	srli	t5,a4,0x2
   18d8c:	00400713          	li	a4,4
   18d90:	00866663          	bltu	a2,s0,18d9c <__mdiff+0x134>
   18d94:	001f0713          	addi	a4,t5,1
   18d98:	00271713          	slli	a4,a4,0x2
   18d9c:	00e282b3          	add	t0,t0,a4
   18da0:	00ef8833          	add	a6,t6,a4
   18da4:	00010eb7          	lui	t4,0x10
   18da8:	00080893          	mv	a7,a6
   18dac:	00028593          	mv	a1,t0
   18db0:	fffe8e93          	addi	t4,t4,-1 # ffff <exit-0x95>
   18db4:	0bc2f863          	bgeu	t0,t3,18e64 <__mdiff+0x1fc>
   18db8:	0005a783          	lw	a5,0(a1)
   18dbc:	00488893          	addi	a7,a7,4
   18dc0:	00458593          	addi	a1,a1,4
   18dc4:	01d7f733          	and	a4,a5,t4
   18dc8:	00d70733          	add	a4,a4,a3
   18dcc:	0107d613          	srli	a2,a5,0x10
   18dd0:	41075713          	srai	a4,a4,0x10
   18dd4:	00c70733          	add	a4,a4,a2
   18dd8:	00d787b3          	add	a5,a5,a3
   18ddc:	01d7f7b3          	and	a5,a5,t4
   18de0:	01071693          	slli	a3,a4,0x10
   18de4:	00d7e7b3          	or	a5,a5,a3
   18de8:	fef8ae23          	sw	a5,-4(a7)
   18dec:	41075693          	srai	a3,a4,0x10
   18df0:	fdc5e4e3          	bltu	a1,t3,18db8 <__mdiff+0x150>
   18df4:	fffe0e13          	addi	t3,t3,-1
   18df8:	405e0e33          	sub	t3,t3,t0
   18dfc:	ffce7e13          	andi	t3,t3,-4
   18e00:	01c80733          	add	a4,a6,t3
   18e04:	00079a63          	bnez	a5,18e18 <__mdiff+0x1b0>
   18e08:	ffc72783          	lw	a5,-4(a4)
   18e0c:	fff30313          	addi	t1,t1,-1
   18e10:	ffc70713          	addi	a4,a4,-4
   18e14:	fe078ae3          	beqz	a5,18e08 <__mdiff+0x1a0>
   18e18:	00c12083          	lw	ra,12(sp)
   18e1c:	00812403          	lw	s0,8(sp)
   18e20:	00652823          	sw	t1,16(a0)
   18e24:	00412483          	lw	s1,4(sp)
   18e28:	00012903          	lw	s2,0(sp)
   18e2c:	01010113          	addi	sp,sp,16
   18e30:	00008067          	ret
   18e34:	00000593          	li	a1,0
   18e38:	ac8ff0ef          	jal	ra,18100 <_Balloc>
   18e3c:	04050263          	beqz	a0,18e80 <__mdiff+0x218>
   18e40:	00c12083          	lw	ra,12(sp)
   18e44:	00812403          	lw	s0,8(sp)
   18e48:	00100793          	li	a5,1
   18e4c:	00f52823          	sw	a5,16(a0)
   18e50:	00052a23          	sw	zero,20(a0)
   18e54:	00412483          	lw	s1,4(sp)
   18e58:	00012903          	lw	s2,0(sp)
   18e5c:	01010113          	addi	sp,sp,16
   18e60:	00008067          	ret
   18e64:	00000713          	li	a4,0
   18e68:	00867663          	bgeu	a2,s0,18e74 <__mdiff+0x20c>
   18e6c:	00ef8733          	add	a4,t6,a4
   18e70:	f95ff06f          	j	18e04 <__mdiff+0x19c>
   18e74:	002f1713          	slli	a4,t5,0x2
   18e78:	00ef8733          	add	a4,t6,a4
   18e7c:	f89ff06f          	j	18e04 <__mdiff+0x19c>
   18e80:	00009697          	auipc	a3,0x9
   18e84:	c0868693          	addi	a3,a3,-1016 # 21a88 <blanks.1+0x20>
   18e88:	00000613          	li	a2,0
   18e8c:	23200593          	li	a1,562
   18e90:	00009517          	auipc	a0,0x9
   18e94:	17850513          	addi	a0,a0,376 # 22008 <JIS_state_table+0x48>
   18e98:	0d4030ef          	jal	ra,1bf6c <__assert_func>
   18e9c:	00009697          	auipc	a3,0x9
   18ea0:	bec68693          	addi	a3,a3,-1044 # 21a88 <blanks.1+0x20>
   18ea4:	00000613          	li	a2,0
   18ea8:	24000593          	li	a1,576
   18eac:	00009517          	auipc	a0,0x9
   18eb0:	15c50513          	addi	a0,a0,348 # 22008 <JIS_state_table+0x48>
   18eb4:	0b8030ef          	jal	ra,1bf6c <__assert_func>

00018eb8 <__ulp>:
   18eb8:	7ff007b7          	lui	a5,0x7ff00
   18ebc:	00b7f5b3          	and	a1,a5,a1
   18ec0:	fcc007b7          	lui	a5,0xfcc00
   18ec4:	00f585b3          	add	a1,a1,a5
   18ec8:	00000793          	li	a5,0
   18ecc:	00b05663          	blez	a1,18ed8 <__ulp+0x20>
   18ed0:	00078513          	mv	a0,a5
   18ed4:	00008067          	ret
   18ed8:	40b005b3          	neg	a1,a1
   18edc:	4145d593          	srai	a1,a1,0x14
   18ee0:	01300793          	li	a5,19
   18ee4:	00b7cc63          	blt	a5,a1,18efc <__ulp+0x44>
   18ee8:	000807b7          	lui	a5,0x80
   18eec:	40b7d5b3          	sra	a1,a5,a1
   18ef0:	00000793          	li	a5,0
   18ef4:	00078513          	mv	a0,a5
   18ef8:	00008067          	ret
   18efc:	fec58593          	addi	a1,a1,-20
   18f00:	01e00713          	li	a4,30
   18f04:	00100793          	li	a5,1
   18f08:	00b74663          	blt	a4,a1,18f14 <__ulp+0x5c>
   18f0c:	800007b7          	lui	a5,0x80000
   18f10:	00b7d7b3          	srl	a5,a5,a1
   18f14:	00000593          	li	a1,0
   18f18:	00078513          	mv	a0,a5
   18f1c:	00008067          	ret

00018f20 <__b2d>:
   18f20:	fe010113          	addi	sp,sp,-32
   18f24:	00912a23          	sw	s1,20(sp)
   18f28:	01052483          	lw	s1,16(a0)
   18f2c:	00812c23          	sw	s0,24(sp)
   18f30:	01450413          	addi	s0,a0,20
   18f34:	00249493          	slli	s1,s1,0x2
   18f38:	009404b3          	add	s1,s0,s1
   18f3c:	01212823          	sw	s2,16(sp)
   18f40:	ffc4a903          	lw	s2,-4(s1)
   18f44:	01312623          	sw	s3,12(sp)
   18f48:	01412423          	sw	s4,8(sp)
   18f4c:	00090513          	mv	a0,s2
   18f50:	00058993          	mv	s3,a1
   18f54:	00112e23          	sw	ra,28(sp)
   18f58:	d24ff0ef          	jal	ra,1847c <__hi0bits>
   18f5c:	02000713          	li	a4,32
   18f60:	40a707b3          	sub	a5,a4,a0
   18f64:	00f9a023          	sw	a5,0(s3)
   18f68:	00a00793          	li	a5,10
   18f6c:	ffc48a13          	addi	s4,s1,-4
   18f70:	08a7dc63          	bge	a5,a0,19008 <__b2d+0xe8>
   18f74:	ff550613          	addi	a2,a0,-11
   18f78:	05447063          	bgeu	s0,s4,18fb8 <__b2d+0x98>
   18f7c:	ff84a783          	lw	a5,-8(s1)
   18f80:	04060c63          	beqz	a2,18fd8 <__b2d+0xb8>
   18f84:	40c706b3          	sub	a3,a4,a2
   18f88:	00d7d733          	srl	a4,a5,a3
   18f8c:	00c91933          	sll	s2,s2,a2
   18f90:	00e96933          	or	s2,s2,a4
   18f94:	ff848593          	addi	a1,s1,-8
   18f98:	3ff00737          	lui	a4,0x3ff00
   18f9c:	00e96733          	or	a4,s2,a4
   18fa0:	00c797b3          	sll	a5,a5,a2
   18fa4:	02b47e63          	bgeu	s0,a1,18fe0 <__b2d+0xc0>
   18fa8:	ff44a603          	lw	a2,-12(s1)
   18fac:	00d656b3          	srl	a3,a2,a3
   18fb0:	00d7e7b3          	or	a5,a5,a3
   18fb4:	02c0006f          	j	18fe0 <__b2d+0xc0>
   18fb8:	00b00793          	li	a5,11
   18fbc:	00f50c63          	beq	a0,a5,18fd4 <__b2d+0xb4>
   18fc0:	00c91933          	sll	s2,s2,a2
   18fc4:	3ff00737          	lui	a4,0x3ff00
   18fc8:	00e96733          	or	a4,s2,a4
   18fcc:	00000793          	li	a5,0
   18fd0:	0100006f          	j	18fe0 <__b2d+0xc0>
   18fd4:	00000793          	li	a5,0
   18fd8:	3ff00737          	lui	a4,0x3ff00
   18fdc:	00e96733          	or	a4,s2,a4
   18fe0:	01c12083          	lw	ra,28(sp)
   18fe4:	01812403          	lw	s0,24(sp)
   18fe8:	01412483          	lw	s1,20(sp)
   18fec:	01012903          	lw	s2,16(sp)
   18ff0:	00c12983          	lw	s3,12(sp)
   18ff4:	00812a03          	lw	s4,8(sp)
   18ff8:	00078513          	mv	a0,a5
   18ffc:	00070593          	mv	a1,a4
   19000:	02010113          	addi	sp,sp,32
   19004:	00008067          	ret
   19008:	00b00693          	li	a3,11
   1900c:	40a686b3          	sub	a3,a3,a0
   19010:	3ff007b7          	lui	a5,0x3ff00
   19014:	00d95733          	srl	a4,s2,a3
   19018:	00f76733          	or	a4,a4,a5
   1901c:	00000793          	li	a5,0
   19020:	01447663          	bgeu	s0,s4,1902c <__b2d+0x10c>
   19024:	ff84a783          	lw	a5,-8(s1)
   19028:	00d7d7b3          	srl	a5,a5,a3
   1902c:	01550513          	addi	a0,a0,21
   19030:	00a91933          	sll	s2,s2,a0
   19034:	00f967b3          	or	a5,s2,a5
   19038:	fa9ff06f          	j	18fe0 <__b2d+0xc0>

0001903c <__d2b>:
   1903c:	fd010113          	addi	sp,sp,-48
   19040:	01512a23          	sw	s5,20(sp)
   19044:	00058a93          	mv	s5,a1
   19048:	00100593          	li	a1,1
   1904c:	02912223          	sw	s1,36(sp)
   19050:	01312e23          	sw	s3,28(sp)
   19054:	01412c23          	sw	s4,24(sp)
   19058:	02112623          	sw	ra,44(sp)
   1905c:	02812423          	sw	s0,40(sp)
   19060:	03212023          	sw	s2,32(sp)
   19064:	00060493          	mv	s1,a2
   19068:	00068a13          	mv	s4,a3
   1906c:	00070993          	mv	s3,a4
   19070:	890ff0ef          	jal	ra,18100 <_Balloc>
   19074:	10050263          	beqz	a0,19178 <__d2b+0x13c>
   19078:	00100737          	lui	a4,0x100
   1907c:	0144d913          	srli	s2,s1,0x14
   19080:	fff70793          	addi	a5,a4,-1 # fffff <__BSS_END__+0xdc1cf>
   19084:	7ff97913          	andi	s2,s2,2047
   19088:	00050413          	mv	s0,a0
   1908c:	0097f7b3          	and	a5,a5,s1
   19090:	00090463          	beqz	s2,19098 <__d2b+0x5c>
   19094:	00e7e7b3          	or	a5,a5,a4
   19098:	00f12623          	sw	a5,12(sp)
   1909c:	060a9263          	bnez	s5,19100 <__d2b+0xc4>
   190a0:	00c10513          	addi	a0,sp,12
   190a4:	c50ff0ef          	jal	ra,184f4 <__lo0bits>
   190a8:	00c12703          	lw	a4,12(sp)
   190ac:	00100493          	li	s1,1
   190b0:	00942823          	sw	s1,16(s0)
   190b4:	00e42a23          	sw	a4,20(s0)
   190b8:	02050793          	addi	a5,a0,32
   190bc:	08090863          	beqz	s2,1914c <__d2b+0x110>
   190c0:	bcd90913          	addi	s2,s2,-1075
   190c4:	00f90933          	add	s2,s2,a5
   190c8:	03500493          	li	s1,53
   190cc:	012a2023          	sw	s2,0(s4)
   190d0:	40f48533          	sub	a0,s1,a5
   190d4:	00a9a023          	sw	a0,0(s3)
   190d8:	02c12083          	lw	ra,44(sp)
   190dc:	00040513          	mv	a0,s0
   190e0:	02812403          	lw	s0,40(sp)
   190e4:	02412483          	lw	s1,36(sp)
   190e8:	02012903          	lw	s2,32(sp)
   190ec:	01c12983          	lw	s3,28(sp)
   190f0:	01812a03          	lw	s4,24(sp)
   190f4:	01412a83          	lw	s5,20(sp)
   190f8:	03010113          	addi	sp,sp,48
   190fc:	00008067          	ret
   19100:	00810513          	addi	a0,sp,8
   19104:	01512423          	sw	s5,8(sp)
   19108:	becff0ef          	jal	ra,184f4 <__lo0bits>
   1910c:	00c12703          	lw	a4,12(sp)
   19110:	00050793          	mv	a5,a0
   19114:	04050e63          	beqz	a0,19170 <__d2b+0x134>
   19118:	00812603          	lw	a2,8(sp)
   1911c:	02000693          	li	a3,32
   19120:	40a686b3          	sub	a3,a3,a0
   19124:	00d716b3          	sll	a3,a4,a3
   19128:	00a75733          	srl	a4,a4,a0
   1912c:	00c6e6b3          	or	a3,a3,a2
   19130:	00e12623          	sw	a4,12(sp)
   19134:	00e034b3          	snez	s1,a4
   19138:	00148493          	addi	s1,s1,1
   1913c:	00d42a23          	sw	a3,20(s0)
   19140:	00e42c23          	sw	a4,24(s0)
   19144:	00942823          	sw	s1,16(s0)
   19148:	f6091ce3          	bnez	s2,190c0 <__d2b+0x84>
   1914c:	00249713          	slli	a4,s1,0x2
   19150:	00e40733          	add	a4,s0,a4
   19154:	01072503          	lw	a0,16(a4)
   19158:	bce78793          	addi	a5,a5,-1074 # 3feffbce <__BSS_END__+0x3fedbd9e>
   1915c:	00fa2023          	sw	a5,0(s4)
   19160:	b1cff0ef          	jal	ra,1847c <__hi0bits>
   19164:	00549493          	slli	s1,s1,0x5
   19168:	40a48533          	sub	a0,s1,a0
   1916c:	f69ff06f          	j	190d4 <__d2b+0x98>
   19170:	00812683          	lw	a3,8(sp)
   19174:	fc1ff06f          	j	19134 <__d2b+0xf8>
   19178:	00009697          	auipc	a3,0x9
   1917c:	91068693          	addi	a3,a3,-1776 # 21a88 <blanks.1+0x20>
   19180:	00000613          	li	a2,0
   19184:	30a00593          	li	a1,778
   19188:	00009517          	auipc	a0,0x9
   1918c:	e8050513          	addi	a0,a0,-384 # 22008 <JIS_state_table+0x48>
   19190:	5dd020ef          	jal	ra,1bf6c <__assert_func>

00019194 <__ratio>:
   19194:	fd010113          	addi	sp,sp,-48
   19198:	03212023          	sw	s2,32(sp)
   1919c:	00058913          	mv	s2,a1
   191a0:	00810593          	addi	a1,sp,8
   191a4:	02112623          	sw	ra,44(sp)
   191a8:	02812423          	sw	s0,40(sp)
   191ac:	02912223          	sw	s1,36(sp)
   191b0:	01312e23          	sw	s3,28(sp)
   191b4:	00050993          	mv	s3,a0
   191b8:	d69ff0ef          	jal	ra,18f20 <__b2d>
   191bc:	00050493          	mv	s1,a0
   191c0:	00058413          	mv	s0,a1
   191c4:	00090513          	mv	a0,s2
   191c8:	00c10593          	addi	a1,sp,12
   191cc:	d55ff0ef          	jal	ra,18f20 <__b2d>
   191d0:	01092703          	lw	a4,16(s2)
   191d4:	0109a783          	lw	a5,16(s3)
   191d8:	00c12683          	lw	a3,12(sp)
   191dc:	40e787b3          	sub	a5,a5,a4
   191e0:	00812703          	lw	a4,8(sp)
   191e4:	00579793          	slli	a5,a5,0x5
   191e8:	40d70733          	sub	a4,a4,a3
   191ec:	00e787b3          	add	a5,a5,a4
   191f0:	00050713          	mv	a4,a0
   191f4:	02f05e63          	blez	a5,19230 <__ratio+0x9c>
   191f8:	01479793          	slli	a5,a5,0x14
   191fc:	00878433          	add	s0,a5,s0
   19200:	00058693          	mv	a3,a1
   19204:	00048513          	mv	a0,s1
   19208:	00040593          	mv	a1,s0
   1920c:	00070613          	mv	a2,a4
   19210:	278060ef          	jal	ra,1f488 <__divdf3>
   19214:	02c12083          	lw	ra,44(sp)
   19218:	02812403          	lw	s0,40(sp)
   1921c:	02412483          	lw	s1,36(sp)
   19220:	02012903          	lw	s2,32(sp)
   19224:	01c12983          	lw	s3,28(sp)
   19228:	03010113          	addi	sp,sp,48
   1922c:	00008067          	ret
   19230:	01479793          	slli	a5,a5,0x14
   19234:	40f585b3          	sub	a1,a1,a5
   19238:	fc9ff06f          	j	19200 <__ratio+0x6c>

0001923c <_mprec_log10>:
   1923c:	ff010113          	addi	sp,sp,-16
   19240:	01212023          	sw	s2,0(sp)
   19244:	00112623          	sw	ra,12(sp)
   19248:	00812423          	sw	s0,8(sp)
   1924c:	00912223          	sw	s1,4(sp)
   19250:	01700793          	li	a5,23
   19254:	00050913          	mv	s2,a0
   19258:	04a7de63          	bge	a5,a0,192b4 <_mprec_log10+0x78>
   1925c:	0000b717          	auipc	a4,0xb
   19260:	86470713          	addi	a4,a4,-1948 # 23ac0 <__SDATA_BEGIN__+0x40>
   19264:	00072783          	lw	a5,0(a4)
   19268:	00472583          	lw	a1,4(a4)
   1926c:	0000b717          	auipc	a4,0xb
   19270:	85c70713          	addi	a4,a4,-1956 # 23ac8 <__SDATA_BEGIN__+0x48>
   19274:	00072403          	lw	s0,0(a4)
   19278:	00472483          	lw	s1,4(a4)
   1927c:	00078513          	mv	a0,a5
   19280:	00040613          	mv	a2,s0
   19284:	00048693          	mv	a3,s1
   19288:	521060ef          	jal	ra,1ffa8 <__muldf3>
   1928c:	fff90913          	addi	s2,s2,-1
   19290:	00050793          	mv	a5,a0
   19294:	fe0914e3          	bnez	s2,1927c <_mprec_log10+0x40>
   19298:	00c12083          	lw	ra,12(sp)
   1929c:	00812403          	lw	s0,8(sp)
   192a0:	00412483          	lw	s1,4(sp)
   192a4:	00012903          	lw	s2,0(sp)
   192a8:	00078513          	mv	a0,a5
   192ac:	01010113          	addi	sp,sp,16
   192b0:	00008067          	ret
   192b4:	00351913          	slli	s2,a0,0x3
   192b8:	00009717          	auipc	a4,0x9
   192bc:	e2070713          	addi	a4,a4,-480 # 220d8 <__mprec_tens>
   192c0:	01270733          	add	a4,a4,s2
   192c4:	00072783          	lw	a5,0(a4)
   192c8:	00c12083          	lw	ra,12(sp)
   192cc:	00812403          	lw	s0,8(sp)
   192d0:	00472583          	lw	a1,4(a4)
   192d4:	00412483          	lw	s1,4(sp)
   192d8:	00012903          	lw	s2,0(sp)
   192dc:	00078513          	mv	a0,a5
   192e0:	01010113          	addi	sp,sp,16
   192e4:	00008067          	ret

000192e8 <__copybits>:
   192e8:	01062683          	lw	a3,16(a2)
   192ec:	fff58593          	addi	a1,a1,-1
   192f0:	4055d593          	srai	a1,a1,0x5
   192f4:	00158593          	addi	a1,a1,1
   192f8:	01460793          	addi	a5,a2,20
   192fc:	00269693          	slli	a3,a3,0x2
   19300:	00259593          	slli	a1,a1,0x2
   19304:	00d786b3          	add	a3,a5,a3
   19308:	00b505b3          	add	a1,a0,a1
   1930c:	02d7f863          	bgeu	a5,a3,1933c <__copybits+0x54>
   19310:	00050713          	mv	a4,a0
   19314:	0007a803          	lw	a6,0(a5)
   19318:	00478793          	addi	a5,a5,4
   1931c:	00470713          	addi	a4,a4,4
   19320:	ff072e23          	sw	a6,-4(a4)
   19324:	fed7e8e3          	bltu	a5,a3,19314 <__copybits+0x2c>
   19328:	40c687b3          	sub	a5,a3,a2
   1932c:	feb78793          	addi	a5,a5,-21
   19330:	ffc7f793          	andi	a5,a5,-4
   19334:	00478793          	addi	a5,a5,4
   19338:	00f50533          	add	a0,a0,a5
   1933c:	00b57863          	bgeu	a0,a1,1934c <__copybits+0x64>
   19340:	00450513          	addi	a0,a0,4
   19344:	fe052e23          	sw	zero,-4(a0)
   19348:	feb56ce3          	bltu	a0,a1,19340 <__copybits+0x58>
   1934c:	00008067          	ret

00019350 <__any_on>:
   19350:	01052703          	lw	a4,16(a0)
   19354:	4055d613          	srai	a2,a1,0x5
   19358:	01450693          	addi	a3,a0,20
   1935c:	02c75263          	bge	a4,a2,19380 <__any_on+0x30>
   19360:	00271713          	slli	a4,a4,0x2
   19364:	00e687b3          	add	a5,a3,a4
   19368:	04f6f263          	bgeu	a3,a5,193ac <__any_on+0x5c>
   1936c:	ffc7a703          	lw	a4,-4(a5)
   19370:	ffc78793          	addi	a5,a5,-4
   19374:	fe070ae3          	beqz	a4,19368 <__any_on+0x18>
   19378:	00100513          	li	a0,1
   1937c:	00008067          	ret
   19380:	00261793          	slli	a5,a2,0x2
   19384:	00f687b3          	add	a5,a3,a5
   19388:	fee650e3          	bge	a2,a4,19368 <__any_on+0x18>
   1938c:	01f5f593          	andi	a1,a1,31
   19390:	fc058ce3          	beqz	a1,19368 <__any_on+0x18>
   19394:	0007a603          	lw	a2,0(a5)
   19398:	00100513          	li	a0,1
   1939c:	00b65733          	srl	a4,a2,a1
   193a0:	00b71733          	sll	a4,a4,a1
   193a4:	fce602e3          	beq	a2,a4,19368 <__any_on+0x18>
   193a8:	00008067          	ret
   193ac:	00000513          	li	a0,0
   193b0:	00008067          	ret

000193b4 <cleanup_glue>:
   193b4:	fe010113          	addi	sp,sp,-32
   193b8:	01212823          	sw	s2,16(sp)
   193bc:	0005a903          	lw	s2,0(a1)
   193c0:	00812c23          	sw	s0,24(sp)
   193c4:	00912a23          	sw	s1,20(sp)
   193c8:	00112e23          	sw	ra,28(sp)
   193cc:	01312623          	sw	s3,12(sp)
   193d0:	01412423          	sw	s4,8(sp)
   193d4:	00058413          	mv	s0,a1
   193d8:	00050493          	mv	s1,a0
   193dc:	04090263          	beqz	s2,19420 <cleanup_glue+0x6c>
   193e0:	00092983          	lw	s3,0(s2)
   193e4:	02098863          	beqz	s3,19414 <cleanup_glue+0x60>
   193e8:	0009aa03          	lw	s4,0(s3)
   193ec:	000a0e63          	beqz	s4,19408 <cleanup_glue+0x54>
   193f0:	000a2583          	lw	a1,0(s4)
   193f4:	00058463          	beqz	a1,193fc <cleanup_glue+0x48>
   193f8:	fbdff0ef          	jal	ra,193b4 <cleanup_glue>
   193fc:	000a0593          	mv	a1,s4
   19400:	00048513          	mv	a0,s1
   19404:	e39fc0ef          	jal	ra,1623c <_free_r>
   19408:	00098593          	mv	a1,s3
   1940c:	00048513          	mv	a0,s1
   19410:	e2dfc0ef          	jal	ra,1623c <_free_r>
   19414:	00090593          	mv	a1,s2
   19418:	00048513          	mv	a0,s1
   1941c:	e21fc0ef          	jal	ra,1623c <_free_r>
   19420:	00040593          	mv	a1,s0
   19424:	01812403          	lw	s0,24(sp)
   19428:	01c12083          	lw	ra,28(sp)
   1942c:	01012903          	lw	s2,16(sp)
   19430:	00c12983          	lw	s3,12(sp)
   19434:	00812a03          	lw	s4,8(sp)
   19438:	00048513          	mv	a0,s1
   1943c:	01412483          	lw	s1,20(sp)
   19440:	02010113          	addi	sp,sp,32
   19444:	df9fc06f          	j	1623c <_free_r>

00019448 <_reclaim_reent>:
   19448:	2301a783          	lw	a5,560(gp) # 23af0 <_impure_ptr>
   1944c:	10a78a63          	beq	a5,a0,19560 <_reclaim_reent+0x118>
   19450:	04c52583          	lw	a1,76(a0)
   19454:	fe010113          	addi	sp,sp,-32
   19458:	00912a23          	sw	s1,20(sp)
   1945c:	00112e23          	sw	ra,28(sp)
   19460:	00812c23          	sw	s0,24(sp)
   19464:	01212823          	sw	s2,16(sp)
   19468:	01312623          	sw	s3,12(sp)
   1946c:	00050493          	mv	s1,a0
   19470:	04058063          	beqz	a1,194b0 <_reclaim_reent+0x68>
   19474:	00000913          	li	s2,0
   19478:	08000993          	li	s3,128
   1947c:	012587b3          	add	a5,a1,s2
   19480:	0007a403          	lw	s0,0(a5)
   19484:	00040e63          	beqz	s0,194a0 <_reclaim_reent+0x58>
   19488:	00040593          	mv	a1,s0
   1948c:	00042403          	lw	s0,0(s0)
   19490:	00048513          	mv	a0,s1
   19494:	da9fc0ef          	jal	ra,1623c <_free_r>
   19498:	fe0418e3          	bnez	s0,19488 <_reclaim_reent+0x40>
   1949c:	04c4a583          	lw	a1,76(s1)
   194a0:	00490913          	addi	s2,s2,4
   194a4:	fd391ce3          	bne	s2,s3,1947c <_reclaim_reent+0x34>
   194a8:	00048513          	mv	a0,s1
   194ac:	d91fc0ef          	jal	ra,1623c <_free_r>
   194b0:	0404a583          	lw	a1,64(s1)
   194b4:	00058663          	beqz	a1,194c0 <_reclaim_reent+0x78>
   194b8:	00048513          	mv	a0,s1
   194bc:	d81fc0ef          	jal	ra,1623c <_free_r>
   194c0:	1484a403          	lw	s0,328(s1)
   194c4:	02040063          	beqz	s0,194e4 <_reclaim_reent+0x9c>
   194c8:	14c48913          	addi	s2,s1,332
   194cc:	01240c63          	beq	s0,s2,194e4 <_reclaim_reent+0x9c>
   194d0:	00040593          	mv	a1,s0
   194d4:	00042403          	lw	s0,0(s0)
   194d8:	00048513          	mv	a0,s1
   194dc:	d61fc0ef          	jal	ra,1623c <_free_r>
   194e0:	fe8918e3          	bne	s2,s0,194d0 <_reclaim_reent+0x88>
   194e4:	0544a583          	lw	a1,84(s1)
   194e8:	00058663          	beqz	a1,194f4 <_reclaim_reent+0xac>
   194ec:	00048513          	mv	a0,s1
   194f0:	d4dfc0ef          	jal	ra,1623c <_free_r>
   194f4:	0384a783          	lw	a5,56(s1)
   194f8:	04078663          	beqz	a5,19544 <_reclaim_reent+0xfc>
   194fc:	03c4a783          	lw	a5,60(s1)
   19500:	00048513          	mv	a0,s1
   19504:	000780e7          	jalr	a5
   19508:	2e04a403          	lw	s0,736(s1)
   1950c:	02040c63          	beqz	s0,19544 <_reclaim_reent+0xfc>
   19510:	00042583          	lw	a1,0(s0)
   19514:	00058663          	beqz	a1,19520 <_reclaim_reent+0xd8>
   19518:	00048513          	mv	a0,s1
   1951c:	e99ff0ef          	jal	ra,193b4 <cleanup_glue>
   19520:	00040593          	mv	a1,s0
   19524:	01812403          	lw	s0,24(sp)
   19528:	01c12083          	lw	ra,28(sp)
   1952c:	01012903          	lw	s2,16(sp)
   19530:	00c12983          	lw	s3,12(sp)
   19534:	00048513          	mv	a0,s1
   19538:	01412483          	lw	s1,20(sp)
   1953c:	02010113          	addi	sp,sp,32
   19540:	cfdfc06f          	j	1623c <_free_r>
   19544:	01c12083          	lw	ra,28(sp)
   19548:	01812403          	lw	s0,24(sp)
   1954c:	01412483          	lw	s1,20(sp)
   19550:	01012903          	lw	s2,16(sp)
   19554:	00c12983          	lw	s3,12(sp)
   19558:	02010113          	addi	sp,sp,32
   1955c:	00008067          	ret
   19560:	00008067          	ret

00019564 <frexp>:
   19564:	ff010113          	addi	sp,sp,-16
   19568:	00912223          	sw	s1,4(sp)
   1956c:	800004b7          	lui	s1,0x80000
   19570:	00812423          	sw	s0,8(sp)
   19574:	00112623          	sw	ra,12(sp)
   19578:	fff4c493          	not	s1,s1
   1957c:	00060413          	mv	s0,a2
   19580:	00062023          	sw	zero,0(a2)
   19584:	00b4f6b3          	and	a3,s1,a1
   19588:	7ff00637          	lui	a2,0x7ff00
   1958c:	00058793          	mv	a5,a1
   19590:	00050713          	mv	a4,a0
   19594:	02c6fe63          	bgeu	a3,a2,195d0 <frexp+0x6c>
   19598:	00a6e8b3          	or	a7,a3,a0
   1959c:	02088a63          	beqz	a7,195d0 <frexp+0x6c>
   195a0:	00c5f833          	and	a6,a1,a2
   195a4:	04080463          	beqz	a6,195ec <frexp+0x88>
   195a8:	00000593          	li	a1,0
   195ac:	4146d693          	srai	a3,a3,0x14
   195b0:	80100637          	lui	a2,0x80100
   195b4:	fff60613          	addi	a2,a2,-1 # 800fffff <__BSS_END__+0x800dc1cf>
   195b8:	c0268693          	addi	a3,a3,-1022
   195bc:	00c7f7b3          	and	a5,a5,a2
   195c0:	00b686b3          	add	a3,a3,a1
   195c4:	3fe00637          	lui	a2,0x3fe00
   195c8:	00c7e7b3          	or	a5,a5,a2
   195cc:	00d42023          	sw	a3,0(s0)
   195d0:	00c12083          	lw	ra,12(sp)
   195d4:	00812403          	lw	s0,8(sp)
   195d8:	00412483          	lw	s1,4(sp)
   195dc:	00070513          	mv	a0,a4
   195e0:	00078593          	mv	a1,a5
   195e4:	01010113          	addi	sp,sp,16
   195e8:	00008067          	ret
   195ec:	0000a797          	auipc	a5,0xa
   195f0:	4f478793          	addi	a5,a5,1268 # 23ae0 <__SDATA_BEGIN__+0x60>
   195f4:	0047a683          	lw	a3,4(a5)
   195f8:	0007a603          	lw	a2,0(a5)
   195fc:	1ad060ef          	jal	ra,1ffa8 <__muldf3>
   19600:	00058793          	mv	a5,a1
   19604:	00b4f6b3          	and	a3,s1,a1
   19608:	00050713          	mv	a4,a0
   1960c:	fca00593          	li	a1,-54
   19610:	f9dff06f          	j	195ac <frexp+0x48>

00019614 <__sread>:
   19614:	ff010113          	addi	sp,sp,-16
   19618:	00812423          	sw	s0,8(sp)
   1961c:	00058413          	mv	s0,a1
   19620:	00e59583          	lh	a1,14(a1)
   19624:	00112623          	sw	ra,12(sp)
   19628:	09d030ef          	jal	ra,1cec4 <_read_r>
   1962c:	02054063          	bltz	a0,1964c <__sread+0x38>
   19630:	05042783          	lw	a5,80(s0)
   19634:	00c12083          	lw	ra,12(sp)
   19638:	00a787b3          	add	a5,a5,a0
   1963c:	04f42823          	sw	a5,80(s0)
   19640:	00812403          	lw	s0,8(sp)
   19644:	01010113          	addi	sp,sp,16
   19648:	00008067          	ret
   1964c:	00c45783          	lhu	a5,12(s0)
   19650:	fffff737          	lui	a4,0xfffff
   19654:	fff70713          	addi	a4,a4,-1 # ffffefff <__BSS_END__+0xfffdb1cf>
   19658:	00e7f7b3          	and	a5,a5,a4
   1965c:	00c12083          	lw	ra,12(sp)
   19660:	00f41623          	sh	a5,12(s0)
   19664:	00812403          	lw	s0,8(sp)
   19668:	01010113          	addi	sp,sp,16
   1966c:	00008067          	ret

00019670 <__seofread>:
   19670:	00000513          	li	a0,0
   19674:	00008067          	ret

00019678 <__swrite>:
   19678:	00c59783          	lh	a5,12(a1)
   1967c:	fe010113          	addi	sp,sp,-32
   19680:	00812c23          	sw	s0,24(sp)
   19684:	00912a23          	sw	s1,20(sp)
   19688:	01212823          	sw	s2,16(sp)
   1968c:	01312623          	sw	s3,12(sp)
   19690:	00112e23          	sw	ra,28(sp)
   19694:	1007f713          	andi	a4,a5,256
   19698:	00058413          	mv	s0,a1
   1969c:	00050493          	mv	s1,a0
   196a0:	00060913          	mv	s2,a2
   196a4:	00068993          	mv	s3,a3
   196a8:	04071063          	bnez	a4,196e8 <__swrite+0x70>
   196ac:	fffff737          	lui	a4,0xfffff
   196b0:	fff70713          	addi	a4,a4,-1 # ffffefff <__BSS_END__+0xfffdb1cf>
   196b4:	00e7f7b3          	and	a5,a5,a4
   196b8:	00e41583          	lh	a1,14(s0)
   196bc:	00f41623          	sh	a5,12(s0)
   196c0:	01812403          	lw	s0,24(sp)
   196c4:	01c12083          	lw	ra,28(sp)
   196c8:	00098693          	mv	a3,s3
   196cc:	00090613          	mv	a2,s2
   196d0:	00c12983          	lw	s3,12(sp)
   196d4:	01012903          	lw	s2,16(sp)
   196d8:	00048513          	mv	a0,s1
   196dc:	01412483          	lw	s1,20(sp)
   196e0:	02010113          	addi	sp,sp,32
   196e4:	02d0206f          	j	1bf10 <_write_r>
   196e8:	00e59583          	lh	a1,14(a1)
   196ec:	00200693          	li	a3,2
   196f0:	00000613          	li	a2,0
   196f4:	658030ef          	jal	ra,1cd4c <_lseek_r>
   196f8:	00c41783          	lh	a5,12(s0)
   196fc:	fb1ff06f          	j	196ac <__swrite+0x34>

00019700 <__sseek>:
   19700:	ff010113          	addi	sp,sp,-16
   19704:	00812423          	sw	s0,8(sp)
   19708:	00058413          	mv	s0,a1
   1970c:	00e59583          	lh	a1,14(a1)
   19710:	00112623          	sw	ra,12(sp)
   19714:	638030ef          	jal	ra,1cd4c <_lseek_r>
   19718:	fff00793          	li	a5,-1
   1971c:	02f50863          	beq	a0,a5,1974c <__sseek+0x4c>
   19720:	00c45783          	lhu	a5,12(s0)
   19724:	00001737          	lui	a4,0x1
   19728:	00c12083          	lw	ra,12(sp)
   1972c:	00e7e7b3          	or	a5,a5,a4
   19730:	01079793          	slli	a5,a5,0x10
   19734:	4107d793          	srai	a5,a5,0x10
   19738:	04a42823          	sw	a0,80(s0)
   1973c:	00f41623          	sh	a5,12(s0)
   19740:	00812403          	lw	s0,8(sp)
   19744:	01010113          	addi	sp,sp,16
   19748:	00008067          	ret
   1974c:	00c45783          	lhu	a5,12(s0)
   19750:	fffff737          	lui	a4,0xfffff
   19754:	fff70713          	addi	a4,a4,-1 # ffffefff <__BSS_END__+0xfffdb1cf>
   19758:	00e7f7b3          	and	a5,a5,a4
   1975c:	01079793          	slli	a5,a5,0x10
   19760:	4107d793          	srai	a5,a5,0x10
   19764:	00c12083          	lw	ra,12(sp)
   19768:	00f41623          	sh	a5,12(s0)
   1976c:	00812403          	lw	s0,8(sp)
   19770:	01010113          	addi	sp,sp,16
   19774:	00008067          	ret

00019778 <__sclose>:
   19778:	00e59583          	lh	a1,14(a1)
   1977c:	2150206f          	j	1c190 <_close_r>

00019780 <strcasecmp>:
   19780:	00050693          	mv	a3,a0
   19784:	00009817          	auipc	a6,0x9
   19788:	be980813          	addi	a6,a6,-1047 # 2236d <_ctype_+0x1>
   1978c:	00100613          	li	a2,1
   19790:	0006c783          	lbu	a5,0(a3)
   19794:	00158593          	addi	a1,a1,1
   19798:	00168693          	addi	a3,a3,1
   1979c:	00f80733          	add	a4,a6,a5
   197a0:	00074703          	lbu	a4,0(a4)
   197a4:	00377713          	andi	a4,a4,3
   197a8:	00c71463          	bne	a4,a2,197b0 <strcasecmp+0x30>
   197ac:	02078793          	addi	a5,a5,32
   197b0:	fff5c503          	lbu	a0,-1(a1)
   197b4:	00a80733          	add	a4,a6,a0
   197b8:	00074703          	lbu	a4,0(a4)
   197bc:	40a788b3          	sub	a7,a5,a0
   197c0:	00377713          	andi	a4,a4,3
   197c4:	00c70863          	beq	a4,a2,197d4 <strcasecmp+0x54>
   197c8:	00a79e63          	bne	a5,a0,197e4 <strcasecmp+0x64>
   197cc:	fc0512e3          	bnez	a0,19790 <strcasecmp+0x10>
   197d0:	00008067          	ret
   197d4:	02050713          	addi	a4,a0,32
   197d8:	40e78533          	sub	a0,a5,a4
   197dc:	fae78ae3          	beq	a5,a4,19790 <strcasecmp+0x10>
   197e0:	00008067          	ret
   197e4:	00088513          	mv	a0,a7
   197e8:	00008067          	ret

000197ec <strcat>:
   197ec:	ff010113          	addi	sp,sp,-16
   197f0:	00812423          	sw	s0,8(sp)
   197f4:	00112623          	sw	ra,12(sp)
   197f8:	00357793          	andi	a5,a0,3
   197fc:	00050413          	mv	s0,a0
   19800:	04079463          	bnez	a5,19848 <strcat+0x5c>
   19804:	00052703          	lw	a4,0(a0)
   19808:	feff0637          	lui	a2,0xfeff0
   1980c:	eff60613          	addi	a2,a2,-257 # fefefeff <__BSS_END__+0xfefcc0cf>
   19810:	00c707b3          	add	a5,a4,a2
   19814:	808086b7          	lui	a3,0x80808
   19818:	fff74713          	not	a4,a4
   1981c:	00e7f7b3          	and	a5,a5,a4
   19820:	08068693          	addi	a3,a3,128 # 80808080 <__BSS_END__+0x807e4250>
   19824:	00d7f7b3          	and	a5,a5,a3
   19828:	02079063          	bnez	a5,19848 <strcat+0x5c>
   1982c:	00452703          	lw	a4,4(a0)
   19830:	00450513          	addi	a0,a0,4
   19834:	00c707b3          	add	a5,a4,a2
   19838:	fff74713          	not	a4,a4
   1983c:	00e7f7b3          	and	a5,a5,a4
   19840:	00d7f7b3          	and	a5,a5,a3
   19844:	fe0784e3          	beqz	a5,1982c <strcat+0x40>
   19848:	00054783          	lbu	a5,0(a0)
   1984c:	00078863          	beqz	a5,1985c <strcat+0x70>
   19850:	00154783          	lbu	a5,1(a0)
   19854:	00150513          	addi	a0,a0,1
   19858:	fe079ce3          	bnez	a5,19850 <strcat+0x64>
   1985c:	2d4000ef          	jal	ra,19b30 <strcpy>
   19860:	00c12083          	lw	ra,12(sp)
   19864:	00040513          	mv	a0,s0
   19868:	00812403          	lw	s0,8(sp)
   1986c:	01010113          	addi	sp,sp,16
   19870:	00008067          	ret

00019874 <strchr>:
   19874:	0ff5f693          	zext.b	a3,a1
   19878:	00357793          	andi	a5,a0,3
   1987c:	0c068063          	beqz	a3,1993c <strchr+0xc8>
   19880:	00078e63          	beqz	a5,1989c <strchr+0x28>
   19884:	00054783          	lbu	a5,0(a0)
   19888:	0a078663          	beqz	a5,19934 <strchr+0xc0>
   1988c:	0ad78663          	beq	a5,a3,19938 <strchr+0xc4>
   19890:	00150513          	addi	a0,a0,1
   19894:	00357793          	andi	a5,a0,3
   19898:	fe0796e3          	bnez	a5,19884 <strchr+0x10>
   1989c:	0ff5f593          	zext.b	a1,a1
   198a0:	00859793          	slli	a5,a1,0x8
   198a4:	00b787b3          	add	a5,a5,a1
   198a8:	00052703          	lw	a4,0(a0)
   198ac:	01079313          	slli	t1,a5,0x10
   198b0:	00f36333          	or	t1,t1,a5
   198b4:	feff0837          	lui	a6,0xfeff0
   198b8:	00e34633          	xor	a2,t1,a4
   198bc:	eff80813          	addi	a6,a6,-257 # fefefeff <__BSS_END__+0xfefcc0cf>
   198c0:	010707b3          	add	a5,a4,a6
   198c4:	010605b3          	add	a1,a2,a6
   198c8:	fff74713          	not	a4,a4
   198cc:	fff64613          	not	a2,a2
   198d0:	00e7f7b3          	and	a5,a5,a4
   198d4:	808088b7          	lui	a7,0x80808
   198d8:	00c5f733          	and	a4,a1,a2
   198dc:	00e7e7b3          	or	a5,a5,a4
   198e0:	08088893          	addi	a7,a7,128 # 80808080 <__BSS_END__+0x807e4250>
   198e4:	0117f7b3          	and	a5,a5,a7
   198e8:	02079a63          	bnez	a5,1991c <strchr+0xa8>
   198ec:	00452703          	lw	a4,4(a0)
   198f0:	00450513          	addi	a0,a0,4
   198f4:	00674633          	xor	a2,a4,t1
   198f8:	010707b3          	add	a5,a4,a6
   198fc:	010605b3          	add	a1,a2,a6
   19900:	fff74713          	not	a4,a4
   19904:	fff64613          	not	a2,a2
   19908:	00e7f7b3          	and	a5,a5,a4
   1990c:	00c5f733          	and	a4,a1,a2
   19910:	00e7e7b3          	or	a5,a5,a4
   19914:	0117f7b3          	and	a5,a5,a7
   19918:	fc078ae3          	beqz	a5,198ec <strchr+0x78>
   1991c:	00054783          	lbu	a5,0(a0)
   19920:	00078a63          	beqz	a5,19934 <strchr+0xc0>
   19924:	08f68663          	beq	a3,a5,199b0 <strchr+0x13c>
   19928:	00154783          	lbu	a5,1(a0)
   1992c:	00150513          	addi	a0,a0,1
   19930:	fe079ae3          	bnez	a5,19924 <strchr+0xb0>
   19934:	00000513          	li	a0,0
   19938:	00008067          	ret
   1993c:	00078c63          	beqz	a5,19954 <strchr+0xe0>
   19940:	00054783          	lbu	a5,0(a0)
   19944:	fe078ae3          	beqz	a5,19938 <strchr+0xc4>
   19948:	00150513          	addi	a0,a0,1
   1994c:	00357793          	andi	a5,a0,3
   19950:	fe0798e3          	bnez	a5,19940 <strchr+0xcc>
   19954:	00052703          	lw	a4,0(a0)
   19958:	feff0637          	lui	a2,0xfeff0
   1995c:	eff60613          	addi	a2,a2,-257 # fefefeff <__BSS_END__+0xfefcc0cf>
   19960:	fff74793          	not	a5,a4
   19964:	808086b7          	lui	a3,0x80808
   19968:	00c70733          	add	a4,a4,a2
   1996c:	00e7f7b3          	and	a5,a5,a4
   19970:	08068693          	addi	a3,a3,128 # 80808080 <__BSS_END__+0x807e4250>
   19974:	00d7f7b3          	and	a5,a5,a3
   19978:	02079063          	bnez	a5,19998 <strchr+0x124>
   1997c:	00452703          	lw	a4,4(a0)
   19980:	00450513          	addi	a0,a0,4
   19984:	00c707b3          	add	a5,a4,a2
   19988:	fff74713          	not	a4,a4
   1998c:	00e7f7b3          	and	a5,a5,a4
   19990:	00d7f7b3          	and	a5,a5,a3
   19994:	fe0784e3          	beqz	a5,1997c <strchr+0x108>
   19998:	00054783          	lbu	a5,0(a0)
   1999c:	f8078ee3          	beqz	a5,19938 <strchr+0xc4>
   199a0:	00154783          	lbu	a5,1(a0)
   199a4:	00150513          	addi	a0,a0,1
   199a8:	fe079ce3          	bnez	a5,199a0 <strchr+0x12c>
   199ac:	00008067          	ret
   199b0:	00008067          	ret

000199b4 <strcmp>:
   199b4:	00b56733          	or	a4,a0,a1
   199b8:	fff00393          	li	t2,-1
   199bc:	00377713          	andi	a4,a4,3
   199c0:	10071063          	bnez	a4,19ac0 <strcmp+0x10c>
   199c4:	7f7f87b7          	lui	a5,0x7f7f8
   199c8:	f7f78793          	addi	a5,a5,-129 # 7f7f7f7f <__BSS_END__+0x7f7d414f>
   199cc:	00052603          	lw	a2,0(a0)
   199d0:	0005a683          	lw	a3,0(a1)
   199d4:	00f672b3          	and	t0,a2,a5
   199d8:	00f66333          	or	t1,a2,a5
   199dc:	00f282b3          	add	t0,t0,a5
   199e0:	0062e2b3          	or	t0,t0,t1
   199e4:	10729263          	bne	t0,t2,19ae8 <strcmp+0x134>
   199e8:	08d61663          	bne	a2,a3,19a74 <strcmp+0xc0>
   199ec:	00452603          	lw	a2,4(a0)
   199f0:	0045a683          	lw	a3,4(a1)
   199f4:	00f672b3          	and	t0,a2,a5
   199f8:	00f66333          	or	t1,a2,a5
   199fc:	00f282b3          	add	t0,t0,a5
   19a00:	0062e2b3          	or	t0,t0,t1
   19a04:	0c729e63          	bne	t0,t2,19ae0 <strcmp+0x12c>
   19a08:	06d61663          	bne	a2,a3,19a74 <strcmp+0xc0>
   19a0c:	00852603          	lw	a2,8(a0)
   19a10:	0085a683          	lw	a3,8(a1)
   19a14:	00f672b3          	and	t0,a2,a5
   19a18:	00f66333          	or	t1,a2,a5
   19a1c:	00f282b3          	add	t0,t0,a5
   19a20:	0062e2b3          	or	t0,t0,t1
   19a24:	0c729863          	bne	t0,t2,19af4 <strcmp+0x140>
   19a28:	04d61663          	bne	a2,a3,19a74 <strcmp+0xc0>
   19a2c:	00c52603          	lw	a2,12(a0)
   19a30:	00c5a683          	lw	a3,12(a1)
   19a34:	00f672b3          	and	t0,a2,a5
   19a38:	00f66333          	or	t1,a2,a5
   19a3c:	00f282b3          	add	t0,t0,a5
   19a40:	0062e2b3          	or	t0,t0,t1
   19a44:	0c729263          	bne	t0,t2,19b08 <strcmp+0x154>
   19a48:	02d61663          	bne	a2,a3,19a74 <strcmp+0xc0>
   19a4c:	01052603          	lw	a2,16(a0)
   19a50:	0105a683          	lw	a3,16(a1)
   19a54:	00f672b3          	and	t0,a2,a5
   19a58:	00f66333          	or	t1,a2,a5
   19a5c:	00f282b3          	add	t0,t0,a5
   19a60:	0062e2b3          	or	t0,t0,t1
   19a64:	0a729c63          	bne	t0,t2,19b1c <strcmp+0x168>
   19a68:	01450513          	addi	a0,a0,20
   19a6c:	01458593          	addi	a1,a1,20
   19a70:	f4d60ee3          	beq	a2,a3,199cc <strcmp+0x18>
   19a74:	01061713          	slli	a4,a2,0x10
   19a78:	01069793          	slli	a5,a3,0x10
   19a7c:	00f71e63          	bne	a4,a5,19a98 <strcmp+0xe4>
   19a80:	01065713          	srli	a4,a2,0x10
   19a84:	0106d793          	srli	a5,a3,0x10
   19a88:	40f70533          	sub	a0,a4,a5
   19a8c:	0ff57593          	zext.b	a1,a0
   19a90:	02059063          	bnez	a1,19ab0 <strcmp+0xfc>
   19a94:	00008067          	ret
   19a98:	01075713          	srli	a4,a4,0x10
   19a9c:	0107d793          	srli	a5,a5,0x10
   19aa0:	40f70533          	sub	a0,a4,a5
   19aa4:	0ff57593          	zext.b	a1,a0
   19aa8:	00059463          	bnez	a1,19ab0 <strcmp+0xfc>
   19aac:	00008067          	ret
   19ab0:	0ff77713          	zext.b	a4,a4
   19ab4:	0ff7f793          	zext.b	a5,a5
   19ab8:	40f70533          	sub	a0,a4,a5
   19abc:	00008067          	ret
   19ac0:	00054603          	lbu	a2,0(a0)
   19ac4:	0005c683          	lbu	a3,0(a1)
   19ac8:	00150513          	addi	a0,a0,1
   19acc:	00158593          	addi	a1,a1,1
   19ad0:	00d61463          	bne	a2,a3,19ad8 <strcmp+0x124>
   19ad4:	fe0616e3          	bnez	a2,19ac0 <strcmp+0x10c>
   19ad8:	40d60533          	sub	a0,a2,a3
   19adc:	00008067          	ret
   19ae0:	00450513          	addi	a0,a0,4
   19ae4:	00458593          	addi	a1,a1,4
   19ae8:	fcd61ce3          	bne	a2,a3,19ac0 <strcmp+0x10c>
   19aec:	00000513          	li	a0,0
   19af0:	00008067          	ret
   19af4:	00850513          	addi	a0,a0,8
   19af8:	00858593          	addi	a1,a1,8
   19afc:	fcd612e3          	bne	a2,a3,19ac0 <strcmp+0x10c>
   19b00:	00000513          	li	a0,0
   19b04:	00008067          	ret
   19b08:	00c50513          	addi	a0,a0,12
   19b0c:	00c58593          	addi	a1,a1,12
   19b10:	fad618e3          	bne	a2,a3,19ac0 <strcmp+0x10c>
   19b14:	00000513          	li	a0,0
   19b18:	00008067          	ret
   19b1c:	01050513          	addi	a0,a0,16
   19b20:	01058593          	addi	a1,a1,16
   19b24:	f8d61ee3          	bne	a2,a3,19ac0 <strcmp+0x10c>
   19b28:	00000513          	li	a0,0
   19b2c:	00008067          	ret

00019b30 <strcpy>:
   19b30:	00b567b3          	or	a5,a0,a1
   19b34:	0037f793          	andi	a5,a5,3
   19b38:	08079263          	bnez	a5,19bbc <strcpy+0x8c>
   19b3c:	0005a703          	lw	a4,0(a1)
   19b40:	7f7f86b7          	lui	a3,0x7f7f8
   19b44:	f7f68693          	addi	a3,a3,-129 # 7f7f7f7f <__BSS_END__+0x7f7d414f>
   19b48:	00d777b3          	and	a5,a4,a3
   19b4c:	00d787b3          	add	a5,a5,a3
   19b50:	00e7e7b3          	or	a5,a5,a4
   19b54:	00d7e7b3          	or	a5,a5,a3
   19b58:	fff00613          	li	a2,-1
   19b5c:	06c79e63          	bne	a5,a2,19bd8 <strcpy+0xa8>
   19b60:	00050613          	mv	a2,a0
   19b64:	fff00813          	li	a6,-1
   19b68:	00e62023          	sw	a4,0(a2)
   19b6c:	0045a703          	lw	a4,4(a1)
   19b70:	00458593          	addi	a1,a1,4
   19b74:	00460613          	addi	a2,a2,4
   19b78:	00d777b3          	and	a5,a4,a3
   19b7c:	00d787b3          	add	a5,a5,a3
   19b80:	00e7e7b3          	or	a5,a5,a4
   19b84:	00d7e7b3          	or	a5,a5,a3
   19b88:	ff0780e3          	beq	a5,a6,19b68 <strcpy+0x38>
   19b8c:	0005c783          	lbu	a5,0(a1)
   19b90:	0015c703          	lbu	a4,1(a1)
   19b94:	0025c683          	lbu	a3,2(a1)
   19b98:	00f60023          	sb	a5,0(a2)
   19b9c:	00078a63          	beqz	a5,19bb0 <strcpy+0x80>
   19ba0:	00e600a3          	sb	a4,1(a2)
   19ba4:	00070663          	beqz	a4,19bb0 <strcpy+0x80>
   19ba8:	00d60123          	sb	a3,2(a2)
   19bac:	00069463          	bnez	a3,19bb4 <strcpy+0x84>
   19bb0:	00008067          	ret
   19bb4:	000601a3          	sb	zero,3(a2)
   19bb8:	00008067          	ret
   19bbc:	00050793          	mv	a5,a0
   19bc0:	0005c703          	lbu	a4,0(a1)
   19bc4:	00178793          	addi	a5,a5,1
   19bc8:	00158593          	addi	a1,a1,1
   19bcc:	fee78fa3          	sb	a4,-1(a5)
   19bd0:	fe0718e3          	bnez	a4,19bc0 <strcpy+0x90>
   19bd4:	00008067          	ret
   19bd8:	00050613          	mv	a2,a0
   19bdc:	fb1ff06f          	j	19b8c <strcpy+0x5c>

00019be0 <strlcpy>:
   19be0:	02060a63          	beqz	a2,19c14 <strlcpy+0x34>
   19be4:	fff60613          	addi	a2,a2,-1
   19be8:	00058793          	mv	a5,a1
   19bec:	04060263          	beqz	a2,19c30 <strlcpy+0x50>
   19bf0:	0007c703          	lbu	a4,0(a5)
   19bf4:	fff60613          	addi	a2,a2,-1
   19bf8:	00178793          	addi	a5,a5,1
   19bfc:	00e50023          	sb	a4,0(a0)
   19c00:	00150513          	addi	a0,a0,1
   19c04:	fe0714e3          	bnez	a4,19bec <strlcpy+0xc>
   19c08:	40b78533          	sub	a0,a5,a1
   19c0c:	fff50513          	addi	a0,a0,-1
   19c10:	00008067          	ret
   19c14:	00058793          	mv	a5,a1
   19c18:	0007c703          	lbu	a4,0(a5)
   19c1c:	00178793          	addi	a5,a5,1
   19c20:	fe071ce3          	bnez	a4,19c18 <strlcpy+0x38>
   19c24:	40b78533          	sub	a0,a5,a1
   19c28:	fff50513          	addi	a0,a0,-1
   19c2c:	00008067          	ret
   19c30:	00050023          	sb	zero,0(a0)
   19c34:	fe5ff06f          	j	19c18 <strlcpy+0x38>

00019c38 <strlen>:
   19c38:	00357793          	andi	a5,a0,3
   19c3c:	00050713          	mv	a4,a0
   19c40:	04079c63          	bnez	a5,19c98 <strlen+0x60>
   19c44:	7f7f86b7          	lui	a3,0x7f7f8
   19c48:	f7f68693          	addi	a3,a3,-129 # 7f7f7f7f <__BSS_END__+0x7f7d414f>
   19c4c:	fff00593          	li	a1,-1
   19c50:	00072603          	lw	a2,0(a4)
   19c54:	00470713          	addi	a4,a4,4
   19c58:	00d677b3          	and	a5,a2,a3
   19c5c:	00d787b3          	add	a5,a5,a3
   19c60:	00c7e7b3          	or	a5,a5,a2
   19c64:	00d7e7b3          	or	a5,a5,a3
   19c68:	feb784e3          	beq	a5,a1,19c50 <strlen+0x18>
   19c6c:	ffc74683          	lbu	a3,-4(a4)
   19c70:	40a707b3          	sub	a5,a4,a0
   19c74:	04068463          	beqz	a3,19cbc <strlen+0x84>
   19c78:	ffd74683          	lbu	a3,-3(a4)
   19c7c:	02068c63          	beqz	a3,19cb4 <strlen+0x7c>
   19c80:	ffe74503          	lbu	a0,-2(a4)
   19c84:	00a03533          	snez	a0,a0
   19c88:	00f50533          	add	a0,a0,a5
   19c8c:	ffe50513          	addi	a0,a0,-2
   19c90:	00008067          	ret
   19c94:	fa0688e3          	beqz	a3,19c44 <strlen+0xc>
   19c98:	00074783          	lbu	a5,0(a4)
   19c9c:	00170713          	addi	a4,a4,1
   19ca0:	00377693          	andi	a3,a4,3
   19ca4:	fe0798e3          	bnez	a5,19c94 <strlen+0x5c>
   19ca8:	40a70733          	sub	a4,a4,a0
   19cac:	fff70513          	addi	a0,a4,-1
   19cb0:	00008067          	ret
   19cb4:	ffd78513          	addi	a0,a5,-3
   19cb8:	00008067          	ret
   19cbc:	ffc78513          	addi	a0,a5,-4
   19cc0:	00008067          	ret

00019cc4 <strncasecmp>:
   19cc4:	00050693          	mv	a3,a0
   19cc8:	04060c63          	beqz	a2,19d20 <strncasecmp+0x5c>
   19ccc:	00c58633          	add	a2,a1,a2
   19cd0:	00008897          	auipc	a7,0x8
   19cd4:	69d88893          	addi	a7,a7,1693 # 2236d <_ctype_+0x1>
   19cd8:	00100813          	li	a6,1
   19cdc:	0006c783          	lbu	a5,0(a3)
   19ce0:	00158593          	addi	a1,a1,1
   19ce4:	00168693          	addi	a3,a3,1
   19ce8:	00f88733          	add	a4,a7,a5
   19cec:	00074703          	lbu	a4,0(a4)
   19cf0:	00377713          	andi	a4,a4,3
   19cf4:	01071463          	bne	a4,a6,19cfc <strncasecmp+0x38>
   19cf8:	02078793          	addi	a5,a5,32
   19cfc:	fff5c503          	lbu	a0,-1(a1)
   19d00:	00a88733          	add	a4,a7,a0
   19d04:	00074703          	lbu	a4,0(a4)
   19d08:	40a78333          	sub	t1,a5,a0
   19d0c:	00377713          	andi	a4,a4,3
   19d10:	03070063          	beq	a4,a6,19d30 <strncasecmp+0x6c>
   19d14:	00a79a63          	bne	a5,a0,19d28 <strncasecmp+0x64>
   19d18:	00050a63          	beqz	a0,19d2c <strncasecmp+0x68>
   19d1c:	fcc590e3          	bne	a1,a2,19cdc <strncasecmp+0x18>
   19d20:	00000513          	li	a0,0
   19d24:	00008067          	ret
   19d28:	00030513          	mv	a0,t1
   19d2c:	00008067          	ret
   19d30:	02050713          	addi	a4,a0,32
   19d34:	40e78533          	sub	a0,a5,a4
   19d38:	fee782e3          	beq	a5,a4,19d1c <strncasecmp+0x58>
   19d3c:	00008067          	ret

00019d40 <strncpy>:
   19d40:	00b567b3          	or	a5,a0,a1
   19d44:	0037f793          	andi	a5,a5,3
   19d48:	00050713          	mv	a4,a0
   19d4c:	06079a63          	bnez	a5,19dc0 <strncpy+0x80>
   19d50:	00300793          	li	a5,3
   19d54:	06c7f663          	bgeu	a5,a2,19dc0 <strncpy+0x80>
   19d58:	feff0337          	lui	t1,0xfeff0
   19d5c:	808088b7          	lui	a7,0x80808
   19d60:	eff30313          	addi	t1,t1,-257 # fefefeff <__BSS_END__+0xfefcc0cf>
   19d64:	08088893          	addi	a7,a7,128 # 80808080 <__BSS_END__+0x807e4250>
   19d68:	00300e13          	li	t3,3
   19d6c:	0180006f          	j	19d84 <strncpy+0x44>
   19d70:	00d72023          	sw	a3,0(a4)
   19d74:	ffc60613          	addi	a2,a2,-4
   19d78:	00470713          	addi	a4,a4,4
   19d7c:	00458593          	addi	a1,a1,4
   19d80:	04ce7063          	bgeu	t3,a2,19dc0 <strncpy+0x80>
   19d84:	0005a683          	lw	a3,0(a1)
   19d88:	006687b3          	add	a5,a3,t1
   19d8c:	fff6c813          	not	a6,a3
   19d90:	0107f7b3          	and	a5,a5,a6
   19d94:	0117f7b3          	and	a5,a5,a7
   19d98:	fc078ce3          	beqz	a5,19d70 <strncpy+0x30>
   19d9c:	00158593          	addi	a1,a1,1
   19da0:	00170793          	addi	a5,a4,1
   19da4:	02060463          	beqz	a2,19dcc <strncpy+0x8c>
   19da8:	fff5c683          	lbu	a3,-1(a1)
   19dac:	fff60813          	addi	a6,a2,-1
   19db0:	fed78fa3          	sb	a3,-1(a5)
   19db4:	00068e63          	beqz	a3,19dd0 <strncpy+0x90>
   19db8:	00078713          	mv	a4,a5
   19dbc:	00080613          	mv	a2,a6
   19dc0:	00158593          	addi	a1,a1,1
   19dc4:	00170793          	addi	a5,a4,1
   19dc8:	fe0610e3          	bnez	a2,19da8 <strncpy+0x68>
   19dcc:	00008067          	ret
   19dd0:	00c70733          	add	a4,a4,a2
   19dd4:	00080a63          	beqz	a6,19de8 <strncpy+0xa8>
   19dd8:	00178793          	addi	a5,a5,1
   19ddc:	fe078fa3          	sb	zero,-1(a5)
   19de0:	fee79ce3          	bne	a5,a4,19dd8 <strncpy+0x98>
   19de4:	00008067          	ret
   19de8:	00008067          	ret

00019dec <_strtol_l.constprop.0>:
   19dec:	fb010113          	addi	sp,sp,-80
   19df0:	04112623          	sw	ra,76(sp)
   19df4:	04812423          	sw	s0,72(sp)
   19df8:	04912223          	sw	s1,68(sp)
   19dfc:	05212023          	sw	s2,64(sp)
   19e00:	03312e23          	sw	s3,60(sp)
   19e04:	03412c23          	sw	s4,56(sp)
   19e08:	03512a23          	sw	s5,52(sp)
   19e0c:	03612823          	sw	s6,48(sp)
   19e10:	03712623          	sw	s7,44(sp)
   19e14:	03812423          	sw	s8,40(sp)
   19e18:	03912223          	sw	s9,36(sp)
   19e1c:	03a12023          	sw	s10,32(sp)
   19e20:	01b12e23          	sw	s11,28(sp)
   19e24:	02400793          	li	a5,36
   19e28:	00a12423          	sw	a0,8(sp)
   19e2c:	10d7ee63          	bltu	a5,a3,19f48 <_strtol_l.constprop.0+0x15c>
   19e30:	00100793          	li	a5,1
   19e34:	00068c93          	mv	s9,a3
   19e38:	00058913          	mv	s2,a1
   19e3c:	00060a13          	mv	s4,a2
   19e40:	00068993          	mv	s3,a3
   19e44:	00058413          	mv	s0,a1
   19e48:	00008717          	auipc	a4,0x8
   19e4c:	52570713          	addi	a4,a4,1317 # 2236d <_ctype_+0x1>
   19e50:	0ef68c63          	beq	a3,a5,19f48 <_strtol_l.constprop.0+0x15c>
   19e54:	00044483          	lbu	s1,0(s0)
   19e58:	00040693          	mv	a3,s0
   19e5c:	00140413          	addi	s0,s0,1
   19e60:	009707b3          	add	a5,a4,s1
   19e64:	0007c783          	lbu	a5,0(a5)
   19e68:	0087f793          	andi	a5,a5,8
   19e6c:	fe0794e3          	bnez	a5,19e54 <_strtol_l.constprop.0+0x68>
   19e70:	02d00793          	li	a5,45
   19e74:	1af48663          	beq	s1,a5,1a020 <_strtol_l.constprop.0+0x234>
   19e78:	02b00793          	li	a5,43
   19e7c:	10f48c63          	beq	s1,a5,19f94 <_strtol_l.constprop.0+0x1a8>
   19e80:	80000b37          	lui	s6,0x80000
   19e84:	fffb4b13          	not	s6,s6
   19e88:	00012623          	sw	zero,12(sp)
   19e8c:	120c9063          	bnez	s9,19fac <_strtol_l.constprop.0+0x1c0>
   19e90:	03000793          	li	a5,48
   19e94:	1af48263          	beq	s1,a5,1a038 <_strtol_l.constprop.0+0x24c>
   19e98:	00a00993          	li	s3,10
   19e9c:	00a00c93          	li	s9,10
   19ea0:	00098593          	mv	a1,s3
   19ea4:	000b0513          	mv	a0,s6
   19ea8:	05d070ef          	jal	ra,21704 <__umodsi3>
   19eac:	00050b93          	mv	s7,a0
   19eb0:	00098593          	mv	a1,s3
   19eb4:	000b0513          	mv	a0,s6
   19eb8:	005070ef          	jal	ra,216bc <__hidden___udivsi3>
   19ebc:	00900d93          	li	s11,9
   19ec0:	fd048793          	addi	a5,s1,-48 # 7fffffd0 <__BSS_END__+0x7ffdc1a0>
   19ec4:	00050d13          	mv	s10,a0
   19ec8:	00000713          	li	a4,0
   19ecc:	00000513          	li	a0,0
   19ed0:	01900a93          	li	s5,25
   19ed4:	fff00c13          	li	s8,-1
   19ed8:	02fdee63          	bltu	s11,a5,19f14 <_strtol_l.constprop.0+0x128>
   19edc:	00078493          	mv	s1,a5
   19ee0:	0594d263          	bge	s1,s9,19f24 <_strtol_l.constprop.0+0x138>
   19ee4:	03870063          	beq	a4,s8,19f04 <_strtol_l.constprop.0+0x118>
   19ee8:	fff00713          	li	a4,-1
   19eec:	00ad6c63          	bltu	s10,a0,19f04 <_strtol_l.constprop.0+0x118>
   19ef0:	10ad0263          	beq	s10,a0,19ff4 <_strtol_l.constprop.0+0x208>
   19ef4:	00098593          	mv	a1,s3
   19ef8:	798070ef          	jal	ra,21690 <__mulsi3>
   19efc:	00a48533          	add	a0,s1,a0
   19f00:	00100713          	li	a4,1
   19f04:	00044483          	lbu	s1,0(s0)
   19f08:	00140413          	addi	s0,s0,1
   19f0c:	fd048793          	addi	a5,s1,-48
   19f10:	fcfdf6e3          	bgeu	s11,a5,19edc <_strtol_l.constprop.0+0xf0>
   19f14:	fbf48793          	addi	a5,s1,-65
   19f18:	0cfae663          	bltu	s5,a5,19fe4 <_strtol_l.constprop.0+0x1f8>
   19f1c:	fc948493          	addi	s1,s1,-55
   19f20:	fd94c2e3          	blt	s1,s9,19ee4 <_strtol_l.constprop.0+0xf8>
   19f24:	fff00793          	li	a5,-1
   19f28:	0cf70a63          	beq	a4,a5,19ffc <_strtol_l.constprop.0+0x210>
   19f2c:	00c12783          	lw	a5,12(sp)
   19f30:	00078463          	beqz	a5,19f38 <_strtol_l.constprop.0+0x14c>
   19f34:	40a00533          	neg	a0,a0
   19f38:	020a0063          	beqz	s4,19f58 <_strtol_l.constprop.0+0x16c>
   19f3c:	10071c63          	bnez	a4,1a054 <_strtol_l.constprop.0+0x268>
   19f40:	012a2023          	sw	s2,0(s4)
   19f44:	0140006f          	j	19f58 <_strtol_l.constprop.0+0x16c>
   19f48:	2a8020ef          	jal	ra,1c1f0 <__errno>
   19f4c:	01600793          	li	a5,22
   19f50:	00f52023          	sw	a5,0(a0)
   19f54:	00000513          	li	a0,0
   19f58:	04c12083          	lw	ra,76(sp)
   19f5c:	04812403          	lw	s0,72(sp)
   19f60:	04412483          	lw	s1,68(sp)
   19f64:	04012903          	lw	s2,64(sp)
   19f68:	03c12983          	lw	s3,60(sp)
   19f6c:	03812a03          	lw	s4,56(sp)
   19f70:	03412a83          	lw	s5,52(sp)
   19f74:	03012b03          	lw	s6,48(sp)
   19f78:	02c12b83          	lw	s7,44(sp)
   19f7c:	02812c03          	lw	s8,40(sp)
   19f80:	02412c83          	lw	s9,36(sp)
   19f84:	02012d03          	lw	s10,32(sp)
   19f88:	01c12d83          	lw	s11,28(sp)
   19f8c:	05010113          	addi	sp,sp,80
   19f90:	00008067          	ret
   19f94:	80000b37          	lui	s6,0x80000
   19f98:	00012623          	sw	zero,12(sp)
   19f9c:	00044483          	lbu	s1,0(s0)
   19fa0:	fffb4b13          	not	s6,s6
   19fa4:	00268413          	addi	s0,a3,2
   19fa8:	ee0c84e3          	beqz	s9,19e90 <_strtol_l.constprop.0+0xa4>
   19fac:	01000793          	li	a5,16
   19fb0:	eefc98e3          	bne	s9,a5,19ea0 <_strtol_l.constprop.0+0xb4>
   19fb4:	03000793          	li	a5,48
   19fb8:	01000993          	li	s3,16
   19fbc:	eef492e3          	bne	s1,a5,19ea0 <_strtol_l.constprop.0+0xb4>
   19fc0:	00044783          	lbu	a5,0(s0)
   19fc4:	05800713          	li	a4,88
   19fc8:	0df7f793          	andi	a5,a5,223
   19fcc:	ece79ae3          	bne	a5,a4,19ea0 <_strtol_l.constprop.0+0xb4>
   19fd0:	00144483          	lbu	s1,1(s0)
   19fd4:	01000993          	li	s3,16
   19fd8:	00240413          	addi	s0,s0,2
   19fdc:	01000c93          	li	s9,16
   19fe0:	ec1ff06f          	j	19ea0 <_strtol_l.constprop.0+0xb4>
   19fe4:	f9f48793          	addi	a5,s1,-97
   19fe8:	f2faeee3          	bltu	s5,a5,19f24 <_strtol_l.constprop.0+0x138>
   19fec:	fa948493          	addi	s1,s1,-87
   19ff0:	ef1ff06f          	j	19ee0 <_strtol_l.constprop.0+0xf4>
   19ff4:	f09bc8e3          	blt	s7,s1,19f04 <_strtol_l.constprop.0+0x118>
   19ff8:	efdff06f          	j	19ef4 <_strtol_l.constprop.0+0x108>
   19ffc:	00812703          	lw	a4,8(sp)
   1a000:	02200793          	li	a5,34
   1a004:	000b0513          	mv	a0,s6
   1a008:	00f72023          	sw	a5,0(a4)
   1a00c:	f40a06e3          	beqz	s4,19f58 <_strtol_l.constprop.0+0x16c>
   1a010:	fff40913          	addi	s2,s0,-1
   1a014:	000b0513          	mv	a0,s6
   1a018:	012a2023          	sw	s2,0(s4)
   1a01c:	f3dff06f          	j	19f58 <_strtol_l.constprop.0+0x16c>
   1a020:	00100793          	li	a5,1
   1a024:	00044483          	lbu	s1,0(s0)
   1a028:	80000b37          	lui	s6,0x80000
   1a02c:	00268413          	addi	s0,a3,2
   1a030:	00f12623          	sw	a5,12(sp)
   1a034:	e59ff06f          	j	19e8c <_strtol_l.constprop.0+0xa0>
   1a038:	00044783          	lbu	a5,0(s0)
   1a03c:	05800713          	li	a4,88
   1a040:	00800993          	li	s3,8
   1a044:	0df7f793          	andi	a5,a5,223
   1a048:	00800c93          	li	s9,8
   1a04c:	e4e79ae3          	bne	a5,a4,19ea0 <_strtol_l.constprop.0+0xb4>
   1a050:	f81ff06f          	j	19fd0 <_strtol_l.constprop.0+0x1e4>
   1a054:	00050b13          	mv	s6,a0
   1a058:	fb9ff06f          	j	1a010 <_strtol_l.constprop.0+0x224>

0001a05c <_strtol_r>:
   1a05c:	d91ff06f          	j	19dec <_strtol_l.constprop.0>

0001a060 <strtol_l>:
   1a060:	00060693          	mv	a3,a2
   1a064:	00058613          	mv	a2,a1
   1a068:	00050593          	mv	a1,a0
   1a06c:	2301a503          	lw	a0,560(gp) # 23af0 <_impure_ptr>
   1a070:	d7dff06f          	j	19dec <_strtol_l.constprop.0>

0001a074 <strtol>:
   1a074:	00060693          	mv	a3,a2
   1a078:	00058613          	mv	a2,a1
   1a07c:	00050593          	mv	a1,a0
   1a080:	2301a503          	lw	a0,560(gp) # 23af0 <_impure_ptr>
   1a084:	d69ff06f          	j	19dec <_strtol_l.constprop.0>

0001a088 <__sprint_r.part.0>:
   1a088:	0645a703          	lw	a4,100(a1)
   1a08c:	fd010113          	addi	sp,sp,-48
   1a090:	000027b7          	lui	a5,0x2
   1a094:	01612823          	sw	s6,16(sp)
   1a098:	02112623          	sw	ra,44(sp)
   1a09c:	02812423          	sw	s0,40(sp)
   1a0a0:	02912223          	sw	s1,36(sp)
   1a0a4:	03212023          	sw	s2,32(sp)
   1a0a8:	01312e23          	sw	s3,28(sp)
   1a0ac:	01412c23          	sw	s4,24(sp)
   1a0b0:	01512a23          	sw	s5,20(sp)
   1a0b4:	01712623          	sw	s7,12(sp)
   1a0b8:	01812423          	sw	s8,8(sp)
   1a0bc:	00e7f7b3          	and	a5,a5,a4
   1a0c0:	00060b13          	mv	s6,a2
   1a0c4:	0a078863          	beqz	a5,1a174 <__sprint_r.part.0+0xec>
   1a0c8:	00862783          	lw	a5,8(a2)
   1a0cc:	00062b83          	lw	s7,0(a2)
   1a0d0:	00058913          	mv	s2,a1
   1a0d4:	00050993          	mv	s3,a0
   1a0d8:	fff00a93          	li	s5,-1
   1a0dc:	08078863          	beqz	a5,1a16c <__sprint_r.part.0+0xe4>
   1a0e0:	004bac03          	lw	s8,4(s7)
   1a0e4:	000ba403          	lw	s0,0(s7)
   1a0e8:	002c5a13          	srli	s4,s8,0x2
   1a0ec:	060a0663          	beqz	s4,1a158 <__sprint_r.part.0+0xd0>
   1a0f0:	00000493          	li	s1,0
   1a0f4:	00c0006f          	j	1a100 <__sprint_r.part.0+0x78>
   1a0f8:	00440413          	addi	s0,s0,4
   1a0fc:	049a0c63          	beq	s4,s1,1a154 <__sprint_r.part.0+0xcc>
   1a100:	00042583          	lw	a1,0(s0)
   1a104:	00090613          	mv	a2,s2
   1a108:	00098513          	mv	a0,s3
   1a10c:	41c020ef          	jal	ra,1c528 <_fputwc_r>
   1a110:	00148493          	addi	s1,s1,1
   1a114:	ff5512e3          	bne	a0,s5,1a0f8 <__sprint_r.part.0+0x70>
   1a118:	fff00513          	li	a0,-1
   1a11c:	02c12083          	lw	ra,44(sp)
   1a120:	02812403          	lw	s0,40(sp)
   1a124:	000b2423          	sw	zero,8(s6) # 80000008 <__BSS_END__+0x7ffdc1d8>
   1a128:	000b2223          	sw	zero,4(s6)
   1a12c:	02412483          	lw	s1,36(sp)
   1a130:	02012903          	lw	s2,32(sp)
   1a134:	01c12983          	lw	s3,28(sp)
   1a138:	01812a03          	lw	s4,24(sp)
   1a13c:	01412a83          	lw	s5,20(sp)
   1a140:	01012b03          	lw	s6,16(sp)
   1a144:	00c12b83          	lw	s7,12(sp)
   1a148:	00812c03          	lw	s8,8(sp)
   1a14c:	03010113          	addi	sp,sp,48
   1a150:	00008067          	ret
   1a154:	008b2783          	lw	a5,8(s6)
   1a158:	ffcc7c13          	andi	s8,s8,-4
   1a15c:	418787b3          	sub	a5,a5,s8
   1a160:	00fb2423          	sw	a5,8(s6)
   1a164:	008b8b93          	addi	s7,s7,8
   1a168:	f6079ce3          	bnez	a5,1a0e0 <__sprint_r.part.0+0x58>
   1a16c:	00000513          	li	a0,0
   1a170:	fadff06f          	j	1a11c <__sprint_r.part.0+0x94>
   1a174:	5c8020ef          	jal	ra,1c73c <__sfvwrite_r>
   1a178:	fa5ff06f          	j	1a11c <__sprint_r.part.0+0x94>

0001a17c <__sprint_r>:
   1a17c:	00862703          	lw	a4,8(a2)
   1a180:	00070463          	beqz	a4,1a188 <__sprint_r+0xc>
   1a184:	f05ff06f          	j	1a088 <__sprint_r.part.0>
   1a188:	00062223          	sw	zero,4(a2)
   1a18c:	00000513          	li	a0,0
   1a190:	00008067          	ret

0001a194 <_vfiprintf_r>:
   1a194:	eb010113          	addi	sp,sp,-336
   1a198:	14812423          	sw	s0,328(sp)
   1a19c:	13312e23          	sw	s3,316(sp)
   1a1a0:	13812423          	sw	s8,296(sp)
   1a1a4:	00050413          	mv	s0,a0
   1a1a8:	00058993          	mv	s3,a1
   1a1ac:	00060c13          	mv	s8,a2
   1a1b0:	00000593          	li	a1,0
   1a1b4:	00800613          	li	a2,8
   1a1b8:	05010513          	addi	a0,sp,80
   1a1bc:	13512a23          	sw	s5,308(sp)
   1a1c0:	14112623          	sw	ra,332(sp)
   1a1c4:	14912223          	sw	s1,324(sp)
   1a1c8:	15212023          	sw	s2,320(sp)
   1a1cc:	13412c23          	sw	s4,312(sp)
   1a1d0:	13612823          	sw	s6,304(sp)
   1a1d4:	13712623          	sw	s7,300(sp)
   1a1d8:	13912223          	sw	s9,292(sp)
   1a1dc:	13a12023          	sw	s10,288(sp)
   1a1e0:	11b12e23          	sw	s11,284(sp)
   1a1e4:	00068a93          	mv	s5,a3
   1a1e8:	a29f60ef          	jal	ra,10c10 <memset>
   1a1ec:	00040663          	beqz	s0,1a1f8 <_vfiprintf_r+0x64>
   1a1f0:	03842783          	lw	a5,56(s0)
   1a1f4:	5c078e63          	beqz	a5,1a7d0 <_vfiprintf_r+0x63c>
   1a1f8:	0649a703          	lw	a4,100(s3)
   1a1fc:	00c99783          	lh	a5,12(s3)
   1a200:	00177713          	andi	a4,a4,1
   1a204:	00071863          	bnez	a4,1a214 <_vfiprintf_r+0x80>
   1a208:	2007f713          	andi	a4,a5,512
   1a20c:	00071463          	bnez	a4,1a214 <_vfiprintf_r+0x80>
   1a210:	1400106f          	j	1b350 <_vfiprintf_r+0x11bc>
   1a214:	01279713          	slli	a4,a5,0x12
   1a218:	02074663          	bltz	a4,1a244 <_vfiprintf_r+0xb0>
   1a21c:	0649a703          	lw	a4,100(s3)
   1a220:	000026b7          	lui	a3,0x2
   1a224:	00d7e7b3          	or	a5,a5,a3
   1a228:	ffffe6b7          	lui	a3,0xffffe
   1a22c:	01079793          	slli	a5,a5,0x10
   1a230:	fff68693          	addi	a3,a3,-1 # ffffdfff <__BSS_END__+0xfffda1cf>
   1a234:	4107d793          	srai	a5,a5,0x10
   1a238:	00d77733          	and	a4,a4,a3
   1a23c:	00f99623          	sh	a5,12(s3)
   1a240:	06e9a223          	sw	a4,100(s3)
   1a244:	0087f713          	andi	a4,a5,8
   1a248:	2c070263          	beqz	a4,1a50c <_vfiprintf_r+0x378>
   1a24c:	0109a703          	lw	a4,16(s3)
   1a250:	2a070e63          	beqz	a4,1a50c <_vfiprintf_r+0x378>
   1a254:	01a7f713          	andi	a4,a5,26
   1a258:	00a00693          	li	a3,10
   1a25c:	2cd70a63          	beq	a4,a3,1a530 <_vfiprintf_r+0x39c>
   1a260:	06c10a13          	addi	s4,sp,108
   1a264:	000c0c93          	mv	s9,s8
   1a268:	07412023          	sw	s4,96(sp)
   1a26c:	06012423          	sw	zero,104(sp)
   1a270:	06012223          	sw	zero,100(sp)
   1a274:	00012a23          	sw	zero,20(sp)
   1a278:	02012623          	sw	zero,44(sp)
   1a27c:	02012823          	sw	zero,48(sp)
   1a280:	02012a23          	sw	zero,52(sp)
   1a284:	00012623          	sw	zero,12(sp)
   1a288:	03018493          	addi	s1,gp,48 # 238f0 <__global_locale>
   1a28c:	02500913          	li	s2,37
   1a290:	00008b97          	auipc	s7,0x8
   1a294:	f10b8b93          	addi	s7,s7,-240 # 221a0 <__mprec_tens+0xc8>
   1a298:	00008b17          	auipc	s6,0x8
   1a29c:	074b0b13          	addi	s6,s6,116 # 2230c <zeroes.0>
   1a2a0:	000a0c13          	mv	s8,s4
   1a2a4:	000c8d93          	mv	s11,s9
   1a2a8:	0e44ad03          	lw	s10,228(s1)
   1a2ac:	858fd0ef          	jal	ra,17304 <__locale_mb_cur_max>
   1a2b0:	00050693          	mv	a3,a0
   1a2b4:	05010713          	addi	a4,sp,80
   1a2b8:	000d8613          	mv	a2,s11
   1a2bc:	04810593          	addi	a1,sp,72
   1a2c0:	00040513          	mv	a0,s0
   1a2c4:	000d00e7          	jalr	s10
   1a2c8:	2e050063          	beqz	a0,1a5a8 <_vfiprintf_r+0x414>
   1a2cc:	2c054063          	bltz	a0,1a58c <_vfiprintf_r+0x3f8>
   1a2d0:	04812783          	lw	a5,72(sp)
   1a2d4:	01278663          	beq	a5,s2,1a2e0 <_vfiprintf_r+0x14c>
   1a2d8:	00ad8db3          	add	s11,s11,a0
   1a2dc:	fcdff06f          	j	1a2a8 <_vfiprintf_r+0x114>
   1a2e0:	00050d13          	mv	s10,a0
   1a2e4:	419d87b3          	sub	a5,s11,s9
   1a2e8:	2d9d9663          	bne	s11,s9,1a5b4 <_vfiprintf_r+0x420>
   1a2ec:	00000e93          	li	t4,0
   1a2f0:	001dc703          	lbu	a4,1(s11)
   1a2f4:	001d8c93          	addi	s9,s11,1
   1a2f8:	040101a3          	sb	zero,67(sp)
   1a2fc:	fff00813          	li	a6,-1
   1a300:	00000e13          	li	t3,0
   1a304:	05a00d13          	li	s10,90
   1a308:	000e8d93          	mv	s11,t4
   1a30c:	001c8c93          	addi	s9,s9,1
   1a310:	fe070793          	addi	a5,a4,-32
   1a314:	04fd6663          	bltu	s10,a5,1a360 <_vfiprintf_r+0x1cc>
   1a318:	00279793          	slli	a5,a5,0x2
   1a31c:	017787b3          	add	a5,a5,s7
   1a320:	0007a783          	lw	a5,0(a5) # 2000 <exit-0xe094>
   1a324:	017787b3          	add	a5,a5,s7
   1a328:	00078067          	jr	a5
   1a32c:	00000e13          	li	t3,0
   1a330:	fd070793          	addi	a5,a4,-48
   1a334:	00900613          	li	a2,9
   1a338:	000cc703          	lbu	a4,0(s9)
   1a33c:	002e1693          	slli	a3,t3,0x2
   1a340:	01c68e33          	add	t3,a3,t3
   1a344:	001e1e13          	slli	t3,t3,0x1
   1a348:	01c78e33          	add	t3,a5,t3
   1a34c:	fd070793          	addi	a5,a4,-48
   1a350:	001c8c93          	addi	s9,s9,1
   1a354:	fef672e3          	bgeu	a2,a5,1a338 <_vfiprintf_r+0x1a4>
   1a358:	fe070793          	addi	a5,a4,-32
   1a35c:	fafd7ee3          	bgeu	s10,a5,1a318 <_vfiprintf_r+0x184>
   1a360:	000d8e93          	mv	t4,s11
   1a364:	2a070863          	beqz	a4,1a614 <_vfiprintf_r+0x480>
   1a368:	0ae10623          	sb	a4,172(sp)
   1a36c:	040101a3          	sb	zero,67(sp)
   1a370:	00100d13          	li	s10,1
   1a374:	00100693          	li	a3,1
   1a378:	0ac10893          	addi	a7,sp,172
   1a37c:	00012823          	sw	zero,16(sp)
   1a380:	00000813          	li	a6,0
   1a384:	002eff93          	andi	t6,t4,2
   1a388:	000f8463          	beqz	t6,1a390 <_vfiprintf_r+0x1fc>
   1a38c:	002d0d13          	addi	s10,s10,2
   1a390:	06412603          	lw	a2,100(sp)
   1a394:	084ef293          	andi	t0,t4,132
   1a398:	06812783          	lw	a5,104(sp)
   1a39c:	00160593          	addi	a1,a2,1
   1a3a0:	00058f13          	mv	t5,a1
   1a3a4:	00029663          	bnez	t0,1a3b0 <_vfiprintf_r+0x21c>
   1a3a8:	41ae0db3          	sub	s11,t3,s10
   1a3ac:	4fb044e3          	bgtz	s11,1b094 <_vfiprintf_r+0xf00>
   1a3b0:	04314583          	lbu	a1,67(sp)
   1a3b4:	02058a63          	beqz	a1,1a3e8 <_vfiprintf_r+0x254>
   1a3b8:	04310613          	addi	a2,sp,67
   1a3bc:	00178793          	addi	a5,a5,1
   1a3c0:	00100713          	li	a4,1
   1a3c4:	00cc2023          	sw	a2,0(s8)
   1a3c8:	00ec2223          	sw	a4,4(s8)
   1a3cc:	06f12423          	sw	a5,104(sp)
   1a3d0:	07e12223          	sw	t5,100(sp)
   1a3d4:	00700613          	li	a2,7
   1a3d8:	2fe64ce3          	blt	a2,t5,1aed0 <_vfiprintf_r+0xd3c>
   1a3dc:	000f0613          	mv	a2,t5
   1a3e0:	008c0c13          	addi	s8,s8,8
   1a3e4:	001f0f13          	addi	t5,t5,1
   1a3e8:	080f8063          	beqz	t6,1a468 <_vfiprintf_r+0x2d4>
   1a3ec:	00200613          	li	a2,2
   1a3f0:	00278793          	addi	a5,a5,2
   1a3f4:	04410713          	addi	a4,sp,68
   1a3f8:	00cc2223          	sw	a2,4(s8)
   1a3fc:	00ec2023          	sw	a4,0(s8)
   1a400:	06f12423          	sw	a5,104(sp)
   1a404:	07e12223          	sw	t5,100(sp)
   1a408:	00700613          	li	a2,7
   1a40c:	35e652e3          	bge	a2,t5,1af50 <_vfiprintf_r+0xdbc>
   1a410:	6a078ce3          	beqz	a5,1b2c8 <_vfiprintf_r+0x1134>
   1a414:	06010613          	addi	a2,sp,96
   1a418:	00098593          	mv	a1,s3
   1a41c:	00040513          	mv	a0,s0
   1a420:	02d12c23          	sw	a3,56(sp)
   1a424:	03012423          	sw	a6,40(sp)
   1a428:	03c12223          	sw	t3,36(sp)
   1a42c:	03d12023          	sw	t4,32(sp)
   1a430:	01112e23          	sw	a7,28(sp)
   1a434:	00512c23          	sw	t0,24(sp)
   1a438:	c51ff0ef          	jal	ra,1a088 <__sprint_r.part.0>
   1a43c:	20051263          	bnez	a0,1a640 <_vfiprintf_r+0x4ac>
   1a440:	06412603          	lw	a2,100(sp)
   1a444:	06812783          	lw	a5,104(sp)
   1a448:	03812683          	lw	a3,56(sp)
   1a44c:	02812803          	lw	a6,40(sp)
   1a450:	02412e03          	lw	t3,36(sp)
   1a454:	02012e83          	lw	t4,32(sp)
   1a458:	01c12883          	lw	a7,28(sp)
   1a45c:	01812283          	lw	t0,24(sp)
   1a460:	000a0c13          	mv	s8,s4
   1a464:	00160f13          	addi	t5,a2,1
   1a468:	08000593          	li	a1,128
   1a46c:	00b286e3          	beq	t0,a1,1ac78 <_vfiprintf_r+0xae4>
   1a470:	40d80833          	sub	a6,a6,a3
   1a474:	15004ae3          	bgtz	a6,1adc8 <_vfiprintf_r+0xc34>
   1a478:	00f687b3          	add	a5,a3,a5
   1a47c:	00dc2223          	sw	a3,4(s8)
   1a480:	011c2023          	sw	a7,0(s8)
   1a484:	06f12423          	sw	a5,104(sp)
   1a488:	07e12223          	sw	t5,100(sp)
   1a48c:	00700693          	li	a3,7
   1a490:	7de6d863          	bge	a3,t5,1ac60 <_vfiprintf_r+0xacc>
   1a494:	20078e63          	beqz	a5,1a6b0 <_vfiprintf_r+0x51c>
   1a498:	06010613          	addi	a2,sp,96
   1a49c:	00098593          	mv	a1,s3
   1a4a0:	00040513          	mv	a0,s0
   1a4a4:	01c12e23          	sw	t3,28(sp)
   1a4a8:	01d12c23          	sw	t4,24(sp)
   1a4ac:	bddff0ef          	jal	ra,1a088 <__sprint_r.part.0>
   1a4b0:	18051863          	bnez	a0,1a640 <_vfiprintf_r+0x4ac>
   1a4b4:	06812783          	lw	a5,104(sp)
   1a4b8:	01c12e03          	lw	t3,28(sp)
   1a4bc:	01812e83          	lw	t4,24(sp)
   1a4c0:	000a0c13          	mv	s8,s4
   1a4c4:	004efe93          	andi	t4,t4,4
   1a4c8:	000e8663          	beqz	t4,1a4d4 <_vfiprintf_r+0x340>
   1a4cc:	41ae0db3          	sub	s11,t3,s10
   1a4d0:	1fb04c63          	bgtz	s11,1a6c8 <_vfiprintf_r+0x534>
   1a4d4:	01ae5463          	bge	t3,s10,1a4dc <_vfiprintf_r+0x348>
   1a4d8:	000d0e13          	mv	t3,s10
   1a4dc:	00c12703          	lw	a4,12(sp)
   1a4e0:	01c70733          	add	a4,a4,t3
   1a4e4:	00e12623          	sw	a4,12(sp)
   1a4e8:	14079263          	bnez	a5,1a62c <_vfiprintf_r+0x498>
   1a4ec:	01012783          	lw	a5,16(sp)
   1a4f0:	06012223          	sw	zero,100(sp)
   1a4f4:	00078863          	beqz	a5,1a504 <_vfiprintf_r+0x370>
   1a4f8:	00078593          	mv	a1,a5
   1a4fc:	00040513          	mv	a0,s0
   1a500:	d3dfb0ef          	jal	ra,1623c <_free_r>
   1a504:	000a0c13          	mv	s8,s4
   1a508:	d9dff06f          	j	1a2a4 <_vfiprintf_r+0x110>
   1a50c:	00098593          	mv	a1,s3
   1a510:	00040513          	mv	a0,s0
   1a514:	f1cf90ef          	jal	ra,13c30 <__swsetup_r>
   1a518:	00050463          	beqz	a0,1a520 <_vfiprintf_r+0x38c>
   1a51c:	3540106f          	j	1b870 <_vfiprintf_r+0x16dc>
   1a520:	00c99783          	lh	a5,12(s3)
   1a524:	00a00693          	li	a3,10
   1a528:	01a7f713          	andi	a4,a5,26
   1a52c:	d2d71ae3          	bne	a4,a3,1a260 <_vfiprintf_r+0xcc>
   1a530:	00e99703          	lh	a4,14(s3)
   1a534:	d20746e3          	bltz	a4,1a260 <_vfiprintf_r+0xcc>
   1a538:	0649a703          	lw	a4,100(s3)
   1a53c:	00177713          	andi	a4,a4,1
   1a540:	00071863          	bnez	a4,1a550 <_vfiprintf_r+0x3bc>
   1a544:	2007f793          	andi	a5,a5,512
   1a548:	00079463          	bnez	a5,1a550 <_vfiprintf_r+0x3bc>
   1a54c:	2740106f          	j	1b7c0 <_vfiprintf_r+0x162c>
   1a550:	000a8693          	mv	a3,s5
   1a554:	000c0613          	mv	a2,s8
   1a558:	00098593          	mv	a1,s3
   1a55c:	00040513          	mv	a0,s0
   1a560:	3c8010ef          	jal	ra,1b928 <__sbprintf>
   1a564:	00a12623          	sw	a0,12(sp)
   1a568:	1080006f          	j	1a670 <_vfiprintf_r+0x4dc>
   1a56c:	000aae03          	lw	t3,0(s5)
   1a570:	004a8a93          	addi	s5,s5,4
   1a574:	360e4663          	bltz	t3,1a8e0 <_vfiprintf_r+0x74c>
   1a578:	000cc703          	lbu	a4,0(s9)
   1a57c:	d91ff06f          	j	1a30c <_vfiprintf_r+0x178>
   1a580:	000cc703          	lbu	a4,0(s9)
   1a584:	020ded93          	ori	s11,s11,32
   1a588:	d85ff06f          	j	1a30c <_vfiprintf_r+0x178>
   1a58c:	00800613          	li	a2,8
   1a590:	00000593          	li	a1,0
   1a594:	05010513          	addi	a0,sp,80
   1a598:	e78f60ef          	jal	ra,10c10 <memset>
   1a59c:	00100513          	li	a0,1
   1a5a0:	00ad8db3          	add	s11,s11,a0
   1a5a4:	d05ff06f          	j	1a2a8 <_vfiprintf_r+0x114>
   1a5a8:	00050d13          	mv	s10,a0
   1a5ac:	419d87b3          	sub	a5,s11,s9
   1a5b0:	079d8263          	beq	s11,s9,1a614 <_vfiprintf_r+0x480>
   1a5b4:	06812683          	lw	a3,104(sp)
   1a5b8:	06412703          	lw	a4,100(sp)
   1a5bc:	019c2023          	sw	s9,0(s8)
   1a5c0:	00d786b3          	add	a3,a5,a3
   1a5c4:	00170713          	addi	a4,a4,1
   1a5c8:	00fc2223          	sw	a5,4(s8)
   1a5cc:	06d12423          	sw	a3,104(sp)
   1a5d0:	06e12223          	sw	a4,100(sp)
   1a5d4:	00700613          	li	a2,7
   1a5d8:	008c0c13          	addi	s8,s8,8
   1a5dc:	02e65463          	bge	a2,a4,1a604 <_vfiprintf_r+0x470>
   1a5e0:	42068ce3          	beqz	a3,1b218 <_vfiprintf_r+0x1084>
   1a5e4:	06010613          	addi	a2,sp,96
   1a5e8:	00098593          	mv	a1,s3
   1a5ec:	00040513          	mv	a0,s0
   1a5f0:	00f12823          	sw	a5,16(sp)
   1a5f4:	a95ff0ef          	jal	ra,1a088 <__sprint_r.part.0>
   1a5f8:	01012783          	lw	a5,16(sp)
   1a5fc:	04051c63          	bnez	a0,1a654 <_vfiprintf_r+0x4c0>
   1a600:	000a0c13          	mv	s8,s4
   1a604:	00c12703          	lw	a4,12(sp)
   1a608:	00f707b3          	add	a5,a4,a5
   1a60c:	00f12623          	sw	a5,12(sp)
   1a610:	cc0d1ee3          	bnez	s10,1a2ec <_vfiprintf_r+0x158>
   1a614:	06812783          	lw	a5,104(sp)
   1a618:	00078463          	beqz	a5,1a620 <_vfiprintf_r+0x48c>
   1a61c:	2180106f          	j	1b834 <_vfiprintf_r+0x16a0>
   1a620:	00c99783          	lh	a5,12(s3)
   1a624:	06012223          	sw	zero,100(sp)
   1a628:	0300006f          	j	1a658 <_vfiprintf_r+0x4c4>
   1a62c:	06010613          	addi	a2,sp,96
   1a630:	00098593          	mv	a1,s3
   1a634:	00040513          	mv	a0,s0
   1a638:	a51ff0ef          	jal	ra,1a088 <__sprint_r.part.0>
   1a63c:	ea0508e3          	beqz	a0,1a4ec <_vfiprintf_r+0x358>
   1a640:	01012783          	lw	a5,16(sp)
   1a644:	00078863          	beqz	a5,1a654 <_vfiprintf_r+0x4c0>
   1a648:	01012583          	lw	a1,16(sp)
   1a64c:	00040513          	mv	a0,s0
   1a650:	bedfb0ef          	jal	ra,1623c <_free_r>
   1a654:	00c99783          	lh	a5,12(s3)
   1a658:	0649a703          	lw	a4,100(s3)
   1a65c:	00177713          	andi	a4,a4,1
   1a660:	14070c63          	beqz	a4,1a7b8 <_vfiprintf_r+0x624>
   1a664:	0407f793          	andi	a5,a5,64
   1a668:	00078463          	beqz	a5,1a670 <_vfiprintf_r+0x4dc>
   1a66c:	2240106f          	j	1b890 <_vfiprintf_r+0x16fc>
   1a670:	14c12083          	lw	ra,332(sp)
   1a674:	14812403          	lw	s0,328(sp)
   1a678:	00c12503          	lw	a0,12(sp)
   1a67c:	14412483          	lw	s1,324(sp)
   1a680:	14012903          	lw	s2,320(sp)
   1a684:	13c12983          	lw	s3,316(sp)
   1a688:	13812a03          	lw	s4,312(sp)
   1a68c:	13412a83          	lw	s5,308(sp)
   1a690:	13012b03          	lw	s6,304(sp)
   1a694:	12c12b83          	lw	s7,300(sp)
   1a698:	12812c03          	lw	s8,296(sp)
   1a69c:	12412c83          	lw	s9,292(sp)
   1a6a0:	12012d03          	lw	s10,288(sp)
   1a6a4:	11c12d83          	lw	s11,284(sp)
   1a6a8:	15010113          	addi	sp,sp,336
   1a6ac:	00008067          	ret
   1a6b0:	06012223          	sw	zero,100(sp)
   1a6b4:	004efe93          	andi	t4,t4,4
   1a6b8:	2e0e8ee3          	beqz	t4,1b1b4 <_vfiprintf_r+0x1020>
   1a6bc:	41ae0db3          	sub	s11,t3,s10
   1a6c0:	2fb05ae3          	blez	s11,1b1b4 <_vfiprintf_r+0x1020>
   1a6c4:	000a0c13          	mv	s8,s4
   1a6c8:	01000693          	li	a3,16
   1a6cc:	06412603          	lw	a2,100(sp)
   1a6d0:	01b6c463          	blt	a3,s11,1a6d8 <_vfiprintf_r+0x544>
   1a6d4:	17c0106f          	j	1b850 <_vfiprintf_r+0x16bc>
   1a6d8:	00008717          	auipc	a4,0x8
   1a6dc:	c4470713          	addi	a4,a4,-956 # 2231c <blanks.1>
   1a6e0:	000c0513          	mv	a0,s8
   1a6e4:	01000813          	li	a6,16
   1a6e8:	000a8c13          	mv	s8,s5
   1a6ec:	00700893          	li	a7,7
   1a6f0:	01c12c23          	sw	t3,24(sp)
   1a6f4:	00070a93          	mv	s5,a4
   1a6f8:	0180006f          	j	1a710 <_vfiprintf_r+0x57c>
   1a6fc:	00260593          	addi	a1,a2,2
   1a700:	00850513          	addi	a0,a0,8
   1a704:	00068613          	mv	a2,a3
   1a708:	ff0d8d93          	addi	s11,s11,-16
   1a70c:	05b85c63          	bge	a6,s11,1a764 <_vfiprintf_r+0x5d0>
   1a710:	01078793          	addi	a5,a5,16
   1a714:	00160693          	addi	a3,a2,1
   1a718:	01552023          	sw	s5,0(a0)
   1a71c:	01052223          	sw	a6,4(a0)
   1a720:	06f12423          	sw	a5,104(sp)
   1a724:	06d12223          	sw	a3,100(sp)
   1a728:	fcd8dae3          	bge	a7,a3,1a6fc <_vfiprintf_r+0x568>
   1a72c:	52078e63          	beqz	a5,1ac68 <_vfiprintf_r+0xad4>
   1a730:	06010613          	addi	a2,sp,96
   1a734:	00098593          	mv	a1,s3
   1a738:	00040513          	mv	a0,s0
   1a73c:	94dff0ef          	jal	ra,1a088 <__sprint_r.part.0>
   1a740:	f00510e3          	bnez	a0,1a640 <_vfiprintf_r+0x4ac>
   1a744:	06412603          	lw	a2,100(sp)
   1a748:	01000813          	li	a6,16
   1a74c:	ff0d8d93          	addi	s11,s11,-16
   1a750:	06812783          	lw	a5,104(sp)
   1a754:	000a0513          	mv	a0,s4
   1a758:	00160593          	addi	a1,a2,1
   1a75c:	00700893          	li	a7,7
   1a760:	fbb848e3          	blt	a6,s11,1a710 <_vfiprintf_r+0x57c>
   1a764:	01812e03          	lw	t3,24(sp)
   1a768:	000a8713          	mv	a4,s5
   1a76c:	000c0a93          	mv	s5,s8
   1a770:	00050c13          	mv	s8,a0
   1a774:	01b787b3          	add	a5,a5,s11
   1a778:	00ec2023          	sw	a4,0(s8)
   1a77c:	01bc2223          	sw	s11,4(s8)
   1a780:	06f12423          	sw	a5,104(sp)
   1a784:	06b12223          	sw	a1,100(sp)
   1a788:	00700693          	li	a3,7
   1a78c:	d4b6d4e3          	bge	a3,a1,1a4d4 <_vfiprintf_r+0x340>
   1a790:	220782e3          	beqz	a5,1b1b4 <_vfiprintf_r+0x1020>
   1a794:	06010613          	addi	a2,sp,96
   1a798:	00098593          	mv	a1,s3
   1a79c:	00040513          	mv	a0,s0
   1a7a0:	01c12c23          	sw	t3,24(sp)
   1a7a4:	8e5ff0ef          	jal	ra,1a088 <__sprint_r.part.0>
   1a7a8:	e8051ce3          	bnez	a0,1a640 <_vfiprintf_r+0x4ac>
   1a7ac:	06812783          	lw	a5,104(sp)
   1a7b0:	01812e03          	lw	t3,24(sp)
   1a7b4:	d21ff06f          	j	1a4d4 <_vfiprintf_r+0x340>
   1a7b8:	2007f713          	andi	a4,a5,512
   1a7bc:	ea0714e3          	bnez	a4,1a664 <_vfiprintf_r+0x4d0>
   1a7c0:	0589a503          	lw	a0,88(s3)
   1a7c4:	b85fc0ef          	jal	ra,17348 <__retarget_lock_release_recursive>
   1a7c8:	00c99783          	lh	a5,12(s3)
   1a7cc:	e99ff06f          	j	1a664 <_vfiprintf_r+0x4d0>
   1a7d0:	00040513          	mv	a0,s0
   1a7d4:	dd4fb0ef          	jal	ra,15da8 <__sinit>
   1a7d8:	a21ff06f          	j	1a1f8 <_vfiprintf_r+0x64>
   1a7dc:	000aa883          	lw	a7,0(s5)
   1a7e0:	040101a3          	sb	zero,67(sp)
   1a7e4:	000d8e93          	mv	t4,s11
   1a7e8:	004a8a93          	addi	s5,s5,4
   1a7ec:	680888e3          	beqz	a7,1b67c <_vfiprintf_r+0x14e8>
   1a7f0:	05300793          	li	a5,83
   1a7f4:	4af702e3          	beq	a4,a5,1b498 <_vfiprintf_r+0x1304>
   1a7f8:	010df793          	andi	a5,s11,16
   1a7fc:	48079ee3          	bnez	a5,1b498 <_vfiprintf_r+0x1304>
   1a800:	fff00793          	li	a5,-1
   1a804:	00f81463          	bne	a6,a5,1a80c <_vfiprintf_r+0x678>
   1a808:	7f10006f          	j	1b7f8 <_vfiprintf_r+0x1664>
   1a80c:	00080613          	mv	a2,a6
   1a810:	00088513          	mv	a0,a7
   1a814:	00000593          	li	a1,0
   1a818:	03c12223          	sw	t3,36(sp)
   1a81c:	01012e23          	sw	a6,28(sp)
   1a820:	01112c23          	sw	a7,24(sp)
   1a824:	03b12023          	sw	s11,32(sp)
   1a828:	e70fd0ef          	jal	ra,17e98 <memchr>
   1a82c:	00a12823          	sw	a0,16(sp)
   1a830:	01812883          	lw	a7,24(sp)
   1a834:	01c12803          	lw	a6,28(sp)
   1a838:	02012e83          	lw	t4,32(sp)
   1a83c:	02412e03          	lw	t3,36(sp)
   1a840:	780506e3          	beqz	a0,1b7cc <_vfiprintf_r+0x1638>
   1a844:	411506b3          	sub	a3,a0,a7
   1a848:	fff6c713          	not	a4,a3
   1a84c:	41f75713          	srai	a4,a4,0x1f
   1a850:	00e6fd33          	and	s10,a3,a4
   1a854:	00000813          	li	a6,0
   1a858:	00012823          	sw	zero,16(sp)
   1a85c:	16c0006f          	j	1a9c8 <_vfiprintf_r+0x834>
   1a860:	04300793          	li	a5,67
   1a864:	000d8e93          	mv	t4,s11
   1a868:	004a8d93          	addi	s11,s5,4
   1a86c:	00f70663          	beq	a4,a5,1a878 <_vfiprintf_r+0x6e4>
   1a870:	010ef793          	andi	a5,t4,16
   1a874:	360782e3          	beqz	a5,1b3d8 <_vfiprintf_r+0x1244>
   1a878:	00800613          	li	a2,8
   1a87c:	00000593          	li	a1,0
   1a880:	05810513          	addi	a0,sp,88
   1a884:	01c12e23          	sw	t3,28(sp)
   1a888:	01d12c23          	sw	t4,24(sp)
   1a88c:	b84f60ef          	jal	ra,10c10 <memset>
   1a890:	000aa603          	lw	a2,0(s5)
   1a894:	0ac10593          	addi	a1,sp,172
   1a898:	05810693          	addi	a3,sp,88
   1a89c:	00040513          	mv	a0,s0
   1a8a0:	00b12823          	sw	a1,16(sp)
   1a8a4:	a3cf90ef          	jal	ra,13ae0 <_wcrtomb_r>
   1a8a8:	fff00793          	li	a5,-1
   1a8ac:	01012583          	lw	a1,16(sp)
   1a8b0:	01812e83          	lw	t4,24(sp)
   1a8b4:	01c12e03          	lw	t3,28(sp)
   1a8b8:	00050693          	mv	a3,a0
   1a8bc:	00f51463          	bne	a0,a5,1a8c4 <_vfiprintf_r+0x730>
   1a8c0:	0180106f          	j	1b8d8 <_vfiprintf_r+0x1744>
   1a8c4:	fff54713          	not	a4,a0
   1a8c8:	41f75713          	srai	a4,a4,0x1f
   1a8cc:	00e57d33          	and	s10,a0,a4
   1a8d0:	040101a3          	sb	zero,67(sp)
   1a8d4:	000d8a93          	mv	s5,s11
   1a8d8:	00058893          	mv	a7,a1
   1a8dc:	aa1ff06f          	j	1a37c <_vfiprintf_r+0x1e8>
   1a8e0:	41c00e33          	neg	t3,t3
   1a8e4:	000cc703          	lbu	a4,0(s9)
   1a8e8:	004ded93          	ori	s11,s11,4
   1a8ec:	a21ff06f          	j	1a30c <_vfiprintf_r+0x178>
   1a8f0:	02b00793          	li	a5,43
   1a8f4:	000cc703          	lbu	a4,0(s9)
   1a8f8:	04f101a3          	sb	a5,67(sp)
   1a8fc:	a11ff06f          	j	1a30c <_vfiprintf_r+0x178>
   1a900:	000cc703          	lbu	a4,0(s9)
   1a904:	080ded93          	ori	s11,s11,128
   1a908:	a05ff06f          	j	1a30c <_vfiprintf_r+0x178>
   1a90c:	000cc703          	lbu	a4,0(s9)
   1a910:	02a00793          	li	a5,42
   1a914:	001c8693          	addi	a3,s9,1
   1a918:	00f71463          	bne	a4,a5,1a920 <_vfiprintf_r+0x78c>
   1a91c:	7cd0006f          	j	1b8e8 <_vfiprintf_r+0x1754>
   1a920:	fd070793          	addi	a5,a4,-48
   1a924:	00900593          	li	a1,9
   1a928:	00068c93          	mv	s9,a3
   1a92c:	00000813          	li	a6,0
   1a930:	00900613          	li	a2,9
   1a934:	9cf5eee3          	bltu	a1,a5,1a310 <_vfiprintf_r+0x17c>
   1a938:	000cc703          	lbu	a4,0(s9)
   1a93c:	00281693          	slli	a3,a6,0x2
   1a940:	01068833          	add	a6,a3,a6
   1a944:	00181813          	slli	a6,a6,0x1
   1a948:	00f80833          	add	a6,a6,a5
   1a94c:	fd070793          	addi	a5,a4,-48
   1a950:	001c8c93          	addi	s9,s9,1
   1a954:	fef672e3          	bgeu	a2,a5,1a938 <_vfiprintf_r+0x7a4>
   1a958:	9b9ff06f          	j	1a310 <_vfiprintf_r+0x17c>
   1a95c:	010de713          	ori	a4,s11,16
   1a960:	02077793          	andi	a5,a4,32
   1a964:	0c0780e3          	beqz	a5,1b224 <_vfiprintf_r+0x1090>
   1a968:	007a8a93          	addi	s5,s5,7
   1a96c:	ff8afa93          	andi	s5,s5,-8
   1a970:	000aa783          	lw	a5,0(s5)
   1a974:	004aa603          	lw	a2,4(s5)
   1a978:	008a8a93          	addi	s5,s5,8
   1a97c:	040101a3          	sb	zero,67(sp)
   1a980:	fff00693          	li	a3,-1
   1a984:	bff77e93          	andi	t4,a4,-1025
   1a988:	20d80a63          	beq	a6,a3,1ab9c <_vfiprintf_r+0xa08>
   1a98c:	00c7e6b3          	or	a3,a5,a2
   1a990:	b7f77713          	andi	a4,a4,-1153
   1a994:	4a0692e3          	bnez	a3,1b638 <_vfiprintf_r+0x14a4>
   1a998:	000e8693          	mv	a3,t4
   1a99c:	00000793          	li	a5,0
   1a9a0:	00070e93          	mv	t4,a4
   1a9a4:	1e081063          	bnez	a6,1ab84 <_vfiprintf_r+0x9f0>
   1a9a8:	06079863          	bnez	a5,1aa18 <_vfiprintf_r+0x884>
   1a9ac:	0016f693          	andi	a3,a3,1
   1a9b0:	18068ae3          	beqz	a3,1b344 <_vfiprintf_r+0x11b0>
   1a9b4:	03000793          	li	a5,48
   1a9b8:	10f107a3          	sb	a5,271(sp)
   1a9bc:	00068d13          	mv	s10,a3
   1a9c0:	10f10893          	addi	a7,sp,271
   1a9c4:	00012823          	sw	zero,16(sp)
   1a9c8:	04314783          	lbu	a5,67(sp)
   1a9cc:	00f037b3          	snez	a5,a5
   1a9d0:	00fd0d33          	add	s10,s10,a5
   1a9d4:	9b1ff06f          	j	1a384 <_vfiprintf_r+0x1f0>
   1a9d8:	010dee93          	ori	t4,s11,16
   1a9dc:	020ef793          	andi	a5,t4,32
   1a9e0:	060786e3          	beqz	a5,1b24c <_vfiprintf_r+0x10b8>
   1a9e4:	007a8a93          	addi	s5,s5,7
   1a9e8:	ff8afa93          	andi	s5,s5,-8
   1a9ec:	004aa703          	lw	a4,4(s5)
   1a9f0:	000aad83          	lw	s11,0(s5)
   1a9f4:	008a8a93          	addi	s5,s5,8
   1a9f8:	00070d13          	mv	s10,a4
   1a9fc:	06074ee3          	bltz	a4,1b278 <_vfiprintf_r+0x10e4>
   1aa00:	fff00713          	li	a4,-1
   1aa04:	10e80063          	beq	a6,a4,1ab04 <_vfiprintf_r+0x970>
   1aa08:	01ade733          	or	a4,s11,s10
   1aa0c:	f7fefe93          	andi	t4,t4,-129
   1aa10:	0e071a63          	bnez	a4,1ab04 <_vfiprintf_r+0x970>
   1aa14:	58081ce3          	bnez	a6,1b7ac <_vfiprintf_r+0x1618>
   1aa18:	00000d13          	li	s10,0
   1aa1c:	00000693          	li	a3,0
   1aa20:	11010893          	addi	a7,sp,272
   1aa24:	fa1ff06f          	j	1a9c4 <_vfiprintf_r+0x830>
   1aa28:	000cc703          	lbu	a4,0(s9)
   1aa2c:	06800793          	li	a5,104
   1aa30:	40f70ce3          	beq	a4,a5,1b648 <_vfiprintf_r+0x14b4>
   1aa34:	040ded93          	ori	s11,s11,64
   1aa38:	8d5ff06f          	j	1a30c <_vfiprintf_r+0x178>
   1aa3c:	00040513          	mv	a0,s0
   1aa40:	01012c23          	sw	a6,24(sp)
   1aa44:	01c12823          	sw	t3,16(sp)
   1aa48:	c4dfb0ef          	jal	ra,16694 <_localeconv_r>
   1aa4c:	00452783          	lw	a5,4(a0)
   1aa50:	00078513          	mv	a0,a5
   1aa54:	02f12a23          	sw	a5,52(sp)
   1aa58:	9e0ff0ef          	jal	ra,19c38 <strlen>
   1aa5c:	00050793          	mv	a5,a0
   1aa60:	00040513          	mv	a0,s0
   1aa64:	02f12823          	sw	a5,48(sp)
   1aa68:	c2dfb0ef          	jal	ra,16694 <_localeconv_r>
   1aa6c:	00852703          	lw	a4,8(a0)
   1aa70:	03012783          	lw	a5,48(sp)
   1aa74:	01012e03          	lw	t3,16(sp)
   1aa78:	02e12623          	sw	a4,44(sp)
   1aa7c:	01812803          	lw	a6,24(sp)
   1aa80:	ae078ce3          	beqz	a5,1a578 <_vfiprintf_r+0x3e4>
   1aa84:	02c12783          	lw	a5,44(sp)
   1aa88:	000cc703          	lbu	a4,0(s9)
   1aa8c:	880780e3          	beqz	a5,1a30c <_vfiprintf_r+0x178>
   1aa90:	0007c783          	lbu	a5,0(a5)
   1aa94:	86078ce3          	beqz	a5,1a30c <_vfiprintf_r+0x178>
   1aa98:	400ded93          	ori	s11,s11,1024
   1aa9c:	871ff06f          	j	1a30c <_vfiprintf_r+0x178>
   1aaa0:	000cc703          	lbu	a4,0(s9)
   1aaa4:	001ded93          	ori	s11,s11,1
   1aaa8:	865ff06f          	j	1a30c <_vfiprintf_r+0x178>
   1aaac:	04314783          	lbu	a5,67(sp)
   1aab0:	000cc703          	lbu	a4,0(s9)
   1aab4:	84079ce3          	bnez	a5,1a30c <_vfiprintf_r+0x178>
   1aab8:	02000793          	li	a5,32
   1aabc:	04f101a3          	sb	a5,67(sp)
   1aac0:	84dff06f          	j	1a30c <_vfiprintf_r+0x178>
   1aac4:	010de693          	ori	a3,s11,16
   1aac8:	0206f793          	andi	a5,a3,32
   1aacc:	7c078a63          	beqz	a5,1b2a0 <_vfiprintf_r+0x110c>
   1aad0:	007a8a93          	addi	s5,s5,7
   1aad4:	ff8afa93          	andi	s5,s5,-8
   1aad8:	000aad83          	lw	s11,0(s5)
   1aadc:	004aad03          	lw	s10,4(s5)
   1aae0:	008a8a93          	addi	s5,s5,8
   1aae4:	040101a3          	sb	zero,67(sp)
   1aae8:	fff00713          	li	a4,-1
   1aaec:	00068e93          	mv	t4,a3
   1aaf0:	00e80a63          	beq	a6,a4,1ab04 <_vfiprintf_r+0x970>
   1aaf4:	01ade733          	or	a4,s11,s10
   1aaf8:	f7f6fe93          	andi	t4,a3,-129
   1aafc:	00100793          	li	a5,1
   1ab00:	ea0702e3          	beqz	a4,1a9a4 <_vfiprintf_r+0x810>
   1ab04:	4a0d1a63          	bnez	s10,1afb8 <_vfiprintf_r+0xe24>
   1ab08:	00900713          	li	a4,9
   1ab0c:	4bb76663          	bltu	a4,s11,1afb8 <_vfiprintf_r+0xe24>
   1ab10:	030d8793          	addi	a5,s11,48
   1ab14:	0ff7f793          	zext.b	a5,a5
   1ab18:	10f107a3          	sb	a5,271(sp)
   1ab1c:	00080d13          	mv	s10,a6
   1ab20:	01004463          	bgtz	a6,1ab28 <_vfiprintf_r+0x994>
   1ab24:	00100d13          	li	s10,1
   1ab28:	00100693          	li	a3,1
   1ab2c:	10f10893          	addi	a7,sp,271
   1ab30:	e95ff06f          	j	1a9c4 <_vfiprintf_r+0x830>
   1ab34:	ffff8737          	lui	a4,0xffff8
   1ab38:	83074713          	xori	a4,a4,-2000
   1ab3c:	04e11223          	sh	a4,68(sp)
   1ab40:	00007717          	auipc	a4,0x7
   1ab44:	ce070713          	addi	a4,a4,-800 # 21820 <__clzsi2+0xb8>
   1ab48:	000aa783          	lw	a5,0(s5)
   1ab4c:	00000613          	li	a2,0
   1ab50:	002dee93          	ori	t4,s11,2
   1ab54:	004a8a93          	addi	s5,s5,4
   1ab58:	00e12a23          	sw	a4,20(sp)
   1ab5c:	040101a3          	sb	zero,67(sp)
   1ab60:	fff00713          	li	a4,-1
   1ab64:	40e80463          	beq	a6,a4,1af6c <_vfiprintf_r+0xdd8>
   1ab68:	00c7e733          	or	a4,a5,a2
   1ab6c:	f7fef593          	andi	a1,t4,-129
   1ab70:	3e071863          	bnez	a4,1af60 <_vfiprintf_r+0xdcc>
   1ab74:	000e8693          	mv	a3,t4
   1ab78:	00200793          	li	a5,2
   1ab7c:	00058e93          	mv	t4,a1
   1ab80:	e20804e3          	beqz	a6,1a9a8 <_vfiprintf_r+0x814>
   1ab84:	00100713          	li	a4,1
   1ab88:	42e782e3          	beq	a5,a4,1b7ac <_vfiprintf_r+0x1618>
   1ab8c:	00200713          	li	a4,2
   1ab90:	30e784e3          	beq	a5,a4,1b698 <_vfiprintf_r+0x1504>
   1ab94:	00000793          	li	a5,0
   1ab98:	00000613          	li	a2,0
   1ab9c:	11010893          	addi	a7,sp,272
   1aba0:	01d61693          	slli	a3,a2,0x1d
   1aba4:	0077f713          	andi	a4,a5,7
   1aba8:	0037d793          	srli	a5,a5,0x3
   1abac:	03070713          	addi	a4,a4,48
   1abb0:	00f6e7b3          	or	a5,a3,a5
   1abb4:	00365613          	srli	a2,a2,0x3
   1abb8:	fee88fa3          	sb	a4,-1(a7)
   1abbc:	00c7e6b3          	or	a3,a5,a2
   1abc0:	00088593          	mv	a1,a7
   1abc4:	fff88893          	addi	a7,a7,-1
   1abc8:	fc069ce3          	bnez	a3,1aba0 <_vfiprintf_r+0xa0c>
   1abcc:	001ef793          	andi	a5,t4,1
   1abd0:	4a078663          	beqz	a5,1b07c <_vfiprintf_r+0xee8>
   1abd4:	03000793          	li	a5,48
   1abd8:	4af70263          	beq	a4,a5,1b07c <_vfiprintf_r+0xee8>
   1abdc:	ffe58593          	addi	a1,a1,-2
   1abe0:	11010713          	addi	a4,sp,272
   1abe4:	40b706b3          	sub	a3,a4,a1
   1abe8:	fef88fa3          	sb	a5,-1(a7)
   1abec:	00068d13          	mv	s10,a3
   1abf0:	0106c0e3          	blt	a3,a6,1b3f0 <_vfiprintf_r+0x125c>
   1abf4:	00058893          	mv	a7,a1
   1abf8:	dcdff06f          	j	1a9c4 <_vfiprintf_r+0x830>
   1abfc:	020df793          	andi	a5,s11,32
   1ac00:	7a079663          	bnez	a5,1b3ac <_vfiprintf_r+0x1218>
   1ac04:	010df793          	andi	a5,s11,16
   1ac08:	260790e3          	bnez	a5,1b668 <_vfiprintf_r+0x14d4>
   1ac0c:	040df793          	andi	a5,s11,64
   1ac10:	340798e3          	bnez	a5,1b760 <_vfiprintf_r+0x15cc>
   1ac14:	200dfe93          	andi	t4,s11,512
   1ac18:	240e88e3          	beqz	t4,1b668 <_vfiprintf_r+0x14d4>
   1ac1c:	000aa783          	lw	a5,0(s5)
   1ac20:	00c12703          	lw	a4,12(sp)
   1ac24:	004a8a93          	addi	s5,s5,4
   1ac28:	00e78023          	sb	a4,0(a5)
   1ac2c:	e78ff06f          	j	1a2a4 <_vfiprintf_r+0x110>
   1ac30:	000cc703          	lbu	a4,0(s9)
   1ac34:	06c00793          	li	a5,108
   1ac38:	22f700e3          	beq	a4,a5,1b658 <_vfiprintf_r+0x14c4>
   1ac3c:	010ded93          	ori	s11,s11,16
   1ac40:	eccff06f          	j	1a30c <_vfiprintf_r+0x178>
   1ac44:	00068793          	mv	a5,a3
   1ac48:	06d12823          	sw	a3,112(sp)
   1ac4c:	06d12423          	sw	a3,104(sp)
   1ac50:	00100693          	li	a3,1
   1ac54:	07112623          	sw	a7,108(sp)
   1ac58:	06d12223          	sw	a3,100(sp)
   1ac5c:	000a0c13          	mv	s8,s4
   1ac60:	008c0c13          	addi	s8,s8,8
   1ac64:	861ff06f          	j	1a4c4 <_vfiprintf_r+0x330>
   1ac68:	00100593          	li	a1,1
   1ac6c:	00000613          	li	a2,0
   1ac70:	000a0513          	mv	a0,s4
   1ac74:	a95ff06f          	j	1a708 <_vfiprintf_r+0x574>
   1ac78:	41ae0db3          	sub	s11,t3,s10
   1ac7c:	ffb05a63          	blez	s11,1a470 <_vfiprintf_r+0x2dc>
   1ac80:	01000593          	li	a1,16
   1ac84:	3db5dee3          	bge	a1,s11,1b860 <_vfiprintf_r+0x16cc>
   1ac88:	000a8713          	mv	a4,s5
   1ac8c:	00007f97          	auipc	t6,0x7
   1ac90:	680f8f93          	addi	t6,t6,1664 # 2230c <zeroes.0>
   1ac94:	02d12423          	sw	a3,40(sp)
   1ac98:	000d8a93          	mv	s5,s11
   1ac9c:	000c0693          	mv	a3,s8
   1aca0:	01000f13          	li	t5,16
   1aca4:	00700293          	li	t0,7
   1aca8:	01112c23          	sw	a7,24(sp)
   1acac:	01d12e23          	sw	t4,28(sp)
   1acb0:	03c12023          	sw	t3,32(sp)
   1acb4:	03012223          	sw	a6,36(sp)
   1acb8:	000f8c13          	mv	s8,t6
   1acbc:	00070d93          	mv	s11,a4
   1acc0:	0180006f          	j	1acd8 <_vfiprintf_r+0xb44>
   1acc4:	00260513          	addi	a0,a2,2
   1acc8:	00868693          	addi	a3,a3,8
   1accc:	00070613          	mv	a2,a4
   1acd0:	ff0a8a93          	addi	s5,s5,-16
   1acd4:	055f5c63          	bge	t5,s5,1ad2c <_vfiprintf_r+0xb98>
   1acd8:	01078793          	addi	a5,a5,16
   1acdc:	00160713          	addi	a4,a2,1
   1ace0:	0186a023          	sw	s8,0(a3)
   1ace4:	01e6a223          	sw	t5,4(a3)
   1ace8:	06f12423          	sw	a5,104(sp)
   1acec:	06e12223          	sw	a4,100(sp)
   1acf0:	fce2dae3          	bge	t0,a4,1acc4 <_vfiprintf_r+0xb30>
   1acf4:	1c078663          	beqz	a5,1aec0 <_vfiprintf_r+0xd2c>
   1acf8:	06010613          	addi	a2,sp,96
   1acfc:	00098593          	mv	a1,s3
   1ad00:	00040513          	mv	a0,s0
   1ad04:	b84ff0ef          	jal	ra,1a088 <__sprint_r.part.0>
   1ad08:	92051ce3          	bnez	a0,1a640 <_vfiprintf_r+0x4ac>
   1ad0c:	06412603          	lw	a2,100(sp)
   1ad10:	01000f13          	li	t5,16
   1ad14:	ff0a8a93          	addi	s5,s5,-16
   1ad18:	06812783          	lw	a5,104(sp)
   1ad1c:	000a0693          	mv	a3,s4
   1ad20:	00160513          	addi	a0,a2,1
   1ad24:	00700293          	li	t0,7
   1ad28:	fb5f48e3          	blt	t5,s5,1acd8 <_vfiprintf_r+0xb44>
   1ad2c:	000c0f93          	mv	t6,s8
   1ad30:	01812883          	lw	a7,24(sp)
   1ad34:	00068c13          	mv	s8,a3
   1ad38:	01c12e83          	lw	t4,28(sp)
   1ad3c:	02012e03          	lw	t3,32(sp)
   1ad40:	02412803          	lw	a6,36(sp)
   1ad44:	02812683          	lw	a3,40(sp)
   1ad48:	000d8713          	mv	a4,s11
   1ad4c:	000a8d93          	mv	s11,s5
   1ad50:	00070a93          	mv	s5,a4
   1ad54:	01b787b3          	add	a5,a5,s11
   1ad58:	01fc2023          	sw	t6,0(s8)
   1ad5c:	01bc2223          	sw	s11,4(s8)
   1ad60:	06f12423          	sw	a5,104(sp)
   1ad64:	06a12223          	sw	a0,100(sp)
   1ad68:	00700613          	li	a2,7
   1ad6c:	5ea65a63          	bge	a2,a0,1b360 <_vfiprintf_r+0x11cc>
   1ad70:	1c0786e3          	beqz	a5,1b73c <_vfiprintf_r+0x15a8>
   1ad74:	06010613          	addi	a2,sp,96
   1ad78:	00098593          	mv	a1,s3
   1ad7c:	00040513          	mv	a0,s0
   1ad80:	02d12423          	sw	a3,40(sp)
   1ad84:	03012223          	sw	a6,36(sp)
   1ad88:	03c12023          	sw	t3,32(sp)
   1ad8c:	01d12e23          	sw	t4,28(sp)
   1ad90:	01112c23          	sw	a7,24(sp)
   1ad94:	af4ff0ef          	jal	ra,1a088 <__sprint_r.part.0>
   1ad98:	8a0514e3          	bnez	a0,1a640 <_vfiprintf_r+0x4ac>
   1ad9c:	02812683          	lw	a3,40(sp)
   1ada0:	02412803          	lw	a6,36(sp)
   1ada4:	06412603          	lw	a2,100(sp)
   1ada8:	06812783          	lw	a5,104(sp)
   1adac:	40d80833          	sub	a6,a6,a3
   1adb0:	02012e03          	lw	t3,32(sp)
   1adb4:	01c12e83          	lw	t4,28(sp)
   1adb8:	01812883          	lw	a7,24(sp)
   1adbc:	000a0c13          	mv	s8,s4
   1adc0:	00160f13          	addi	t5,a2,1
   1adc4:	eb005a63          	blez	a6,1a478 <_vfiprintf_r+0x2e4>
   1adc8:	01000593          	li	a1,16
   1adcc:	00007f97          	auipc	t6,0x7
   1add0:	540f8f93          	addi	t6,t6,1344 # 2230c <zeroes.0>
   1add4:	0b05da63          	bge	a1,a6,1ae88 <_vfiprintf_r+0xcf4>
   1add8:	02d12223          	sw	a3,36(sp)
   1addc:	03512423          	sw	s5,40(sp)
   1ade0:	000c0693          	mv	a3,s8
   1ade4:	01000d93          	li	s11,16
   1ade8:	00700293          	li	t0,7
   1adec:	01112c23          	sw	a7,24(sp)
   1adf0:	01d12e23          	sw	t4,28(sp)
   1adf4:	03c12023          	sw	t3,32(sp)
   1adf8:	00080a93          	mv	s5,a6
   1adfc:	000b0c13          	mv	s8,s6
   1ae00:	0180006f          	j	1ae18 <_vfiprintf_r+0xc84>
   1ae04:	00260f13          	addi	t5,a2,2
   1ae08:	00868693          	addi	a3,a3,8
   1ae0c:	00070613          	mv	a2,a4
   1ae10:	ff0a8a93          	addi	s5,s5,-16
   1ae14:	055dda63          	bge	s11,s5,1ae68 <_vfiprintf_r+0xcd4>
   1ae18:	01078793          	addi	a5,a5,16
   1ae1c:	00160713          	addi	a4,a2,1
   1ae20:	0166a023          	sw	s6,0(a3)
   1ae24:	01b6a223          	sw	s11,4(a3)
   1ae28:	06f12423          	sw	a5,104(sp)
   1ae2c:	06e12223          	sw	a4,100(sp)
   1ae30:	fce2dae3          	bge	t0,a4,1ae04 <_vfiprintf_r+0xc70>
   1ae34:	06078e63          	beqz	a5,1aeb0 <_vfiprintf_r+0xd1c>
   1ae38:	06010613          	addi	a2,sp,96
   1ae3c:	00098593          	mv	a1,s3
   1ae40:	00040513          	mv	a0,s0
   1ae44:	a44ff0ef          	jal	ra,1a088 <__sprint_r.part.0>
   1ae48:	fe051c63          	bnez	a0,1a640 <_vfiprintf_r+0x4ac>
   1ae4c:	06412603          	lw	a2,100(sp)
   1ae50:	ff0a8a93          	addi	s5,s5,-16
   1ae54:	06812783          	lw	a5,104(sp)
   1ae58:	000a0693          	mv	a3,s4
   1ae5c:	00160f13          	addi	t5,a2,1
   1ae60:	00700293          	li	t0,7
   1ae64:	fb5dcae3          	blt	s11,s5,1ae18 <_vfiprintf_r+0xc84>
   1ae68:	000a8813          	mv	a6,s5
   1ae6c:	000c0f93          	mv	t6,s8
   1ae70:	01812883          	lw	a7,24(sp)
   1ae74:	00068c13          	mv	s8,a3
   1ae78:	01c12e83          	lw	t4,28(sp)
   1ae7c:	02012e03          	lw	t3,32(sp)
   1ae80:	02812a83          	lw	s5,40(sp)
   1ae84:	02412683          	lw	a3,36(sp)
   1ae88:	010787b3          	add	a5,a5,a6
   1ae8c:	01fc2023          	sw	t6,0(s8)
   1ae90:	010c2223          	sw	a6,4(s8)
   1ae94:	06f12423          	sw	a5,104(sp)
   1ae98:	07e12223          	sw	t5,100(sp)
   1ae9c:	00700613          	li	a2,7
   1aea0:	33e64663          	blt	a2,t5,1b1cc <_vfiprintf_r+0x1038>
   1aea4:	008c0c13          	addi	s8,s8,8
   1aea8:	001f0f13          	addi	t5,t5,1
   1aeac:	dccff06f          	j	1a478 <_vfiprintf_r+0x2e4>
   1aeb0:	00100f13          	li	t5,1
   1aeb4:	00000613          	li	a2,0
   1aeb8:	000a0693          	mv	a3,s4
   1aebc:	f55ff06f          	j	1ae10 <_vfiprintf_r+0xc7c>
   1aec0:	00100513          	li	a0,1
   1aec4:	00000613          	li	a2,0
   1aec8:	000a0693          	mv	a3,s4
   1aecc:	e05ff06f          	j	1acd0 <_vfiprintf_r+0xb3c>
   1aed0:	06078263          	beqz	a5,1af34 <_vfiprintf_r+0xda0>
   1aed4:	06010613          	addi	a2,sp,96
   1aed8:	00098593          	mv	a1,s3
   1aedc:	00040513          	mv	a0,s0
   1aee0:	02d12e23          	sw	a3,60(sp)
   1aee4:	03012c23          	sw	a6,56(sp)
   1aee8:	03c12423          	sw	t3,40(sp)
   1aeec:	03d12223          	sw	t4,36(sp)
   1aef0:	03112023          	sw	a7,32(sp)
   1aef4:	00512e23          	sw	t0,28(sp)
   1aef8:	01f12c23          	sw	t6,24(sp)
   1aefc:	98cff0ef          	jal	ra,1a088 <__sprint_r.part.0>
   1af00:	f4051063          	bnez	a0,1a640 <_vfiprintf_r+0x4ac>
   1af04:	06412603          	lw	a2,100(sp)
   1af08:	06812783          	lw	a5,104(sp)
   1af0c:	03c12683          	lw	a3,60(sp)
   1af10:	03812803          	lw	a6,56(sp)
   1af14:	02812e03          	lw	t3,40(sp)
   1af18:	02412e83          	lw	t4,36(sp)
   1af1c:	02012883          	lw	a7,32(sp)
   1af20:	01c12283          	lw	t0,28(sp)
   1af24:	01812f83          	lw	t6,24(sp)
   1af28:	000a0c13          	mv	s8,s4
   1af2c:	00160f13          	addi	t5,a2,1
   1af30:	cb8ff06f          	j	1a3e8 <_vfiprintf_r+0x254>
   1af34:	480f8a63          	beqz	t6,1b3c8 <_vfiprintf_r+0x1234>
   1af38:	04410793          	addi	a5,sp,68
   1af3c:	06f12623          	sw	a5,108(sp)
   1af40:	00200793          	li	a5,2
   1af44:	06f12823          	sw	a5,112(sp)
   1af48:	00100f13          	li	t5,1
   1af4c:	000a0c13          	mv	s8,s4
   1af50:	000f0613          	mv	a2,t5
   1af54:	008c0c13          	addi	s8,s8,8
   1af58:	001f0f13          	addi	t5,t5,1
   1af5c:	d0cff06f          	j	1a468 <_vfiprintf_r+0x2d4>
   1af60:	00200713          	li	a4,2
   1af64:	00058e93          	mv	t4,a1
   1af68:	c2070ae3          	beqz	a4,1ab9c <_vfiprintf_r+0xa08>
   1af6c:	01412583          	lw	a1,20(sp)
   1af70:	11010893          	addi	a7,sp,272
   1af74:	00f7f713          	andi	a4,a5,15
   1af78:	00e58733          	add	a4,a1,a4
   1af7c:	00074683          	lbu	a3,0(a4)
   1af80:	0047d793          	srli	a5,a5,0x4
   1af84:	01c61713          	slli	a4,a2,0x1c
   1af88:	00f767b3          	or	a5,a4,a5
   1af8c:	00465613          	srli	a2,a2,0x4
   1af90:	fed88fa3          	sb	a3,-1(a7)
   1af94:	00c7e733          	or	a4,a5,a2
   1af98:	fff88893          	addi	a7,a7,-1
   1af9c:	fc071ce3          	bnez	a4,1af74 <_vfiprintf_r+0xde0>
   1afa0:	11010793          	addi	a5,sp,272
   1afa4:	411786b3          	sub	a3,a5,a7
   1afa8:	00080d13          	mv	s10,a6
   1afac:	a0d85ce3          	bge	a6,a3,1a9c4 <_vfiprintf_r+0x830>
   1afb0:	00068d13          	mv	s10,a3
   1afb4:	a11ff06f          	j	1a9c4 <_vfiprintf_r+0x830>
   1afb8:	400ef793          	andi	a5,t4,1024
   1afbc:	00000713          	li	a4,0
   1afc0:	11010893          	addi	a7,sp,272
   1afc4:	03812023          	sw	s8,32(sp)
   1afc8:	02812223          	sw	s0,36(sp)
   1afcc:	03312423          	sw	s3,40(sp)
   1afd0:	03512c23          	sw	s5,56(sp)
   1afd4:	01d12823          	sw	t4,16(sp)
   1afd8:	02c12a83          	lw	s5,44(sp)
   1afdc:	01c12c23          	sw	t3,24(sp)
   1afe0:	01012e23          	sw	a6,28(sp)
   1afe4:	00078c13          	mv	s8,a5
   1afe8:	00070413          	mv	s0,a4
   1afec:	00088993          	mv	s3,a7
   1aff0:	0240006f          	j	1b014 <_vfiprintf_r+0xe80>
   1aff4:	00a00613          	li	a2,10
   1aff8:	00000693          	li	a3,0
   1affc:	000d8513          	mv	a0,s11
   1b000:	000d0593          	mv	a1,s10
   1b004:	77d020ef          	jal	ra,1df80 <__udivdi3>
   1b008:	7c0d0a63          	beqz	s10,1b7dc <_vfiprintf_r+0x1648>
   1b00c:	00050d93          	mv	s11,a0
   1b010:	00058d13          	mv	s10,a1
   1b014:	00a00613          	li	a2,10
   1b018:	00000693          	li	a3,0
   1b01c:	000d8513          	mv	a0,s11
   1b020:	000d0593          	mv	a1,s10
   1b024:	5b4030ef          	jal	ra,1e5d8 <__umoddi3>
   1b028:	03050513          	addi	a0,a0,48
   1b02c:	fea98fa3          	sb	a0,-1(s3)
   1b030:	00140413          	addi	s0,s0,1
   1b034:	fff98993          	addi	s3,s3,-1
   1b038:	fa0c0ee3          	beqz	s8,1aff4 <_vfiprintf_r+0xe60>
   1b03c:	000ac783          	lbu	a5,0(s5)
   1b040:	fa879ae3          	bne	a5,s0,1aff4 <_vfiprintf_r+0xe60>
   1b044:	0ff00793          	li	a5,255
   1b048:	faf406e3          	beq	s0,a5,1aff4 <_vfiprintf_r+0xe60>
   1b04c:	640d1c63          	bnez	s10,1b6a4 <_vfiprintf_r+0x1510>
   1b050:	00900793          	li	a5,9
   1b054:	65b7e863          	bltu	a5,s11,1b6a4 <_vfiprintf_r+0x1510>
   1b058:	00098893          	mv	a7,s3
   1b05c:	03512623          	sw	s5,44(sp)
   1b060:	01012e83          	lw	t4,16(sp)
   1b064:	01812e03          	lw	t3,24(sp)
   1b068:	01c12803          	lw	a6,28(sp)
   1b06c:	02012c03          	lw	s8,32(sp)
   1b070:	02412403          	lw	s0,36(sp)
   1b074:	02812983          	lw	s3,40(sp)
   1b078:	03812a83          	lw	s5,56(sp)
   1b07c:	11010793          	addi	a5,sp,272
   1b080:	411786b3          	sub	a3,a5,a7
   1b084:	00068d13          	mv	s10,a3
   1b088:	9306dee3          	bge	a3,a6,1a9c4 <_vfiprintf_r+0x830>
   1b08c:	00080d13          	mv	s10,a6
   1b090:	935ff06f          	j	1a9c4 <_vfiprintf_r+0x830>
   1b094:	01000513          	li	a0,16
   1b098:	75b55863          	bge	a0,s11,1b7e8 <_vfiprintf_r+0x1654>
   1b09c:	000a8513          	mv	a0,s5
   1b0a0:	00007717          	auipc	a4,0x7
   1b0a4:	27c70713          	addi	a4,a4,636 # 2231c <blanks.1>
   1b0a8:	02d12e23          	sw	a3,60(sp)
   1b0ac:	000d8a93          	mv	s5,s11
   1b0b0:	000c0693          	mv	a3,s8
   1b0b4:	01000f13          	li	t5,16
   1b0b8:	00700393          	li	t2,7
   1b0bc:	01f12c23          	sw	t6,24(sp)
   1b0c0:	00512e23          	sw	t0,28(sp)
   1b0c4:	03112023          	sw	a7,32(sp)
   1b0c8:	03d12223          	sw	t4,36(sp)
   1b0cc:	03c12423          	sw	t3,40(sp)
   1b0d0:	03012c23          	sw	a6,56(sp)
   1b0d4:	00070c13          	mv	s8,a4
   1b0d8:	00050d93          	mv	s11,a0
   1b0dc:	01c0006f          	j	1b0f8 <_vfiprintf_r+0xf64>
   1b0e0:	00260513          	addi	a0,a2,2
   1b0e4:	00868693          	addi	a3,a3,8
   1b0e8:	00058613          	mv	a2,a1
   1b0ec:	ff0a8a93          	addi	s5,s5,-16
   1b0f0:	055f5c63          	bge	t5,s5,1b148 <_vfiprintf_r+0xfb4>
   1b0f4:	00160593          	addi	a1,a2,1
   1b0f8:	01078793          	addi	a5,a5,16
   1b0fc:	0186a023          	sw	s8,0(a3)
   1b100:	01e6a223          	sw	t5,4(a3)
   1b104:	06f12423          	sw	a5,104(sp)
   1b108:	06b12223          	sw	a1,100(sp)
   1b10c:	fcb3dae3          	bge	t2,a1,1b0e0 <_vfiprintf_r+0xf4c>
   1b110:	08078a63          	beqz	a5,1b1a4 <_vfiprintf_r+0x1010>
   1b114:	06010613          	addi	a2,sp,96
   1b118:	00098593          	mv	a1,s3
   1b11c:	00040513          	mv	a0,s0
   1b120:	f69fe0ef          	jal	ra,1a088 <__sprint_r.part.0>
   1b124:	d0051e63          	bnez	a0,1a640 <_vfiprintf_r+0x4ac>
   1b128:	06412603          	lw	a2,100(sp)
   1b12c:	01000f13          	li	t5,16
   1b130:	ff0a8a93          	addi	s5,s5,-16
   1b134:	06812783          	lw	a5,104(sp)
   1b138:	000a0693          	mv	a3,s4
   1b13c:	00160513          	addi	a0,a2,1
   1b140:	00700393          	li	t2,7
   1b144:	fb5f48e3          	blt	t5,s5,1b0f4 <_vfiprintf_r+0xf60>
   1b148:	000c0713          	mv	a4,s8
   1b14c:	01812f83          	lw	t6,24(sp)
   1b150:	00068c13          	mv	s8,a3
   1b154:	01c12283          	lw	t0,28(sp)
   1b158:	02012883          	lw	a7,32(sp)
   1b15c:	02412e83          	lw	t4,36(sp)
   1b160:	02812e03          	lw	t3,40(sp)
   1b164:	03812803          	lw	a6,56(sp)
   1b168:	03c12683          	lw	a3,60(sp)
   1b16c:	000d8613          	mv	a2,s11
   1b170:	000a8d93          	mv	s11,s5
   1b174:	00060a93          	mv	s5,a2
   1b178:	01b787b3          	add	a5,a5,s11
   1b17c:	00ec2023          	sw	a4,0(s8)
   1b180:	01bc2223          	sw	s11,4(s8)
   1b184:	06f12423          	sw	a5,104(sp)
   1b188:	06a12223          	sw	a0,100(sp)
   1b18c:	00700613          	li	a2,7
   1b190:	14a64463          	blt	a2,a0,1b2d8 <_vfiprintf_r+0x1144>
   1b194:	008c0c13          	addi	s8,s8,8
   1b198:	00150f13          	addi	t5,a0,1
   1b19c:	00050613          	mv	a2,a0
   1b1a0:	a10ff06f          	j	1a3b0 <_vfiprintf_r+0x21c>
   1b1a4:	00000613          	li	a2,0
   1b1a8:	00100513          	li	a0,1
   1b1ac:	000a0693          	mv	a3,s4
   1b1b0:	f3dff06f          	j	1b0ec <_vfiprintf_r+0xf58>
   1b1b4:	01ae5463          	bge	t3,s10,1b1bc <_vfiprintf_r+0x1028>
   1b1b8:	000d0e13          	mv	t3,s10
   1b1bc:	00c12783          	lw	a5,12(sp)
   1b1c0:	01c787b3          	add	a5,a5,t3
   1b1c4:	00f12623          	sw	a5,12(sp)
   1b1c8:	b24ff06f          	j	1a4ec <_vfiprintf_r+0x358>
   1b1cc:	a6078ce3          	beqz	a5,1ac44 <_vfiprintf_r+0xab0>
   1b1d0:	06010613          	addi	a2,sp,96
   1b1d4:	00098593          	mv	a1,s3
   1b1d8:	00040513          	mv	a0,s0
   1b1dc:	02d12223          	sw	a3,36(sp)
   1b1e0:	03c12023          	sw	t3,32(sp)
   1b1e4:	01d12e23          	sw	t4,28(sp)
   1b1e8:	01112c23          	sw	a7,24(sp)
   1b1ec:	e9dfe0ef          	jal	ra,1a088 <__sprint_r.part.0>
   1b1f0:	c4051863          	bnez	a0,1a640 <_vfiprintf_r+0x4ac>
   1b1f4:	06412f03          	lw	t5,100(sp)
   1b1f8:	06812783          	lw	a5,104(sp)
   1b1fc:	02412683          	lw	a3,36(sp)
   1b200:	02012e03          	lw	t3,32(sp)
   1b204:	01c12e83          	lw	t4,28(sp)
   1b208:	01812883          	lw	a7,24(sp)
   1b20c:	000a0c13          	mv	s8,s4
   1b210:	001f0f13          	addi	t5,t5,1
   1b214:	a64ff06f          	j	1a478 <_vfiprintf_r+0x2e4>
   1b218:	06012223          	sw	zero,100(sp)
   1b21c:	000a0c13          	mv	s8,s4
   1b220:	be4ff06f          	j	1a604 <_vfiprintf_r+0x470>
   1b224:	01077693          	andi	a3,a4,16
   1b228:	000aa783          	lw	a5,0(s5)
   1b22c:	004a8a93          	addi	s5,s5,4
   1b230:	14069e63          	bnez	a3,1b38c <_vfiprintf_r+0x11f8>
   1b234:	04077693          	andi	a3,a4,64
   1b238:	14068663          	beqz	a3,1b384 <_vfiprintf_r+0x11f0>
   1b23c:	01079793          	slli	a5,a5,0x10
   1b240:	0107d793          	srli	a5,a5,0x10
   1b244:	00000613          	li	a2,0
   1b248:	f34ff06f          	j	1a97c <_vfiprintf_r+0x7e8>
   1b24c:	010ef713          	andi	a4,t4,16
   1b250:	000aa783          	lw	a5,0(s5)
   1b254:	004a8a93          	addi	s5,s5,4
   1b258:	14071263          	bnez	a4,1b39c <_vfiprintf_r+0x1208>
   1b25c:	040ef713          	andi	a4,t4,64
   1b260:	12070a63          	beqz	a4,1b394 <_vfiprintf_r+0x1200>
   1b264:	01079d93          	slli	s11,a5,0x10
   1b268:	410ddd93          	srai	s11,s11,0x10
   1b26c:	41fddd13          	srai	s10,s11,0x1f
   1b270:	000d0713          	mv	a4,s10
   1b274:	f8075663          	bgez	a4,1aa00 <_vfiprintf_r+0x86c>
   1b278:	02d00693          	li	a3,45
   1b27c:	01b03733          	snez	a4,s11
   1b280:	41a000b3          	neg	ra,s10
   1b284:	04d101a3          	sb	a3,67(sp)
   1b288:	fff00693          	li	a3,-1
   1b28c:	40e08d33          	sub	s10,ra,a4
   1b290:	41b00db3          	neg	s11,s11
   1b294:	86d808e3          	beq	a6,a3,1ab04 <_vfiprintf_r+0x970>
   1b298:	f7fefe93          	andi	t4,t4,-129
   1b29c:	869ff06f          	j	1ab04 <_vfiprintf_r+0x970>
   1b2a0:	0106f713          	andi	a4,a3,16
   1b2a4:	000aa783          	lw	a5,0(s5)
   1b2a8:	004a8a93          	addi	s5,s5,4
   1b2ac:	0c071663          	bnez	a4,1b378 <_vfiprintf_r+0x11e4>
   1b2b0:	0406f713          	andi	a4,a3,64
   1b2b4:	0a070e63          	beqz	a4,1b370 <_vfiprintf_r+0x11dc>
   1b2b8:	01079d93          	slli	s11,a5,0x10
   1b2bc:	010ddd93          	srli	s11,s11,0x10
   1b2c0:	00000d13          	li	s10,0
   1b2c4:	821ff06f          	j	1aae4 <_vfiprintf_r+0x950>
   1b2c8:	00100f13          	li	t5,1
   1b2cc:	00000613          	li	a2,0
   1b2d0:	000a0c13          	mv	s8,s4
   1b2d4:	994ff06f          	j	1a468 <_vfiprintf_r+0x2d4>
   1b2d8:	18078e63          	beqz	a5,1b474 <_vfiprintf_r+0x12e0>
   1b2dc:	06010613          	addi	a2,sp,96
   1b2e0:	00098593          	mv	a1,s3
   1b2e4:	00040513          	mv	a0,s0
   1b2e8:	02d12e23          	sw	a3,60(sp)
   1b2ec:	03012c23          	sw	a6,56(sp)
   1b2f0:	03c12423          	sw	t3,40(sp)
   1b2f4:	03d12223          	sw	t4,36(sp)
   1b2f8:	03112023          	sw	a7,32(sp)
   1b2fc:	00512e23          	sw	t0,28(sp)
   1b300:	01f12c23          	sw	t6,24(sp)
   1b304:	d85fe0ef          	jal	ra,1a088 <__sprint_r.part.0>
   1b308:	b2051c63          	bnez	a0,1a640 <_vfiprintf_r+0x4ac>
   1b30c:	06412603          	lw	a2,100(sp)
   1b310:	06812783          	lw	a5,104(sp)
   1b314:	03c12683          	lw	a3,60(sp)
   1b318:	03812803          	lw	a6,56(sp)
   1b31c:	02812e03          	lw	t3,40(sp)
   1b320:	02412e83          	lw	t4,36(sp)
   1b324:	02012883          	lw	a7,32(sp)
   1b328:	01c12283          	lw	t0,28(sp)
   1b32c:	01812f83          	lw	t6,24(sp)
   1b330:	000a0c13          	mv	s8,s4
   1b334:	00160f13          	addi	t5,a2,1
   1b338:	878ff06f          	j	1a3b0 <_vfiprintf_r+0x21c>
   1b33c:	000d8e93          	mv	t4,s11
   1b340:	e9cff06f          	j	1a9dc <_vfiprintf_r+0x848>
   1b344:	00000d13          	li	s10,0
   1b348:	11010893          	addi	a7,sp,272
   1b34c:	e78ff06f          	j	1a9c4 <_vfiprintf_r+0x830>
   1b350:	0589a503          	lw	a0,88(s3)
   1b354:	fddfb0ef          	jal	ra,17330 <__retarget_lock_acquire_recursive>
   1b358:	00c99783          	lh	a5,12(s3)
   1b35c:	eb9fe06f          	j	1a214 <_vfiprintf_r+0x80>
   1b360:	008c0c13          	addi	s8,s8,8
   1b364:	00150f13          	addi	t5,a0,1
   1b368:	00050613          	mv	a2,a0
   1b36c:	904ff06f          	j	1a470 <_vfiprintf_r+0x2dc>
   1b370:	2006f713          	andi	a4,a3,512
   1b374:	42071063          	bnez	a4,1b794 <_vfiprintf_r+0x1600>
   1b378:	00078d93          	mv	s11,a5
   1b37c:	00000d13          	li	s10,0
   1b380:	f64ff06f          	j	1aae4 <_vfiprintf_r+0x950>
   1b384:	20077693          	andi	a3,a4,512
   1b388:	40069c63          	bnez	a3,1b7a0 <_vfiprintf_r+0x160c>
   1b38c:	00000613          	li	a2,0
   1b390:	decff06f          	j	1a97c <_vfiprintf_r+0x7e8>
   1b394:	200ef713          	andi	a4,t4,512
   1b398:	3c071e63          	bnez	a4,1b774 <_vfiprintf_r+0x15e0>
   1b39c:	41f7dd13          	srai	s10,a5,0x1f
   1b3a0:	00078d93          	mv	s11,a5
   1b3a4:	000d0713          	mv	a4,s10
   1b3a8:	e54ff06f          	j	1a9fc <_vfiprintf_r+0x868>
   1b3ac:	00c12683          	lw	a3,12(sp)
   1b3b0:	000aa783          	lw	a5,0(s5)
   1b3b4:	004a8a93          	addi	s5,s5,4
   1b3b8:	41f6d713          	srai	a4,a3,0x1f
   1b3bc:	00d7a023          	sw	a3,0(a5)
   1b3c0:	00e7a223          	sw	a4,4(a5)
   1b3c4:	ee1fe06f          	j	1a2a4 <_vfiprintf_r+0x110>
   1b3c8:	00000613          	li	a2,0
   1b3cc:	00100f13          	li	t5,1
   1b3d0:	000a0c13          	mv	s8,s4
   1b3d4:	894ff06f          	j	1a468 <_vfiprintf_r+0x2d4>
   1b3d8:	000aa783          	lw	a5,0(s5)
   1b3dc:	00100d13          	li	s10,1
   1b3e0:	00100693          	li	a3,1
   1b3e4:	0af10623          	sb	a5,172(sp)
   1b3e8:	0ac10593          	addi	a1,sp,172
   1b3ec:	ce4ff06f          	j	1a8d0 <_vfiprintf_r+0x73c>
   1b3f0:	00080d13          	mv	s10,a6
   1b3f4:	00058893          	mv	a7,a1
   1b3f8:	dccff06f          	j	1a9c4 <_vfiprintf_r+0x830>
   1b3fc:	000d8693          	mv	a3,s11
   1b400:	ec8ff06f          	j	1aac8 <_vfiprintf_r+0x934>
   1b404:	000d8713          	mv	a4,s11
   1b408:	d58ff06f          	j	1a960 <_vfiprintf_r+0x7cc>
   1b40c:	00006797          	auipc	a5,0x6
   1b410:	42878793          	addi	a5,a5,1064 # 21834 <__clzsi2+0xcc>
   1b414:	000d8e93          	mv	t4,s11
   1b418:	00f12a23          	sw	a5,20(sp)
   1b41c:	020ef793          	andi	a5,t4,32
   1b420:	1e078063          	beqz	a5,1b600 <_vfiprintf_r+0x146c>
   1b424:	007a8a93          	addi	s5,s5,7
   1b428:	ff8afa93          	andi	s5,s5,-8
   1b42c:	000aa783          	lw	a5,0(s5)
   1b430:	004aa603          	lw	a2,4(s5)
   1b434:	008a8a93          	addi	s5,s5,8
   1b438:	001ef693          	andi	a3,t4,1
   1b43c:	00068e63          	beqz	a3,1b458 <_vfiprintf_r+0x12c4>
   1b440:	00c7e6b3          	or	a3,a5,a2
   1b444:	00068a63          	beqz	a3,1b458 <_vfiprintf_r+0x12c4>
   1b448:	03000693          	li	a3,48
   1b44c:	04d10223          	sb	a3,68(sp)
   1b450:	04e102a3          	sb	a4,69(sp)
   1b454:	002eee93          	ori	t4,t4,2
   1b458:	bffefe93          	andi	t4,t4,-1025
   1b45c:	f00ff06f          	j	1ab5c <_vfiprintf_r+0x9c8>
   1b460:	00006797          	auipc	a5,0x6
   1b464:	3c078793          	addi	a5,a5,960 # 21820 <__clzsi2+0xb8>
   1b468:	000d8e93          	mv	t4,s11
   1b46c:	00f12a23          	sw	a5,20(sp)
   1b470:	fadff06f          	j	1b41c <_vfiprintf_r+0x1288>
   1b474:	04314603          	lbu	a2,67(sp)
   1b478:	2c060e63          	beqz	a2,1b754 <_vfiprintf_r+0x15c0>
   1b47c:	04310793          	addi	a5,sp,67
   1b480:	06f12623          	sw	a5,108(sp)
   1b484:	00100793          	li	a5,1
   1b488:	06f12823          	sw	a5,112(sp)
   1b48c:	00100f13          	li	t5,1
   1b490:	000a0c13          	mv	s8,s4
   1b494:	f49fe06f          	j	1a3dc <_vfiprintf_r+0x248>
   1b498:	00800613          	li	a2,8
   1b49c:	00000593          	li	a1,0
   1b4a0:	05810513          	addi	a0,sp,88
   1b4a4:	03012023          	sw	a6,32(sp)
   1b4a8:	01c12e23          	sw	t3,28(sp)
   1b4ac:	01d12c23          	sw	t4,24(sp)
   1b4b0:	05112623          	sw	a7,76(sp)
   1b4b4:	01112823          	sw	a7,16(sp)
   1b4b8:	f58f50ef          	jal	ra,10c10 <memset>
   1b4bc:	02012803          	lw	a6,32(sp)
   1b4c0:	fff00793          	li	a5,-1
   1b4c4:	01012883          	lw	a7,16(sp)
   1b4c8:	01812e83          	lw	t4,24(sp)
   1b4cc:	01c12e03          	lw	t3,28(sp)
   1b4d0:	20f80a63          	beq	a6,a5,1b6e4 <_vfiprintf_r+0x1550>
   1b4d4:	00000d93          	li	s11,0
   1b4d8:	00000693          	li	a3,0
   1b4dc:	03812023          	sw	s8,32(sp)
   1b4e0:	03512223          	sw	s5,36(sp)
   1b4e4:	000d8c13          	mv	s8,s11
   1b4e8:	fff00d13          	li	s10,-1
   1b4ec:	000c8d93          	mv	s11,s9
   1b4f0:	00068a93          	mv	s5,a3
   1b4f4:	00098c93          	mv	s9,s3
   1b4f8:	00080993          	mv	s3,a6
   1b4fc:	02c0006f          	j	1b528 <_vfiprintf_r+0x1394>
   1b500:	05810693          	addi	a3,sp,88
   1b504:	0ac10593          	addi	a1,sp,172
   1b508:	00040513          	mv	a0,s0
   1b50c:	dd4f80ef          	jal	ra,13ae0 <_wcrtomb_r>
   1b510:	3ba50a63          	beq	a0,s10,1b8c4 <_vfiprintf_r+0x1730>
   1b514:	00aa87b3          	add	a5,s5,a0
   1b518:	02f9c063          	blt	s3,a5,1b538 <_vfiprintf_r+0x13a4>
   1b51c:	004c0c13          	addi	s8,s8,4
   1b520:	37378e63          	beq	a5,s3,1b89c <_vfiprintf_r+0x1708>
   1b524:	00078a93          	mv	s5,a5
   1b528:	04c12783          	lw	a5,76(sp)
   1b52c:	018787b3          	add	a5,a5,s8
   1b530:	0007a603          	lw	a2,0(a5)
   1b534:	fc0616e3          	bnez	a2,1b500 <_vfiprintf_r+0x136c>
   1b538:	000a8693          	mv	a3,s5
   1b53c:	01012883          	lw	a7,16(sp)
   1b540:	01812e83          	lw	t4,24(sp)
   1b544:	01c12e03          	lw	t3,28(sp)
   1b548:	02012c03          	lw	s8,32(sp)
   1b54c:	02412a83          	lw	s5,36(sp)
   1b550:	000c8993          	mv	s3,s9
   1b554:	000d8c93          	mv	s9,s11
   1b558:	1c068a63          	beqz	a3,1b72c <_vfiprintf_r+0x1598>
   1b55c:	06300793          	li	a5,99
   1b560:	24d7da63          	bge	a5,a3,1b7b4 <_vfiprintf_r+0x1620>
   1b564:	00168593          	addi	a1,a3,1
   1b568:	00040513          	mv	a0,s0
   1b56c:	01c12e23          	sw	t3,28(sp)
   1b570:	01d12c23          	sw	t4,24(sp)
   1b574:	00d12823          	sw	a3,16(sp)
   1b578:	f19f40ef          	jal	ra,10490 <_malloc_r>
   1b57c:	01012683          	lw	a3,16(sp)
   1b580:	01812e83          	lw	t4,24(sp)
   1b584:	01c12e03          	lw	t3,28(sp)
   1b588:	00050893          	mv	a7,a0
   1b58c:	34050663          	beqz	a0,1b8d8 <_vfiprintf_r+0x1744>
   1b590:	00a12823          	sw	a0,16(sp)
   1b594:	00800613          	li	a2,8
   1b598:	00000593          	li	a1,0
   1b59c:	05810513          	addi	a0,sp,88
   1b5a0:	03c12223          	sw	t3,36(sp)
   1b5a4:	03d12023          	sw	t4,32(sp)
   1b5a8:	00d12e23          	sw	a3,28(sp)
   1b5ac:	01112c23          	sw	a7,24(sp)
   1b5b0:	e60f50ef          	jal	ra,10c10 <memset>
   1b5b4:	01812883          	lw	a7,24(sp)
   1b5b8:	01c12683          	lw	a3,28(sp)
   1b5bc:	05810713          	addi	a4,sp,88
   1b5c0:	00088593          	mv	a1,a7
   1b5c4:	04c10613          	addi	a2,sp,76
   1b5c8:	00040513          	mv	a0,s0
   1b5cc:	e38f80ef          	jal	ra,13c04 <_wcsrtombs_r>
   1b5d0:	01c12683          	lw	a3,28(sp)
   1b5d4:	01812883          	lw	a7,24(sp)
   1b5d8:	02012e83          	lw	t4,32(sp)
   1b5dc:	02412e03          	lw	t3,36(sp)
   1b5e0:	32a69263          	bne	a3,a0,1b904 <_vfiprintf_r+0x1770>
   1b5e4:	fff6c713          	not	a4,a3
   1b5e8:	00d887b3          	add	a5,a7,a3
   1b5ec:	41f75713          	srai	a4,a4,0x1f
   1b5f0:	00078023          	sb	zero,0(a5)
   1b5f4:	00e6fd33          	and	s10,a3,a4
   1b5f8:	00000813          	li	a6,0
   1b5fc:	bccff06f          	j	1a9c8 <_vfiprintf_r+0x834>
   1b600:	010ef693          	andi	a3,t4,16
   1b604:	000aa783          	lw	a5,0(s5)
   1b608:	004a8a93          	addi	s5,s5,4
   1b60c:	02069263          	bnez	a3,1b630 <_vfiprintf_r+0x149c>
   1b610:	040ef693          	andi	a3,t4,64
   1b614:	00068a63          	beqz	a3,1b628 <_vfiprintf_r+0x1494>
   1b618:	01079793          	slli	a5,a5,0x10
   1b61c:	0107d793          	srli	a5,a5,0x10
   1b620:	00000613          	li	a2,0
   1b624:	e15ff06f          	j	1b438 <_vfiprintf_r+0x12a4>
   1b628:	200ef693          	andi	a3,t4,512
   1b62c:	14069e63          	bnez	a3,1b788 <_vfiprintf_r+0x15f4>
   1b630:	00000613          	li	a2,0
   1b634:	e05ff06f          	j	1b438 <_vfiprintf_r+0x12a4>
   1b638:	00070e93          	mv	t4,a4
   1b63c:	00000713          	li	a4,0
   1b640:	d4070e63          	beqz	a4,1ab9c <_vfiprintf_r+0xa08>
   1b644:	929ff06f          	j	1af6c <_vfiprintf_r+0xdd8>
   1b648:	001cc703          	lbu	a4,1(s9)
   1b64c:	200ded93          	ori	s11,s11,512
   1b650:	001c8c93          	addi	s9,s9,1
   1b654:	cb9fe06f          	j	1a30c <_vfiprintf_r+0x178>
   1b658:	001cc703          	lbu	a4,1(s9)
   1b65c:	020ded93          	ori	s11,s11,32
   1b660:	001c8c93          	addi	s9,s9,1
   1b664:	ca9fe06f          	j	1a30c <_vfiprintf_r+0x178>
   1b668:	000aa783          	lw	a5,0(s5)
   1b66c:	00c12703          	lw	a4,12(sp)
   1b670:	004a8a93          	addi	s5,s5,4
   1b674:	00e7a023          	sw	a4,0(a5)
   1b678:	c2dfe06f          	j	1a2a4 <_vfiprintf_r+0x110>
   1b67c:	00600793          	li	a5,6
   1b680:	00080693          	mv	a3,a6
   1b684:	0d07e463          	bltu	a5,a6,1b74c <_vfiprintf_r+0x15b8>
   1b688:	00068d13          	mv	s10,a3
   1b68c:	00006897          	auipc	a7,0x6
   1b690:	1bc88893          	addi	a7,a7,444 # 21848 <__clzsi2+0xe0>
   1b694:	ce9fe06f          	j	1a37c <_vfiprintf_r+0x1e8>
   1b698:	00000793          	li	a5,0
   1b69c:	00000613          	li	a2,0
   1b6a0:	8cdff06f          	j	1af6c <_vfiprintf_r+0xdd8>
   1b6a4:	03012783          	lw	a5,48(sp)
   1b6a8:	03412583          	lw	a1,52(sp)
   1b6ac:	00000413          	li	s0,0
   1b6b0:	40f989b3          	sub	s3,s3,a5
   1b6b4:	00078613          	mv	a2,a5
   1b6b8:	00098513          	mv	a0,s3
   1b6bc:	e84fe0ef          	jal	ra,19d40 <strncpy>
   1b6c0:	001ac783          	lbu	a5,1(s5)
   1b6c4:	00a00613          	li	a2,10
   1b6c8:	00000693          	li	a3,0
   1b6cc:	00f037b3          	snez	a5,a5
   1b6d0:	000d8513          	mv	a0,s11
   1b6d4:	000d0593          	mv	a1,s10
   1b6d8:	00fa8ab3          	add	s5,s5,a5
   1b6dc:	0a5020ef          	jal	ra,1df80 <__udivdi3>
   1b6e0:	92dff06f          	j	1b00c <_vfiprintf_r+0xe78>
   1b6e4:	00000693          	li	a3,0
   1b6e8:	05810713          	addi	a4,sp,88
   1b6ec:	04c10613          	addi	a2,sp,76
   1b6f0:	00000593          	li	a1,0
   1b6f4:	00040513          	mv	a0,s0
   1b6f8:	03012023          	sw	a6,32(sp)
   1b6fc:	01c12e23          	sw	t3,28(sp)
   1b700:	01d12c23          	sw	t4,24(sp)
   1b704:	01112823          	sw	a7,16(sp)
   1b708:	cfcf80ef          	jal	ra,13c04 <_wcsrtombs_r>
   1b70c:	02012803          	lw	a6,32(sp)
   1b710:	01012883          	lw	a7,16(sp)
   1b714:	01812e83          	lw	t4,24(sp)
   1b718:	01c12e03          	lw	t3,28(sp)
   1b71c:	00050693          	mv	a3,a0
   1b720:	1b050c63          	beq	a0,a6,1b8d8 <_vfiprintf_r+0x1744>
   1b724:	05112623          	sw	a7,76(sp)
   1b728:	e31ff06f          	j	1b558 <_vfiprintf_r+0x13c4>
   1b72c:	00000d13          	li	s10,0
   1b730:	00000813          	li	a6,0
   1b734:	00012823          	sw	zero,16(sp)
   1b738:	a90ff06f          	j	1a9c8 <_vfiprintf_r+0x834>
   1b73c:	00100f13          	li	t5,1
   1b740:	00000613          	li	a2,0
   1b744:	000a0c13          	mv	s8,s4
   1b748:	d29fe06f          	j	1a470 <_vfiprintf_r+0x2dc>
   1b74c:	00600693          	li	a3,6
   1b750:	f39ff06f          	j	1b688 <_vfiprintf_r+0x14f4>
   1b754:	00100f13          	li	t5,1
   1b758:	000a0c13          	mv	s8,s4
   1b75c:	c8dfe06f          	j	1a3e8 <_vfiprintf_r+0x254>
   1b760:	000aa783          	lw	a5,0(s5)
   1b764:	00c12703          	lw	a4,12(sp)
   1b768:	004a8a93          	addi	s5,s5,4
   1b76c:	00e79023          	sh	a4,0(a5)
   1b770:	b35fe06f          	j	1a2a4 <_vfiprintf_r+0x110>
   1b774:	01879d93          	slli	s11,a5,0x18
   1b778:	418ddd93          	srai	s11,s11,0x18
   1b77c:	41fddd13          	srai	s10,s11,0x1f
   1b780:	000d0713          	mv	a4,s10
   1b784:	a78ff06f          	j	1a9fc <_vfiprintf_r+0x868>
   1b788:	0ff7f793          	zext.b	a5,a5
   1b78c:	00000613          	li	a2,0
   1b790:	ca9ff06f          	j	1b438 <_vfiprintf_r+0x12a4>
   1b794:	0ff7fd93          	zext.b	s11,a5
   1b798:	00000d13          	li	s10,0
   1b79c:	b48ff06f          	j	1aae4 <_vfiprintf_r+0x950>
   1b7a0:	0ff7f793          	zext.b	a5,a5
   1b7a4:	00000613          	li	a2,0
   1b7a8:	9d4ff06f          	j	1a97c <_vfiprintf_r+0x7e8>
   1b7ac:	03000793          	li	a5,48
   1b7b0:	b68ff06f          	j	1ab18 <_vfiprintf_r+0x984>
   1b7b4:	00012823          	sw	zero,16(sp)
   1b7b8:	0ac10893          	addi	a7,sp,172
   1b7bc:	dd9ff06f          	j	1b594 <_vfiprintf_r+0x1400>
   1b7c0:	0589a503          	lw	a0,88(s3)
   1b7c4:	b85fb0ef          	jal	ra,17348 <__retarget_lock_release_recursive>
   1b7c8:	d89fe06f          	j	1a550 <_vfiprintf_r+0x3bc>
   1b7cc:	00080d13          	mv	s10,a6
   1b7d0:	00080693          	mv	a3,a6
   1b7d4:	00000813          	li	a6,0
   1b7d8:	9f0ff06f          	j	1a9c8 <_vfiprintf_r+0x834>
   1b7dc:	00900793          	li	a5,9
   1b7e0:	83b7e6e3          	bltu	a5,s11,1b00c <_vfiprintf_r+0xe78>
   1b7e4:	875ff06f          	j	1b058 <_vfiprintf_r+0xec4>
   1b7e8:	00058513          	mv	a0,a1
   1b7ec:	00007717          	auipc	a4,0x7
   1b7f0:	b3070713          	addi	a4,a4,-1232 # 2231c <blanks.1>
   1b7f4:	985ff06f          	j	1b178 <_vfiprintf_r+0xfe4>
   1b7f8:	00088513          	mv	a0,a7
   1b7fc:	03c12023          	sw	t3,32(sp)
   1b800:	01112c23          	sw	a7,24(sp)
   1b804:	01b12e23          	sw	s11,28(sp)
   1b808:	c30fe0ef          	jal	ra,19c38 <strlen>
   1b80c:	fff54713          	not	a4,a0
   1b810:	41f75713          	srai	a4,a4,0x1f
   1b814:	01812883          	lw	a7,24(sp)
   1b818:	01c12e83          	lw	t4,28(sp)
   1b81c:	02012e03          	lw	t3,32(sp)
   1b820:	00050693          	mv	a3,a0
   1b824:	00e57d33          	and	s10,a0,a4
   1b828:	00000813          	li	a6,0
   1b82c:	00012823          	sw	zero,16(sp)
   1b830:	998ff06f          	j	1a9c8 <_vfiprintf_r+0x834>
   1b834:	06010613          	addi	a2,sp,96
   1b838:	00098593          	mv	a1,s3
   1b83c:	00040513          	mv	a0,s0
   1b840:	849fe0ef          	jal	ra,1a088 <__sprint_r.part.0>
   1b844:	00051463          	bnez	a0,1b84c <_vfiprintf_r+0x16b8>
   1b848:	dd9fe06f          	j	1a620 <_vfiprintf_r+0x48c>
   1b84c:	e09fe06f          	j	1a654 <_vfiprintf_r+0x4c0>
   1b850:	00160593          	addi	a1,a2,1
   1b854:	00007717          	auipc	a4,0x7
   1b858:	ac870713          	addi	a4,a4,-1336 # 2231c <blanks.1>
   1b85c:	f19fe06f          	j	1a774 <_vfiprintf_r+0x5e0>
   1b860:	000f0513          	mv	a0,t5
   1b864:	00007f97          	auipc	t6,0x7
   1b868:	aa8f8f93          	addi	t6,t6,-1368 # 2230c <zeroes.0>
   1b86c:	ce8ff06f          	j	1ad54 <_vfiprintf_r+0xbc0>
   1b870:	0649a783          	lw	a5,100(s3)
   1b874:	0017f793          	andi	a5,a5,1
   1b878:	00079c63          	bnez	a5,1b890 <_vfiprintf_r+0x16fc>
   1b87c:	00c9d783          	lhu	a5,12(s3)
   1b880:	2007f793          	andi	a5,a5,512
   1b884:	00079663          	bnez	a5,1b890 <_vfiprintf_r+0x16fc>
   1b888:	0589a503          	lw	a0,88(s3)
   1b88c:	abdfb0ef          	jal	ra,17348 <__retarget_lock_release_recursive>
   1b890:	fff00793          	li	a5,-1
   1b894:	00f12623          	sw	a5,12(sp)
   1b898:	dd9fe06f          	j	1a670 <_vfiprintf_r+0x4dc>
   1b89c:	00098813          	mv	a6,s3
   1b8a0:	01012883          	lw	a7,16(sp)
   1b8a4:	000c8993          	mv	s3,s9
   1b8a8:	01812e83          	lw	t4,24(sp)
   1b8ac:	01c12e03          	lw	t3,28(sp)
   1b8b0:	02012c03          	lw	s8,32(sp)
   1b8b4:	02412a83          	lw	s5,36(sp)
   1b8b8:	000d8c93          	mv	s9,s11
   1b8bc:	00080693          	mv	a3,a6
   1b8c0:	c99ff06f          	j	1b558 <_vfiprintf_r+0x13c4>
   1b8c4:	00cc9783          	lh	a5,12(s9)
   1b8c8:	000c8993          	mv	s3,s9
   1b8cc:	0407e793          	ori	a5,a5,64
   1b8d0:	00fc9623          	sh	a5,12(s9)
   1b8d4:	d85fe06f          	j	1a658 <_vfiprintf_r+0x4c4>
   1b8d8:	00c99783          	lh	a5,12(s3)
   1b8dc:	0407e793          	ori	a5,a5,64
   1b8e0:	00f99623          	sh	a5,12(s3)
   1b8e4:	d75fe06f          	j	1a658 <_vfiprintf_r+0x4c4>
   1b8e8:	000aa803          	lw	a6,0(s5)
   1b8ec:	004a8a93          	addi	s5,s5,4
   1b8f0:	00085463          	bgez	a6,1b8f8 <_vfiprintf_r+0x1764>
   1b8f4:	fff00813          	li	a6,-1
   1b8f8:	001cc703          	lbu	a4,1(s9)
   1b8fc:	00068c93          	mv	s9,a3
   1b900:	a0dfe06f          	j	1a30c <_vfiprintf_r+0x178>
   1b904:	00c9d783          	lhu	a5,12(s3)
   1b908:	0407e793          	ori	a5,a5,64
   1b90c:	00f99623          	sh	a5,12(s3)
   1b910:	d31fe06f          	j	1a640 <_vfiprintf_r+0x4ac>

0001b914 <vfiprintf>:
   1b914:	00060693          	mv	a3,a2
   1b918:	00058613          	mv	a2,a1
   1b91c:	00050593          	mv	a1,a0
   1b920:	2301a503          	lw	a0,560(gp) # 23af0 <_impure_ptr>
   1b924:	871fe06f          	j	1a194 <_vfiprintf_r>

0001b928 <__sbprintf>:
   1b928:	00c59783          	lh	a5,12(a1)
   1b92c:	00e5d703          	lhu	a4,14(a1)
   1b930:	b7010113          	addi	sp,sp,-1168
   1b934:	ffd7f793          	andi	a5,a5,-3
   1b938:	01079793          	slli	a5,a5,0x10
   1b93c:	0645a883          	lw	a7,100(a1)
   1b940:	01c5a803          	lw	a6,28(a1)
   1b944:	48812423          	sw	s0,1160(sp)
   1b948:	01071713          	slli	a4,a4,0x10
   1b94c:	00058413          	mv	s0,a1
   1b950:	0107d793          	srli	a5,a5,0x10
   1b954:	0245a583          	lw	a1,36(a1)
   1b958:	00e7e7b3          	or	a5,a5,a4
   1b95c:	49212023          	sw	s2,1152(sp)
   1b960:	40000713          	li	a4,1024
   1b964:	00050913          	mv	s2,a0
   1b968:	00f12a23          	sw	a5,20(sp)
   1b96c:	06010513          	addi	a0,sp,96
   1b970:	07010793          	addi	a5,sp,112
   1b974:	48112623          	sw	ra,1164(sp)
   1b978:	48912223          	sw	s1,1156(sp)
   1b97c:	47312e23          	sw	s3,1148(sp)
   1b980:	00060493          	mv	s1,a2
   1b984:	00068993          	mv	s3,a3
   1b988:	07112623          	sw	a7,108(sp)
   1b98c:	03012223          	sw	a6,36(sp)
   1b990:	02b12623          	sw	a1,44(sp)
   1b994:	00f12423          	sw	a5,8(sp)
   1b998:	00f12c23          	sw	a5,24(sp)
   1b99c:	00e12823          	sw	a4,16(sp)
   1b9a0:	00e12e23          	sw	a4,28(sp)
   1b9a4:	02012023          	sw	zero,32(sp)
   1b9a8:	979fb0ef          	jal	ra,17320 <__retarget_lock_init_recursive>
   1b9ac:	00048613          	mv	a2,s1
   1b9b0:	00098693          	mv	a3,s3
   1b9b4:	00810593          	addi	a1,sp,8
   1b9b8:	00090513          	mv	a0,s2
   1b9bc:	fd8fe0ef          	jal	ra,1a194 <_vfiprintf_r>
   1b9c0:	00050493          	mv	s1,a0
   1b9c4:	04055263          	bgez	a0,1ba08 <__sbprintf+0xe0>
   1b9c8:	01415783          	lhu	a5,20(sp)
   1b9cc:	0407f793          	andi	a5,a5,64
   1b9d0:	00078863          	beqz	a5,1b9e0 <__sbprintf+0xb8>
   1b9d4:	00c45783          	lhu	a5,12(s0)
   1b9d8:	0407e793          	ori	a5,a5,64
   1b9dc:	00f41623          	sh	a5,12(s0)
   1b9e0:	06012503          	lw	a0,96(sp)
   1b9e4:	945fb0ef          	jal	ra,17328 <__retarget_lock_close_recursive>
   1b9e8:	48c12083          	lw	ra,1164(sp)
   1b9ec:	48812403          	lw	s0,1160(sp)
   1b9f0:	48012903          	lw	s2,1152(sp)
   1b9f4:	47c12983          	lw	s3,1148(sp)
   1b9f8:	00048513          	mv	a0,s1
   1b9fc:	48412483          	lw	s1,1156(sp)
   1ba00:	49010113          	addi	sp,sp,1168
   1ba04:	00008067          	ret
   1ba08:	00810593          	addi	a1,sp,8
   1ba0c:	00090513          	mv	a0,s2
   1ba10:	8e0fa0ef          	jal	ra,15af0 <_fflush_r>
   1ba14:	fa050ae3          	beqz	a0,1b9c8 <__sbprintf+0xa0>
   1ba18:	fff00493          	li	s1,-1
   1ba1c:	fadff06f          	j	1b9c8 <__sbprintf+0xa0>

0001ba20 <_wcsnrtombs_l>:
   1ba20:	fa010113          	addi	sp,sp,-96
   1ba24:	04912a23          	sw	s1,84(sp)
   1ba28:	05212823          	sw	s2,80(sp)
   1ba2c:	05312623          	sw	s3,76(sp)
   1ba30:	05412423          	sw	s4,72(sp)
   1ba34:	05512223          	sw	s5,68(sp)
   1ba38:	04112e23          	sw	ra,92(sp)
   1ba3c:	04812c23          	sw	s0,88(sp)
   1ba40:	05612023          	sw	s6,64(sp)
   1ba44:	03712e23          	sw	s7,60(sp)
   1ba48:	03812c23          	sw	s8,56(sp)
   1ba4c:	03912a23          	sw	s9,52(sp)
   1ba50:	03a12823          	sw	s10,48(sp)
   1ba54:	03b12623          	sw	s11,44(sp)
   1ba58:	00a12623          	sw	a0,12(sp)
   1ba5c:	00058a13          	mv	s4,a1
   1ba60:	00060a93          	mv	s5,a2
   1ba64:	00070913          	mv	s2,a4
   1ba68:	00080993          	mv	s3,a6
   1ba6c:	00078493          	mv	s1,a5
   1ba70:	10078663          	beqz	a5,1bb7c <_wcsnrtombs_l+0x15c>
   1ba74:	000aac83          	lw	s9,0(s5)
   1ba78:	100a0863          	beqz	s4,1bb88 <_wcsnrtombs_l+0x168>
   1ba7c:	14090263          	beqz	s2,1bbc0 <_wcsnrtombs_l+0x1a0>
   1ba80:	fff68b13          	addi	s6,a3,-1
   1ba84:	12068e63          	beqz	a3,1bbc0 <_wcsnrtombs_l+0x1a0>
   1ba88:	000a0413          	mv	s0,s4
   1ba8c:	00000d13          	li	s10,0
   1ba90:	fff00d93          	li	s11,-1
   1ba94:	0240006f          	j	1bab8 <_wcsnrtombs_l+0x98>
   1ba98:	080a1a63          	bnez	s4,1bb2c <_wcsnrtombs_l+0x10c>
   1ba9c:	000ca783          	lw	a5,0(s9)
   1baa0:	004c8c93          	addi	s9,s9,4
   1baa4:	0c078263          	beqz	a5,1bb68 <_wcsnrtombs_l+0x148>
   1baa8:	1326f063          	bgeu	a3,s2,1bbc8 <_wcsnrtombs_l+0x1a8>
   1baac:	fffb0b13          	addi	s6,s6,-1
   1bab0:	00068d13          	mv	s10,a3
   1bab4:	03bb0c63          	beq	s6,s11,1baec <_wcsnrtombs_l+0xcc>
   1bab8:	0e09a783          	lw	a5,224(s3)
   1babc:	000ca603          	lw	a2,0(s9)
   1bac0:	00c12503          	lw	a0,12(sp)
   1bac4:	00048693          	mv	a3,s1
   1bac8:	01410593          	addi	a1,sp,20
   1bacc:	0004ac03          	lw	s8,0(s1)
   1bad0:	0044ab83          	lw	s7,4(s1)
   1bad4:	000780e7          	jalr	a5
   1bad8:	0bb50c63          	beq	a0,s11,1bb90 <_wcsnrtombs_l+0x170>
   1badc:	01a506b3          	add	a3,a0,s10
   1bae0:	fad97ce3          	bgeu	s2,a3,1ba98 <_wcsnrtombs_l+0x78>
   1bae4:	0184a023          	sw	s8,0(s1)
   1bae8:	0174a223          	sw	s7,4(s1)
   1baec:	05c12083          	lw	ra,92(sp)
   1baf0:	05812403          	lw	s0,88(sp)
   1baf4:	05412483          	lw	s1,84(sp)
   1baf8:	05012903          	lw	s2,80(sp)
   1bafc:	04c12983          	lw	s3,76(sp)
   1bb00:	04812a03          	lw	s4,72(sp)
   1bb04:	04412a83          	lw	s5,68(sp)
   1bb08:	04012b03          	lw	s6,64(sp)
   1bb0c:	03c12b83          	lw	s7,60(sp)
   1bb10:	03812c03          	lw	s8,56(sp)
   1bb14:	03412c83          	lw	s9,52(sp)
   1bb18:	02c12d83          	lw	s11,44(sp)
   1bb1c:	000d0513          	mv	a0,s10
   1bb20:	03012d03          	lw	s10,48(sp)
   1bb24:	06010113          	addi	sp,sp,96
   1bb28:	00008067          	ret
   1bb2c:	06a05e63          	blez	a0,1bba8 <_wcsnrtombs_l+0x188>
   1bb30:	01410893          	addi	a7,sp,20
   1bb34:	00a40533          	add	a0,s0,a0
   1bb38:	0008c783          	lbu	a5,0(a7)
   1bb3c:	00140413          	addi	s0,s0,1
   1bb40:	00188893          	addi	a7,a7,1
   1bb44:	fef40fa3          	sb	a5,-1(s0)
   1bb48:	fe8518e3          	bne	a0,s0,1bb38 <_wcsnrtombs_l+0x118>
   1bb4c:	000aa783          	lw	a5,0(s5)
   1bb50:	00050413          	mv	s0,a0
   1bb54:	00478793          	addi	a5,a5,4
   1bb58:	00faa023          	sw	a5,0(s5)
   1bb5c:	000ca783          	lw	a5,0(s9)
   1bb60:	004c8c93          	addi	s9,s9,4
   1bb64:	f40792e3          	bnez	a5,1baa8 <_wcsnrtombs_l+0x88>
   1bb68:	000a0463          	beqz	s4,1bb70 <_wcsnrtombs_l+0x150>
   1bb6c:	000aa023          	sw	zero,0(s5)
   1bb70:	0004a023          	sw	zero,0(s1)
   1bb74:	fff68d13          	addi	s10,a3,-1
   1bb78:	f75ff06f          	j	1baec <_wcsnrtombs_l+0xcc>
   1bb7c:	000aac83          	lw	s9,0(s5)
   1bb80:	11c50493          	addi	s1,a0,284
   1bb84:	ee0a1ce3          	bnez	s4,1ba7c <_wcsnrtombs_l+0x5c>
   1bb88:	fff00913          	li	s2,-1
   1bb8c:	ef5ff06f          	j	1ba80 <_wcsnrtombs_l+0x60>
   1bb90:	00c12703          	lw	a4,12(sp)
   1bb94:	08a00793          	li	a5,138
   1bb98:	fff00d13          	li	s10,-1
   1bb9c:	00f72023          	sw	a5,0(a4)
   1bba0:	0004a023          	sw	zero,0(s1)
   1bba4:	f49ff06f          	j	1baec <_wcsnrtombs_l+0xcc>
   1bba8:	000aa783          	lw	a5,0(s5)
   1bbac:	00040513          	mv	a0,s0
   1bbb0:	00050413          	mv	s0,a0
   1bbb4:	00478793          	addi	a5,a5,4
   1bbb8:	00faa023          	sw	a5,0(s5)
   1bbbc:	fa1ff06f          	j	1bb5c <_wcsnrtombs_l+0x13c>
   1bbc0:	00000d13          	li	s10,0
   1bbc4:	f29ff06f          	j	1baec <_wcsnrtombs_l+0xcc>
   1bbc8:	00068d13          	mv	s10,a3
   1bbcc:	f21ff06f          	j	1baec <_wcsnrtombs_l+0xcc>

0001bbd0 <_wcsnrtombs_r>:
   1bbd0:	03018813          	addi	a6,gp,48 # 238f0 <__global_locale>
   1bbd4:	2301a503          	lw	a0,560(gp) # 23af0 <_impure_ptr>
   1bbd8:	e49ff06f          	j	1ba20 <_wcsnrtombs_l>

0001bbdc <wcsnrtombs>:
   1bbdc:	00070793          	mv	a5,a4
   1bbe0:	03018813          	addi	a6,gp,48 # 238f0 <__global_locale>
   1bbe4:	00068713          	mv	a4,a3
   1bbe8:	00060693          	mv	a3,a2
   1bbec:	00058613          	mv	a2,a1
   1bbf0:	00050593          	mv	a1,a0
   1bbf4:	2301a503          	lw	a0,560(gp) # 23af0 <_impure_ptr>
   1bbf8:	e29ff06f          	j	1ba20 <_wcsnrtombs_l>

0001bbfc <_wctomb_r>:
   1bbfc:	1101a783          	lw	a5,272(gp) # 239d0 <__global_locale+0xe0>
   1bc00:	00078067          	jr	a5

0001bc04 <__ascii_wctomb>:
   1bc04:	02058463          	beqz	a1,1bc2c <__ascii_wctomb+0x28>
   1bc08:	0ff00793          	li	a5,255
   1bc0c:	00c7e863          	bltu	a5,a2,1bc1c <__ascii_wctomb+0x18>
   1bc10:	00c58023          	sb	a2,0(a1)
   1bc14:	00100513          	li	a0,1
   1bc18:	00008067          	ret
   1bc1c:	08a00793          	li	a5,138
   1bc20:	00f52023          	sw	a5,0(a0)
   1bc24:	fff00513          	li	a0,-1
   1bc28:	00008067          	ret
   1bc2c:	00000513          	li	a0,0
   1bc30:	00008067          	ret

0001bc34 <__utf8_wctomb>:
   1bc34:	0a058263          	beqz	a1,1bcd8 <__utf8_wctomb+0xa4>
   1bc38:	07f00793          	li	a5,127
   1bc3c:	06c7f863          	bgeu	a5,a2,1bcac <__utf8_wctomb+0x78>
   1bc40:	f8060793          	addi	a5,a2,-128
   1bc44:	77f00713          	li	a4,1919
   1bc48:	06f77863          	bgeu	a4,a5,1bcb8 <__utf8_wctomb+0x84>
   1bc4c:	0000f7b7          	lui	a5,0xf
   1bc50:	80060713          	addi	a4,a2,-2048
   1bc54:	7ff78793          	addi	a5,a5,2047 # f7ff <exit-0x895>
   1bc58:	08e7f463          	bgeu	a5,a4,1bce0 <__utf8_wctomb+0xac>
   1bc5c:	ffff07b7          	lui	a5,0xffff0
   1bc60:	00f607b3          	add	a5,a2,a5
   1bc64:	00100737          	lui	a4,0x100
   1bc68:	0ae7f463          	bgeu	a5,a4,1bd10 <__utf8_wctomb+0xdc>
   1bc6c:	00c65713          	srli	a4,a2,0xc
   1bc70:	00665793          	srli	a5,a2,0x6
   1bc74:	01265693          	srli	a3,a2,0x12
   1bc78:	03f77713          	andi	a4,a4,63
   1bc7c:	03f7f793          	andi	a5,a5,63
   1bc80:	03f67613          	andi	a2,a2,63
   1bc84:	ff06e693          	ori	a3,a3,-16
   1bc88:	f8076713          	ori	a4,a4,-128
   1bc8c:	f807e793          	ori	a5,a5,-128
   1bc90:	f8066613          	ori	a2,a2,-128
   1bc94:	00d58023          	sb	a3,0(a1)
   1bc98:	00e580a3          	sb	a4,1(a1)
   1bc9c:	00f58123          	sb	a5,2(a1)
   1bca0:	00c581a3          	sb	a2,3(a1)
   1bca4:	00400513          	li	a0,4
   1bca8:	00008067          	ret
   1bcac:	00c58023          	sb	a2,0(a1)
   1bcb0:	00100513          	li	a0,1
   1bcb4:	00008067          	ret
   1bcb8:	00665793          	srli	a5,a2,0x6
   1bcbc:	03f67613          	andi	a2,a2,63
   1bcc0:	fc07e793          	ori	a5,a5,-64
   1bcc4:	f8066613          	ori	a2,a2,-128
   1bcc8:	00f58023          	sb	a5,0(a1)
   1bccc:	00c580a3          	sb	a2,1(a1)
   1bcd0:	00200513          	li	a0,2
   1bcd4:	00008067          	ret
   1bcd8:	00000513          	li	a0,0
   1bcdc:	00008067          	ret
   1bce0:	00665793          	srli	a5,a2,0x6
   1bce4:	00c65713          	srli	a4,a2,0xc
   1bce8:	03f7f793          	andi	a5,a5,63
   1bcec:	03f67613          	andi	a2,a2,63
   1bcf0:	fe076713          	ori	a4,a4,-32
   1bcf4:	f807e793          	ori	a5,a5,-128
   1bcf8:	f8066613          	ori	a2,a2,-128
   1bcfc:	00e58023          	sb	a4,0(a1)
   1bd00:	00f580a3          	sb	a5,1(a1)
   1bd04:	00c58123          	sb	a2,2(a1)
   1bd08:	00300513          	li	a0,3
   1bd0c:	00008067          	ret
   1bd10:	08a00793          	li	a5,138
   1bd14:	00f52023          	sw	a5,0(a0)
   1bd18:	fff00513          	li	a0,-1
   1bd1c:	00008067          	ret

0001bd20 <__sjis_wctomb>:
   1bd20:	00865793          	srli	a5,a2,0x8
   1bd24:	0ff7f793          	zext.b	a5,a5
   1bd28:	0ff67613          	zext.b	a2,a2
   1bd2c:	06058063          	beqz	a1,1bd8c <__sjis_wctomb+0x6c>
   1bd30:	04078863          	beqz	a5,1bd80 <__sjis_wctomb+0x60>
   1bd34:	07f78713          	addi	a4,a5,127 # ffff007f <__BSS_END__+0xfffcc24f>
   1bd38:	0ff77713          	zext.b	a4,a4
   1bd3c:	01e00693          	li	a3,30
   1bd40:	00e6fa63          	bgeu	a3,a4,1bd54 <__sjis_wctomb+0x34>
   1bd44:	02078713          	addi	a4,a5,32
   1bd48:	0ff77713          	zext.b	a4,a4
   1bd4c:	00f00693          	li	a3,15
   1bd50:	04e6e263          	bltu	a3,a4,1bd94 <__sjis_wctomb+0x74>
   1bd54:	fc060713          	addi	a4,a2,-64
   1bd58:	0ff77713          	zext.b	a4,a4
   1bd5c:	03e00693          	li	a3,62
   1bd60:	00e6f863          	bgeu	a3,a4,1bd70 <__sjis_wctomb+0x50>
   1bd64:	08064713          	xori	a4,a2,128
   1bd68:	07c00693          	li	a3,124
   1bd6c:	02e6e463          	bltu	a3,a4,1bd94 <__sjis_wctomb+0x74>
   1bd70:	00f58023          	sb	a5,0(a1)
   1bd74:	00c580a3          	sb	a2,1(a1)
   1bd78:	00200513          	li	a0,2
   1bd7c:	00008067          	ret
   1bd80:	00c58023          	sb	a2,0(a1)
   1bd84:	00100513          	li	a0,1
   1bd88:	00008067          	ret
   1bd8c:	00000513          	li	a0,0
   1bd90:	00008067          	ret
   1bd94:	08a00793          	li	a5,138
   1bd98:	00f52023          	sw	a5,0(a0)
   1bd9c:	fff00513          	li	a0,-1
   1bda0:	00008067          	ret

0001bda4 <__eucjp_wctomb>:
   1bda4:	00865793          	srli	a5,a2,0x8
   1bda8:	0ff7f793          	zext.b	a5,a5
   1bdac:	0ff67613          	zext.b	a2,a2
   1bdb0:	06058c63          	beqz	a1,1be28 <__eucjp_wctomb+0x84>
   1bdb4:	04078c63          	beqz	a5,1be0c <__eucjp_wctomb+0x68>
   1bdb8:	07278713          	addi	a4,a5,114
   1bdbc:	0ff77713          	zext.b	a4,a4
   1bdc0:	00100693          	li	a3,1
   1bdc4:	06e6f663          	bgeu	a3,a4,1be30 <__eucjp_wctomb+0x8c>
   1bdc8:	05f78713          	addi	a4,a5,95
   1bdcc:	0ff77713          	zext.b	a4,a4
   1bdd0:	05d00693          	li	a3,93
   1bdd4:	06e6e663          	bltu	a3,a4,1be40 <__eucjp_wctomb+0x9c>
   1bdd8:	05f60713          	addi	a4,a2,95
   1bddc:	0ff77713          	zext.b	a4,a4
   1bde0:	02e6fc63          	bgeu	a3,a4,1be18 <__eucjp_wctomb+0x74>
   1bde4:	08066613          	ori	a2,a2,128
   1bde8:	05f60713          	addi	a4,a2,95
   1bdec:	0ff77713          	zext.b	a4,a4
   1bdf0:	04e6e863          	bltu	a3,a4,1be40 <__eucjp_wctomb+0x9c>
   1bdf4:	f8f00713          	li	a4,-113
   1bdf8:	00e58023          	sb	a4,0(a1)
   1bdfc:	00f580a3          	sb	a5,1(a1)
   1be00:	00c58123          	sb	a2,2(a1)
   1be04:	00300513          	li	a0,3
   1be08:	00008067          	ret
   1be0c:	00c58023          	sb	a2,0(a1)
   1be10:	00100513          	li	a0,1
   1be14:	00008067          	ret
   1be18:	00f58023          	sb	a5,0(a1)
   1be1c:	00c580a3          	sb	a2,1(a1)
   1be20:	00200513          	li	a0,2
   1be24:	00008067          	ret
   1be28:	00000513          	li	a0,0
   1be2c:	00008067          	ret
   1be30:	05f60713          	addi	a4,a2,95
   1be34:	0ff77713          	zext.b	a4,a4
   1be38:	05d00693          	li	a3,93
   1be3c:	fce6fee3          	bgeu	a3,a4,1be18 <__eucjp_wctomb+0x74>
   1be40:	08a00793          	li	a5,138
   1be44:	00f52023          	sw	a5,0(a0)
   1be48:	fff00513          	li	a0,-1
   1be4c:	00008067          	ret

0001be50 <__jis_wctomb>:
   1be50:	00865793          	srli	a5,a2,0x8
   1be54:	0ff7f793          	zext.b	a5,a5
   1be58:	0ff67613          	zext.b	a2,a2
   1be5c:	08058e63          	beqz	a1,1bef8 <__jis_wctomb+0xa8>
   1be60:	06078063          	beqz	a5,1bec0 <__jis_wctomb+0x70>
   1be64:	fdf78713          	addi	a4,a5,-33
   1be68:	0ff77713          	zext.b	a4,a4
   1be6c:	05d00813          	li	a6,93
   1be70:	08e86863          	bltu	a6,a4,1bf00 <__jis_wctomb+0xb0>
   1be74:	fdf60713          	addi	a4,a2,-33
   1be78:	0ff77713          	zext.b	a4,a4
   1be7c:	08e86263          	bltu	a6,a4,1bf00 <__jis_wctomb+0xb0>
   1be80:	0006a703          	lw	a4,0(a3)
   1be84:	00200513          	li	a0,2
   1be88:	02071663          	bnez	a4,1beb4 <__jis_wctomb+0x64>
   1be8c:	00100713          	li	a4,1
   1be90:	00e6a023          	sw	a4,0(a3)
   1be94:	01b00713          	li	a4,27
   1be98:	00e58023          	sb	a4,0(a1)
   1be9c:	02400713          	li	a4,36
   1bea0:	00e580a3          	sb	a4,1(a1)
   1bea4:	04200713          	li	a4,66
   1bea8:	00e58123          	sb	a4,2(a1)
   1beac:	00500513          	li	a0,5
   1beb0:	00358593          	addi	a1,a1,3
   1beb4:	00f58023          	sb	a5,0(a1)
   1beb8:	00c580a3          	sb	a2,1(a1)
   1bebc:	00008067          	ret
   1bec0:	0006a783          	lw	a5,0(a3)
   1bec4:	00100513          	li	a0,1
   1bec8:	02078463          	beqz	a5,1bef0 <__jis_wctomb+0xa0>
   1becc:	0006a023          	sw	zero,0(a3)
   1bed0:	01b00793          	li	a5,27
   1bed4:	00f58023          	sb	a5,0(a1)
   1bed8:	02800793          	li	a5,40
   1bedc:	00f580a3          	sb	a5,1(a1)
   1bee0:	04200793          	li	a5,66
   1bee4:	00f58123          	sb	a5,2(a1)
   1bee8:	00400513          	li	a0,4
   1beec:	00358593          	addi	a1,a1,3
   1bef0:	00c58023          	sb	a2,0(a1)
   1bef4:	00008067          	ret
   1bef8:	00100513          	li	a0,1
   1befc:	00008067          	ret
   1bf00:	08a00793          	li	a5,138
   1bf04:	00f52023          	sw	a5,0(a0)
   1bf08:	fff00513          	li	a0,-1
   1bf0c:	00008067          	ret

0001bf10 <_write_r>:
   1bf10:	ff010113          	addi	sp,sp,-16
   1bf14:	00058713          	mv	a4,a1
   1bf18:	00812423          	sw	s0,8(sp)
   1bf1c:	00060593          	mv	a1,a2
   1bf20:	00050413          	mv	s0,a0
   1bf24:	00068613          	mv	a2,a3
   1bf28:	00070513          	mv	a0,a4
   1bf2c:	2601ae23          	sw	zero,636(gp) # 23b3c <errno>
   1bf30:	00112623          	sw	ra,12(sp)
   1bf34:	761010ef          	jal	ra,1de94 <_write>
   1bf38:	fff00793          	li	a5,-1
   1bf3c:	00f50a63          	beq	a0,a5,1bf50 <_write_r+0x40>
   1bf40:	00c12083          	lw	ra,12(sp)
   1bf44:	00812403          	lw	s0,8(sp)
   1bf48:	01010113          	addi	sp,sp,16
   1bf4c:	00008067          	ret
   1bf50:	27c1a783          	lw	a5,636(gp) # 23b3c <errno>
   1bf54:	fe0786e3          	beqz	a5,1bf40 <_write_r+0x30>
   1bf58:	00c12083          	lw	ra,12(sp)
   1bf5c:	00f42023          	sw	a5,0(s0)
   1bf60:	00812403          	lw	s0,8(sp)
   1bf64:	01010113          	addi	sp,sp,16
   1bf68:	00008067          	ret

0001bf6c <__assert_func>:
   1bf6c:	ff010113          	addi	sp,sp,-16
   1bf70:	00068793          	mv	a5,a3
   1bf74:	2301a703          	lw	a4,560(gp) # 23af0 <_impure_ptr>
   1bf78:	00060813          	mv	a6,a2
   1bf7c:	00112623          	sw	ra,12(sp)
   1bf80:	00c72883          	lw	a7,12(a4) # 10000c <__BSS_END__+0xdc1dc>
   1bf84:	00078613          	mv	a2,a5
   1bf88:	00050693          	mv	a3,a0
   1bf8c:	00058713          	mv	a4,a1
   1bf90:	00006797          	auipc	a5,0x6
   1bf94:	39c78793          	addi	a5,a5,924 # 2232c <blanks.1+0x10>
   1bf98:	00080c63          	beqz	a6,1bfb0 <__assert_func+0x44>
   1bf9c:	00006597          	auipc	a1,0x6
   1bfa0:	3a058593          	addi	a1,a1,928 # 2233c <blanks.1+0x20>
   1bfa4:	00088513          	mv	a0,a7
   1bfa8:	40c000ef          	jal	ra,1c3b4 <fiprintf>
   1bfac:	704010ef          	jal	ra,1d6b0 <abort>
   1bfb0:	00006797          	auipc	a5,0x6
   1bfb4:	38878793          	addi	a5,a5,904 # 22338 <blanks.1+0x1c>
   1bfb8:	00078813          	mv	a6,a5
   1bfbc:	fe1ff06f          	j	1bf9c <__assert_func+0x30>

0001bfc0 <__assert>:
   1bfc0:	ff010113          	addi	sp,sp,-16
   1bfc4:	00060693          	mv	a3,a2
   1bfc8:	00000613          	li	a2,0
   1bfcc:	00112623          	sw	ra,12(sp)
   1bfd0:	f9dff0ef          	jal	ra,1bf6c <__assert_func>

0001bfd4 <_calloc_r>:
   1bfd4:	fe010113          	addi	sp,sp,-32
   1bfd8:	00812c23          	sw	s0,24(sp)
   1bfdc:	00112e23          	sw	ra,28(sp)
   1bfe0:	00912a23          	sw	s1,20(sp)
   1bfe4:	01212823          	sw	s2,16(sp)
   1bfe8:	01312623          	sw	s3,12(sp)
   1bfec:	0105d693          	srli	a3,a1,0x10
   1bff0:	00058793          	mv	a5,a1
   1bff4:	00050413          	mv	s0,a0
   1bff8:	01065713          	srli	a4,a2,0x10
   1bffc:	0c069c63          	bnez	a3,1c0d4 <_calloc_r+0x100>
   1c000:	16071063          	bnez	a4,1c160 <_calloc_r+0x18c>
   1c004:	01061593          	slli	a1,a2,0x10
   1c008:	01079513          	slli	a0,a5,0x10
   1c00c:	0105d593          	srli	a1,a1,0x10
   1c010:	01055513          	srli	a0,a0,0x10
   1c014:	67c050ef          	jal	ra,21690 <__mulsi3>
   1c018:	00050593          	mv	a1,a0
   1c01c:	00040513          	mv	a0,s0
   1c020:	c70f40ef          	jal	ra,10490 <_malloc_r>
   1c024:	00050413          	mv	s0,a0
   1c028:	10050a63          	beqz	a0,1c13c <_calloc_r+0x168>
   1c02c:	ffc52603          	lw	a2,-4(a0)
   1c030:	02400713          	li	a4,36
   1c034:	ffc67613          	andi	a2,a2,-4
   1c038:	ffc60613          	addi	a2,a2,-4
   1c03c:	04c76e63          	bltu	a4,a2,1c098 <_calloc_r+0xc4>
   1c040:	01300693          	li	a3,19
   1c044:	00050793          	mv	a5,a0
   1c048:	02c6f263          	bgeu	a3,a2,1c06c <_calloc_r+0x98>
   1c04c:	00052023          	sw	zero,0(a0)
   1c050:	00052223          	sw	zero,4(a0)
   1c054:	01b00793          	li	a5,27
   1c058:	06c7f463          	bgeu	a5,a2,1c0c0 <_calloc_r+0xec>
   1c05c:	00052423          	sw	zero,8(a0)
   1c060:	00052623          	sw	zero,12(a0)
   1c064:	01050793          	addi	a5,a0,16
   1c068:	10e60263          	beq	a2,a4,1c16c <_calloc_r+0x198>
   1c06c:	0007a023          	sw	zero,0(a5)
   1c070:	0007a223          	sw	zero,4(a5)
   1c074:	0007a423          	sw	zero,8(a5)
   1c078:	01c12083          	lw	ra,28(sp)
   1c07c:	00040513          	mv	a0,s0
   1c080:	01812403          	lw	s0,24(sp)
   1c084:	01412483          	lw	s1,20(sp)
   1c088:	01012903          	lw	s2,16(sp)
   1c08c:	00c12983          	lw	s3,12(sp)
   1c090:	02010113          	addi	sp,sp,32
   1c094:	00008067          	ret
   1c098:	00000593          	li	a1,0
   1c09c:	b75f40ef          	jal	ra,10c10 <memset>
   1c0a0:	01c12083          	lw	ra,28(sp)
   1c0a4:	00040513          	mv	a0,s0
   1c0a8:	01812403          	lw	s0,24(sp)
   1c0ac:	01412483          	lw	s1,20(sp)
   1c0b0:	01012903          	lw	s2,16(sp)
   1c0b4:	00c12983          	lw	s3,12(sp)
   1c0b8:	02010113          	addi	sp,sp,32
   1c0bc:	00008067          	ret
   1c0c0:	00850793          	addi	a5,a0,8
   1c0c4:	0007a023          	sw	zero,0(a5)
   1c0c8:	0007a223          	sw	zero,4(a5)
   1c0cc:	0007a423          	sw	zero,8(a5)
   1c0d0:	fa9ff06f          	j	1c078 <_calloc_r+0xa4>
   1c0d4:	0a071463          	bnez	a4,1c17c <_calloc_r+0x1a8>
   1c0d8:	00068913          	mv	s2,a3
   1c0dc:	00060993          	mv	s3,a2
   1c0e0:	01079513          	slli	a0,a5,0x10
   1c0e4:	01061593          	slli	a1,a2,0x10
   1c0e8:	0105d593          	srli	a1,a1,0x10
   1c0ec:	01055513          	srli	a0,a0,0x10
   1c0f0:	5a0050ef          	jal	ra,21690 <__mulsi3>
   1c0f4:	00050493          	mv	s1,a0
   1c0f8:	01091593          	slli	a1,s2,0x10
   1c0fc:	01099513          	slli	a0,s3,0x10
   1c100:	0105d593          	srli	a1,a1,0x10
   1c104:	01055513          	srli	a0,a0,0x10
   1c108:	588050ef          	jal	ra,21690 <__mulsi3>
   1c10c:	0104d793          	srli	a5,s1,0x10
   1c110:	00f505b3          	add	a1,a0,a5
   1c114:	0105d793          	srli	a5,a1,0x10
   1c118:	06079263          	bnez	a5,1c17c <_calloc_r+0x1a8>
   1c11c:	01049493          	slli	s1,s1,0x10
   1c120:	01059593          	slli	a1,a1,0x10
   1c124:	0104d493          	srli	s1,s1,0x10
   1c128:	00040513          	mv	a0,s0
   1c12c:	0095e5b3          	or	a1,a1,s1
   1c130:	b60f40ef          	jal	ra,10490 <_malloc_r>
   1c134:	00050413          	mv	s0,a0
   1c138:	ee051ae3          	bnez	a0,1c02c <_calloc_r+0x58>
   1c13c:	00000413          	li	s0,0
   1c140:	01c12083          	lw	ra,28(sp)
   1c144:	00040513          	mv	a0,s0
   1c148:	01812403          	lw	s0,24(sp)
   1c14c:	01412483          	lw	s1,20(sp)
   1c150:	01012903          	lw	s2,16(sp)
   1c154:	00c12983          	lw	s3,12(sp)
   1c158:	02010113          	addi	sp,sp,32
   1c15c:	00008067          	ret
   1c160:	00070913          	mv	s2,a4
   1c164:	00058993          	mv	s3,a1
   1c168:	f79ff06f          	j	1c0e0 <_calloc_r+0x10c>
   1c16c:	00052823          	sw	zero,16(a0)
   1c170:	01850793          	addi	a5,a0,24
   1c174:	00052a23          	sw	zero,20(a0)
   1c178:	ef5ff06f          	j	1c06c <_calloc_r+0x98>
   1c17c:	074000ef          	jal	ra,1c1f0 <__errno>
   1c180:	00c00793          	li	a5,12
   1c184:	00f52023          	sw	a5,0(a0)
   1c188:	00000413          	li	s0,0
   1c18c:	fb5ff06f          	j	1c140 <_calloc_r+0x16c>

0001c190 <_close_r>:
   1c190:	ff010113          	addi	sp,sp,-16
   1c194:	00812423          	sw	s0,8(sp)
   1c198:	00050413          	mv	s0,a0
   1c19c:	00058513          	mv	a0,a1
   1c1a0:	2601ae23          	sw	zero,636(gp) # 23b3c <errno>
   1c1a4:	00112623          	sw	ra,12(sp)
   1c1a8:	2a9010ef          	jal	ra,1dc50 <_close>
   1c1ac:	fff00793          	li	a5,-1
   1c1b0:	00f50a63          	beq	a0,a5,1c1c4 <_close_r+0x34>
   1c1b4:	00c12083          	lw	ra,12(sp)
   1c1b8:	00812403          	lw	s0,8(sp)
   1c1bc:	01010113          	addi	sp,sp,16
   1c1c0:	00008067          	ret
   1c1c4:	27c1a783          	lw	a5,636(gp) # 23b3c <errno>
   1c1c8:	fe0786e3          	beqz	a5,1c1b4 <_close_r+0x24>
   1c1cc:	00c12083          	lw	ra,12(sp)
   1c1d0:	00f42023          	sw	a5,0(s0)
   1c1d4:	00812403          	lw	s0,8(sp)
   1c1d8:	01010113          	addi	sp,sp,16
   1c1dc:	00008067          	ret

0001c1e0 <__set_ctype>:
   1c1e0:	00006797          	auipc	a5,0x6
   1c1e4:	18c78793          	addi	a5,a5,396 # 2236c <_ctype_>
   1c1e8:	0ef52623          	sw	a5,236(a0)
   1c1ec:	00008067          	ret

0001c1f0 <__errno>:
   1c1f0:	2301a503          	lw	a0,560(gp) # 23af0 <_impure_ptr>
   1c1f4:	00008067          	ret

0001c1f8 <_fclose_r>:
   1c1f8:	ff010113          	addi	sp,sp,-16
   1c1fc:	00112623          	sw	ra,12(sp)
   1c200:	00812423          	sw	s0,8(sp)
   1c204:	00912223          	sw	s1,4(sp)
   1c208:	01212023          	sw	s2,0(sp)
   1c20c:	0c058a63          	beqz	a1,1c2e0 <_fclose_r+0xe8>
   1c210:	00058413          	mv	s0,a1
   1c214:	00050493          	mv	s1,a0
   1c218:	00050663          	beqz	a0,1c224 <_fclose_r+0x2c>
   1c21c:	03852783          	lw	a5,56(a0)
   1c220:	0e078063          	beqz	a5,1c300 <_fclose_r+0x108>
   1c224:	06442783          	lw	a5,100(s0)
   1c228:	00c41703          	lh	a4,12(s0)
   1c22c:	0017f793          	andi	a5,a5,1
   1c230:	0a079663          	bnez	a5,1c2dc <_fclose_r+0xe4>
   1c234:	20077713          	andi	a4,a4,512
   1c238:	10070063          	beqz	a4,1c338 <_fclose_r+0x140>
   1c23c:	00040593          	mv	a1,s0
   1c240:	00048513          	mv	a0,s1
   1c244:	e60f90ef          	jal	ra,158a4 <__sflush_r>
   1c248:	02c42783          	lw	a5,44(s0)
   1c24c:	00050913          	mv	s2,a0
   1c250:	00078a63          	beqz	a5,1c264 <_fclose_r+0x6c>
   1c254:	01c42583          	lw	a1,28(s0)
   1c258:	00048513          	mv	a0,s1
   1c25c:	000780e7          	jalr	a5
   1c260:	0a054c63          	bltz	a0,1c318 <_fclose_r+0x120>
   1c264:	00c45783          	lhu	a5,12(s0)
   1c268:	0807f793          	andi	a5,a5,128
   1c26c:	0a079e63          	bnez	a5,1c328 <_fclose_r+0x130>
   1c270:	03042583          	lw	a1,48(s0)
   1c274:	00058c63          	beqz	a1,1c28c <_fclose_r+0x94>
   1c278:	04040793          	addi	a5,s0,64
   1c27c:	00f58663          	beq	a1,a5,1c288 <_fclose_r+0x90>
   1c280:	00048513          	mv	a0,s1
   1c284:	fb9f90ef          	jal	ra,1623c <_free_r>
   1c288:	02042823          	sw	zero,48(s0)
   1c28c:	04442583          	lw	a1,68(s0)
   1c290:	00058863          	beqz	a1,1c2a0 <_fclose_r+0xa8>
   1c294:	00048513          	mv	a0,s1
   1c298:	fa5f90ef          	jal	ra,1623c <_free_r>
   1c29c:	04042223          	sw	zero,68(s0)
   1c2a0:	dfdf90ef          	jal	ra,1609c <__sfp_lock_acquire>
   1c2a4:	06442783          	lw	a5,100(s0)
   1c2a8:	00041623          	sh	zero,12(s0)
   1c2ac:	0017f793          	andi	a5,a5,1
   1c2b0:	0a078a63          	beqz	a5,1c364 <_fclose_r+0x16c>
   1c2b4:	05842503          	lw	a0,88(s0)
   1c2b8:	870fb0ef          	jal	ra,17328 <__retarget_lock_close_recursive>
   1c2bc:	de9f90ef          	jal	ra,160a4 <__sfp_lock_release>
   1c2c0:	00c12083          	lw	ra,12(sp)
   1c2c4:	00812403          	lw	s0,8(sp)
   1c2c8:	00412483          	lw	s1,4(sp)
   1c2cc:	00090513          	mv	a0,s2
   1c2d0:	00012903          	lw	s2,0(sp)
   1c2d4:	01010113          	addi	sp,sp,16
   1c2d8:	00008067          	ret
   1c2dc:	f60710e3          	bnez	a4,1c23c <_fclose_r+0x44>
   1c2e0:	00000913          	li	s2,0
   1c2e4:	00c12083          	lw	ra,12(sp)
   1c2e8:	00812403          	lw	s0,8(sp)
   1c2ec:	00412483          	lw	s1,4(sp)
   1c2f0:	00090513          	mv	a0,s2
   1c2f4:	00012903          	lw	s2,0(sp)
   1c2f8:	01010113          	addi	sp,sp,16
   1c2fc:	00008067          	ret
   1c300:	aa9f90ef          	jal	ra,15da8 <__sinit>
   1c304:	06442783          	lw	a5,100(s0)
   1c308:	00c41703          	lh	a4,12(s0)
   1c30c:	0017f793          	andi	a5,a5,1
   1c310:	fc0796e3          	bnez	a5,1c2dc <_fclose_r+0xe4>
   1c314:	f21ff06f          	j	1c234 <_fclose_r+0x3c>
   1c318:	00c45783          	lhu	a5,12(s0)
   1c31c:	fff00913          	li	s2,-1
   1c320:	0807f793          	andi	a5,a5,128
   1c324:	f40786e3          	beqz	a5,1c270 <_fclose_r+0x78>
   1c328:	01042583          	lw	a1,16(s0)
   1c32c:	00048513          	mv	a0,s1
   1c330:	f0df90ef          	jal	ra,1623c <_free_r>
   1c334:	f3dff06f          	j	1c270 <_fclose_r+0x78>
   1c338:	05842503          	lw	a0,88(s0)
   1c33c:	ff5fa0ef          	jal	ra,17330 <__retarget_lock_acquire_recursive>
   1c340:	00c41783          	lh	a5,12(s0)
   1c344:	ee079ce3          	bnez	a5,1c23c <_fclose_r+0x44>
   1c348:	06442783          	lw	a5,100(s0)
   1c34c:	0017f793          	andi	a5,a5,1
   1c350:	f80798e3          	bnez	a5,1c2e0 <_fclose_r+0xe8>
   1c354:	05842503          	lw	a0,88(s0)
   1c358:	00000913          	li	s2,0
   1c35c:	fedfa0ef          	jal	ra,17348 <__retarget_lock_release_recursive>
   1c360:	f85ff06f          	j	1c2e4 <_fclose_r+0xec>
   1c364:	05842503          	lw	a0,88(s0)
   1c368:	fe1fa0ef          	jal	ra,17348 <__retarget_lock_release_recursive>
   1c36c:	f49ff06f          	j	1c2b4 <_fclose_r+0xbc>

0001c370 <fclose>:
   1c370:	00050593          	mv	a1,a0
   1c374:	2301a503          	lw	a0,560(gp) # 23af0 <_impure_ptr>
   1c378:	e81ff06f          	j	1c1f8 <_fclose_r>

0001c37c <_fiprintf_r>:
   1c37c:	fc010113          	addi	sp,sp,-64
   1c380:	02c10313          	addi	t1,sp,44
   1c384:	02d12623          	sw	a3,44(sp)
   1c388:	00030693          	mv	a3,t1
   1c38c:	00112e23          	sw	ra,28(sp)
   1c390:	02e12823          	sw	a4,48(sp)
   1c394:	02f12a23          	sw	a5,52(sp)
   1c398:	03012c23          	sw	a6,56(sp)
   1c39c:	03112e23          	sw	a7,60(sp)
   1c3a0:	00612623          	sw	t1,12(sp)
   1c3a4:	df1fd0ef          	jal	ra,1a194 <_vfiprintf_r>
   1c3a8:	01c12083          	lw	ra,28(sp)
   1c3ac:	04010113          	addi	sp,sp,64
   1c3b0:	00008067          	ret

0001c3b4 <fiprintf>:
   1c3b4:	fc010113          	addi	sp,sp,-64
   1c3b8:	02810313          	addi	t1,sp,40
   1c3bc:	02c12423          	sw	a2,40(sp)
   1c3c0:	02d12623          	sw	a3,44(sp)
   1c3c4:	00058613          	mv	a2,a1
   1c3c8:	00030693          	mv	a3,t1
   1c3cc:	00050593          	mv	a1,a0
   1c3d0:	2301a503          	lw	a0,560(gp) # 23af0 <_impure_ptr>
   1c3d4:	00112e23          	sw	ra,28(sp)
   1c3d8:	02e12823          	sw	a4,48(sp)
   1c3dc:	02f12a23          	sw	a5,52(sp)
   1c3e0:	03012c23          	sw	a6,56(sp)
   1c3e4:	03112e23          	sw	a7,60(sp)
   1c3e8:	00612623          	sw	t1,12(sp)
   1c3ec:	da9fd0ef          	jal	ra,1a194 <_vfiprintf_r>
   1c3f0:	01c12083          	lw	ra,28(sp)
   1c3f4:	04010113          	addi	sp,sp,64
   1c3f8:	00008067          	ret

0001c3fc <__fputwc>:
   1c3fc:	fc010113          	addi	sp,sp,-64
   1c400:	02812c23          	sw	s0,56(sp)
   1c404:	03412423          	sw	s4,40(sp)
   1c408:	03512223          	sw	s5,36(sp)
   1c40c:	02112e23          	sw	ra,60(sp)
   1c410:	02912a23          	sw	s1,52(sp)
   1c414:	03212823          	sw	s2,48(sp)
   1c418:	03312623          	sw	s3,44(sp)
   1c41c:	03612023          	sw	s6,32(sp)
   1c420:	01712e23          	sw	s7,28(sp)
   1c424:	00050a13          	mv	s4,a0
   1c428:	00058a93          	mv	s5,a1
   1c42c:	00060413          	mv	s0,a2
   1c430:	ed5fa0ef          	jal	ra,17304 <__locale_mb_cur_max>
   1c434:	00100793          	li	a5,1
   1c438:	02f51063          	bne	a0,a5,1c458 <__fputwc+0x5c>
   1c43c:	fffa8793          	addi	a5,s5,-1
   1c440:	0fe00713          	li	a4,254
   1c444:	00f76a63          	bltu	a4,a5,1c458 <__fputwc+0x5c>
   1c448:	01510423          	sb	s5,8(sp)
   1c44c:	00100993          	li	s3,1
   1c450:	00810493          	addi	s1,sp,8
   1c454:	02c0006f          	j	1c480 <__fputwc+0x84>
   1c458:	00810493          	addi	s1,sp,8
   1c45c:	05c40693          	addi	a3,s0,92
   1c460:	000a8613          	mv	a2,s5
   1c464:	00048593          	mv	a1,s1
   1c468:	000a0513          	mv	a0,s4
   1c46c:	e74f70ef          	jal	ra,13ae0 <_wcrtomb_r>
   1c470:	fff00793          	li	a5,-1
   1c474:	00050993          	mv	s3,a0
   1c478:	0af50063          	beq	a0,a5,1c518 <__fputwc+0x11c>
   1c47c:	08050a63          	beqz	a0,1c510 <__fputwc+0x114>
   1c480:	00000913          	li	s2,0
   1c484:	fff00b13          	li	s6,-1
   1c488:	00a00b93          	li	s7,10
   1c48c:	0200006f          	j	1c4ac <__fputwc+0xb0>
   1c490:	00042783          	lw	a5,0(s0)
   1c494:	00178693          	addi	a3,a5,1
   1c498:	00d42023          	sw	a3,0(s0)
   1c49c:	00e78023          	sb	a4,0(a5)
   1c4a0:	00190913          	addi	s2,s2,1
   1c4a4:	00148493          	addi	s1,s1,1
   1c4a8:	07397463          	bgeu	s2,s3,1c510 <__fputwc+0x114>
   1c4ac:	00842783          	lw	a5,8(s0)
   1c4b0:	0004c703          	lbu	a4,0(s1)
   1c4b4:	fff78793          	addi	a5,a5,-1
   1c4b8:	00f42423          	sw	a5,8(s0)
   1c4bc:	fc07dae3          	bgez	a5,1c490 <__fputwc+0x94>
   1c4c0:	01842683          	lw	a3,24(s0)
   1c4c4:	00040613          	mv	a2,s0
   1c4c8:	00070593          	mv	a1,a4
   1c4cc:	000a0513          	mv	a0,s4
   1c4d0:	00d7c463          	blt	a5,a3,1c4d8 <__fputwc+0xdc>
   1c4d4:	fb771ee3          	bne	a4,s7,1c490 <__fputwc+0x94>
   1c4d8:	054010ef          	jal	ra,1d52c <__swbuf_r>
   1c4dc:	fd6512e3          	bne	a0,s6,1c4a0 <__fputwc+0xa4>
   1c4e0:	fff00513          	li	a0,-1
   1c4e4:	03c12083          	lw	ra,60(sp)
   1c4e8:	03812403          	lw	s0,56(sp)
   1c4ec:	03412483          	lw	s1,52(sp)
   1c4f0:	03012903          	lw	s2,48(sp)
   1c4f4:	02c12983          	lw	s3,44(sp)
   1c4f8:	02812a03          	lw	s4,40(sp)
   1c4fc:	02412a83          	lw	s5,36(sp)
   1c500:	02012b03          	lw	s6,32(sp)
   1c504:	01c12b83          	lw	s7,28(sp)
   1c508:	04010113          	addi	sp,sp,64
   1c50c:	00008067          	ret
   1c510:	000a8513          	mv	a0,s5
   1c514:	fd1ff06f          	j	1c4e4 <__fputwc+0xe8>
   1c518:	00c45783          	lhu	a5,12(s0)
   1c51c:	0407e793          	ori	a5,a5,64
   1c520:	00f41623          	sh	a5,12(s0)
   1c524:	fbdff06f          	j	1c4e0 <__fputwc+0xe4>

0001c528 <_fputwc_r>:
   1c528:	06462783          	lw	a5,100(a2)
   1c52c:	fe010113          	addi	sp,sp,-32
   1c530:	00812c23          	sw	s0,24(sp)
   1c534:	00912a23          	sw	s1,20(sp)
   1c538:	0017f713          	andi	a4,a5,1
   1c53c:	00112e23          	sw	ra,28(sp)
   1c540:	00c61783          	lh	a5,12(a2)
   1c544:	00060413          	mv	s0,a2
   1c548:	00050493          	mv	s1,a0
   1c54c:	00071663          	bnez	a4,1c558 <_fputwc_r+0x30>
   1c550:	2007f713          	andi	a4,a5,512
   1c554:	08070463          	beqz	a4,1c5dc <_fputwc_r+0xb4>
   1c558:	01279713          	slli	a4,a5,0x12
   1c55c:	02074063          	bltz	a4,1c57c <_fputwc_r+0x54>
   1c560:	06442703          	lw	a4,100(s0)
   1c564:	000026b7          	lui	a3,0x2
   1c568:	00d7e7b3          	or	a5,a5,a3
   1c56c:	000026b7          	lui	a3,0x2
   1c570:	00d76733          	or	a4,a4,a3
   1c574:	00f41623          	sh	a5,12(s0)
   1c578:	06e42223          	sw	a4,100(s0)
   1c57c:	00048513          	mv	a0,s1
   1c580:	00040613          	mv	a2,s0
   1c584:	e79ff0ef          	jal	ra,1c3fc <__fputwc>
   1c588:	06442783          	lw	a5,100(s0)
   1c58c:	00050493          	mv	s1,a0
   1c590:	0017f793          	andi	a5,a5,1
   1c594:	00079863          	bnez	a5,1c5a4 <_fputwc_r+0x7c>
   1c598:	00c45783          	lhu	a5,12(s0)
   1c59c:	2007f793          	andi	a5,a5,512
   1c5a0:	00078e63          	beqz	a5,1c5bc <_fputwc_r+0x94>
   1c5a4:	01c12083          	lw	ra,28(sp)
   1c5a8:	01812403          	lw	s0,24(sp)
   1c5ac:	00048513          	mv	a0,s1
   1c5b0:	01412483          	lw	s1,20(sp)
   1c5b4:	02010113          	addi	sp,sp,32
   1c5b8:	00008067          	ret
   1c5bc:	05842503          	lw	a0,88(s0)
   1c5c0:	d89fa0ef          	jal	ra,17348 <__retarget_lock_release_recursive>
   1c5c4:	01c12083          	lw	ra,28(sp)
   1c5c8:	01812403          	lw	s0,24(sp)
   1c5cc:	00048513          	mv	a0,s1
   1c5d0:	01412483          	lw	s1,20(sp)
   1c5d4:	02010113          	addi	sp,sp,32
   1c5d8:	00008067          	ret
   1c5dc:	05862503          	lw	a0,88(a2)
   1c5e0:	00b12623          	sw	a1,12(sp)
   1c5e4:	d4dfa0ef          	jal	ra,17330 <__retarget_lock_acquire_recursive>
   1c5e8:	00c41783          	lh	a5,12(s0)
   1c5ec:	00c12583          	lw	a1,12(sp)
   1c5f0:	f69ff06f          	j	1c558 <_fputwc_r+0x30>

0001c5f4 <fputwc>:
   1c5f4:	fe010113          	addi	sp,sp,-32
   1c5f8:	00812c23          	sw	s0,24(sp)
   1c5fc:	00912a23          	sw	s1,20(sp)
   1c600:	00112e23          	sw	ra,28(sp)
   1c604:	2301a483          	lw	s1,560(gp) # 23af0 <_impure_ptr>
   1c608:	00058413          	mv	s0,a1
   1c60c:	00050593          	mv	a1,a0
   1c610:	00048663          	beqz	s1,1c61c <fputwc+0x28>
   1c614:	0384a783          	lw	a5,56(s1)
   1c618:	08078063          	beqz	a5,1c698 <fputwc+0xa4>
   1c61c:	06442703          	lw	a4,100(s0)
   1c620:	00c41783          	lh	a5,12(s0)
   1c624:	00177713          	andi	a4,a4,1
   1c628:	00071663          	bnez	a4,1c634 <fputwc+0x40>
   1c62c:	2007f713          	andi	a4,a5,512
   1c630:	08070e63          	beqz	a4,1c6cc <fputwc+0xd8>
   1c634:	01279713          	slli	a4,a5,0x12
   1c638:	02074063          	bltz	a4,1c658 <fputwc+0x64>
   1c63c:	06442703          	lw	a4,100(s0)
   1c640:	000026b7          	lui	a3,0x2
   1c644:	00d7e7b3          	or	a5,a5,a3
   1c648:	000026b7          	lui	a3,0x2
   1c64c:	00d76733          	or	a4,a4,a3
   1c650:	00f41623          	sh	a5,12(s0)
   1c654:	06e42223          	sw	a4,100(s0)
   1c658:	00048513          	mv	a0,s1
   1c65c:	00040613          	mv	a2,s0
   1c660:	d9dff0ef          	jal	ra,1c3fc <__fputwc>
   1c664:	06442783          	lw	a5,100(s0)
   1c668:	00050493          	mv	s1,a0
   1c66c:	0017f793          	andi	a5,a5,1
   1c670:	00079863          	bnez	a5,1c680 <fputwc+0x8c>
   1c674:	00c45783          	lhu	a5,12(s0)
   1c678:	2007f793          	andi	a5,a5,512
   1c67c:	02078863          	beqz	a5,1c6ac <fputwc+0xb8>
   1c680:	01c12083          	lw	ra,28(sp)
   1c684:	01812403          	lw	s0,24(sp)
   1c688:	00048513          	mv	a0,s1
   1c68c:	01412483          	lw	s1,20(sp)
   1c690:	02010113          	addi	sp,sp,32
   1c694:	00008067          	ret
   1c698:	00a12623          	sw	a0,12(sp)
   1c69c:	00048513          	mv	a0,s1
   1c6a0:	f08f90ef          	jal	ra,15da8 <__sinit>
   1c6a4:	00c12583          	lw	a1,12(sp)
   1c6a8:	f75ff06f          	j	1c61c <fputwc+0x28>
   1c6ac:	05842503          	lw	a0,88(s0)
   1c6b0:	c99fa0ef          	jal	ra,17348 <__retarget_lock_release_recursive>
   1c6b4:	01c12083          	lw	ra,28(sp)
   1c6b8:	01812403          	lw	s0,24(sp)
   1c6bc:	00048513          	mv	a0,s1
   1c6c0:	01412483          	lw	s1,20(sp)
   1c6c4:	02010113          	addi	sp,sp,32
   1c6c8:	00008067          	ret
   1c6cc:	05842503          	lw	a0,88(s0)
   1c6d0:	00b12623          	sw	a1,12(sp)
   1c6d4:	c5dfa0ef          	jal	ra,17330 <__retarget_lock_acquire_recursive>
   1c6d8:	00c41783          	lh	a5,12(s0)
   1c6dc:	00c12583          	lw	a1,12(sp)
   1c6e0:	f55ff06f          	j	1c634 <fputwc+0x40>

0001c6e4 <_fstat_r>:
   1c6e4:	ff010113          	addi	sp,sp,-16
   1c6e8:	00058713          	mv	a4,a1
   1c6ec:	00812423          	sw	s0,8(sp)
   1c6f0:	00060593          	mv	a1,a2
   1c6f4:	00050413          	mv	s0,a0
   1c6f8:	00070513          	mv	a0,a4
   1c6fc:	2601ae23          	sw	zero,636(gp) # 23b3c <errno>
   1c700:	00112623          	sw	ra,12(sp)
   1c704:	5c0010ef          	jal	ra,1dcc4 <_fstat>
   1c708:	fff00793          	li	a5,-1
   1c70c:	00f50a63          	beq	a0,a5,1c720 <_fstat_r+0x3c>
   1c710:	00c12083          	lw	ra,12(sp)
   1c714:	00812403          	lw	s0,8(sp)
   1c718:	01010113          	addi	sp,sp,16
   1c71c:	00008067          	ret
   1c720:	27c1a783          	lw	a5,636(gp) # 23b3c <errno>
   1c724:	fe0786e3          	beqz	a5,1c710 <_fstat_r+0x2c>
   1c728:	00c12083          	lw	ra,12(sp)
   1c72c:	00f42023          	sw	a5,0(s0)
   1c730:	00812403          	lw	s0,8(sp)
   1c734:	01010113          	addi	sp,sp,16
   1c738:	00008067          	ret

0001c73c <__sfvwrite_r>:
   1c73c:	00862783          	lw	a5,8(a2)
   1c740:	30078a63          	beqz	a5,1ca54 <__sfvwrite_r+0x318>
   1c744:	00c59683          	lh	a3,12(a1)
   1c748:	fd010113          	addi	sp,sp,-48
   1c74c:	02812423          	sw	s0,40(sp)
   1c750:	01412c23          	sw	s4,24(sp)
   1c754:	01612823          	sw	s6,16(sp)
   1c758:	02112623          	sw	ra,44(sp)
   1c75c:	02912223          	sw	s1,36(sp)
   1c760:	03212023          	sw	s2,32(sp)
   1c764:	01312e23          	sw	s3,28(sp)
   1c768:	01512a23          	sw	s5,20(sp)
   1c76c:	01712623          	sw	s7,12(sp)
   1c770:	01812423          	sw	s8,8(sp)
   1c774:	01912223          	sw	s9,4(sp)
   1c778:	0086f793          	andi	a5,a3,8
   1c77c:	00060b13          	mv	s6,a2
   1c780:	00050a13          	mv	s4,a0
   1c784:	00058413          	mv	s0,a1
   1c788:	08078663          	beqz	a5,1c814 <__sfvwrite_r+0xd8>
   1c78c:	0105a783          	lw	a5,16(a1)
   1c790:	08078263          	beqz	a5,1c814 <__sfvwrite_r+0xd8>
   1c794:	0026f793          	andi	a5,a3,2
   1c798:	000b2483          	lw	s1,0(s6)
   1c79c:	08078c63          	beqz	a5,1c834 <__sfvwrite_r+0xf8>
   1c7a0:	02442783          	lw	a5,36(s0)
   1c7a4:	01c42583          	lw	a1,28(s0)
   1c7a8:	80000ab7          	lui	s5,0x80000
   1c7ac:	00000993          	li	s3,0
   1c7b0:	00000913          	li	s2,0
   1c7b4:	c00aca93          	xori	s5,s5,-1024
   1c7b8:	00098613          	mv	a2,s3
   1c7bc:	000a0513          	mv	a0,s4
   1c7c0:	04090263          	beqz	s2,1c804 <__sfvwrite_r+0xc8>
   1c7c4:	00090693          	mv	a3,s2
   1c7c8:	012af463          	bgeu	s5,s2,1c7d0 <__sfvwrite_r+0x94>
   1c7cc:	000a8693          	mv	a3,s5
   1c7d0:	000780e7          	jalr	a5
   1c7d4:	26a05663          	blez	a0,1ca40 <__sfvwrite_r+0x304>
   1c7d8:	008b2783          	lw	a5,8(s6)
   1c7dc:	00a989b3          	add	s3,s3,a0
   1c7e0:	40a90933          	sub	s2,s2,a0
   1c7e4:	40a787b3          	sub	a5,a5,a0
   1c7e8:	00fb2423          	sw	a5,8(s6)
   1c7ec:	20078663          	beqz	a5,1c9f8 <__sfvwrite_r+0x2bc>
   1c7f0:	02442783          	lw	a5,36(s0)
   1c7f4:	01c42583          	lw	a1,28(s0)
   1c7f8:	00098613          	mv	a2,s3
   1c7fc:	000a0513          	mv	a0,s4
   1c800:	fc0912e3          	bnez	s2,1c7c4 <__sfvwrite_r+0x88>
   1c804:	0004a983          	lw	s3,0(s1)
   1c808:	0044a903          	lw	s2,4(s1)
   1c80c:	00848493          	addi	s1,s1,8
   1c810:	fa9ff06f          	j	1c7b8 <__sfvwrite_r+0x7c>
   1c814:	00040593          	mv	a1,s0
   1c818:	000a0513          	mv	a0,s4
   1c81c:	c14f70ef          	jal	ra,13c30 <__swsetup_r>
   1c820:	22051663          	bnez	a0,1ca4c <__sfvwrite_r+0x310>
   1c824:	00c41683          	lh	a3,12(s0)
   1c828:	000b2483          	lw	s1,0(s6)
   1c82c:	0026f793          	andi	a5,a3,2
   1c830:	f60798e3          	bnez	a5,1c7a0 <__sfvwrite_r+0x64>
   1c834:	0016f793          	andi	a5,a3,1
   1c838:	12079c63          	bnez	a5,1c970 <__sfvwrite_r+0x234>
   1c83c:	00042783          	lw	a5,0(s0)
   1c840:	00842703          	lw	a4,8(s0)
   1c844:	80000ab7          	lui	s5,0x80000
   1c848:	00000b93          	li	s7,0
   1c84c:	00000993          	li	s3,0
   1c850:	fffaca93          	not	s5,s5
   1c854:	00078513          	mv	a0,a5
   1c858:	00070c13          	mv	s8,a4
   1c85c:	10098263          	beqz	s3,1c960 <__sfvwrite_r+0x224>
   1c860:	2006f613          	andi	a2,a3,512
   1c864:	24060c63          	beqz	a2,1cabc <__sfvwrite_r+0x380>
   1c868:	00070c93          	mv	s9,a4
   1c86c:	2ee9e663          	bltu	s3,a4,1cb58 <__sfvwrite_r+0x41c>
   1c870:	4806f713          	andi	a4,a3,1152
   1c874:	08070a63          	beqz	a4,1c908 <__sfvwrite_r+0x1cc>
   1c878:	01442603          	lw	a2,20(s0)
   1c87c:	01042583          	lw	a1,16(s0)
   1c880:	00161713          	slli	a4,a2,0x1
   1c884:	00c70733          	add	a4,a4,a2
   1c888:	40b78933          	sub	s2,a5,a1
   1c88c:	01f75c13          	srli	s8,a4,0x1f
   1c890:	00ec0c33          	add	s8,s8,a4
   1c894:	00190793          	addi	a5,s2,1
   1c898:	401c5c13          	srai	s8,s8,0x1
   1c89c:	013787b3          	add	a5,a5,s3
   1c8a0:	000c0613          	mv	a2,s8
   1c8a4:	00fc7663          	bgeu	s8,a5,1c8b0 <__sfvwrite_r+0x174>
   1c8a8:	00078c13          	mv	s8,a5
   1c8ac:	00078613          	mv	a2,a5
   1c8b0:	4006f693          	andi	a3,a3,1024
   1c8b4:	2c068e63          	beqz	a3,1cb90 <__sfvwrite_r+0x454>
   1c8b8:	00060593          	mv	a1,a2
   1c8bc:	000a0513          	mv	a0,s4
   1c8c0:	bd1f30ef          	jal	ra,10490 <_malloc_r>
   1c8c4:	00050c93          	mv	s9,a0
   1c8c8:	30050263          	beqz	a0,1cbcc <__sfvwrite_r+0x490>
   1c8cc:	01042583          	lw	a1,16(s0)
   1c8d0:	00090613          	mv	a2,s2
   1c8d4:	e88fb0ef          	jal	ra,17f5c <memcpy>
   1c8d8:	00c45783          	lhu	a5,12(s0)
   1c8dc:	b7f7f793          	andi	a5,a5,-1153
   1c8e0:	0807e793          	ori	a5,a5,128
   1c8e4:	00f41623          	sh	a5,12(s0)
   1c8e8:	012c8533          	add	a0,s9,s2
   1c8ec:	412c07b3          	sub	a5,s8,s2
   1c8f0:	01942823          	sw	s9,16(s0)
   1c8f4:	01842a23          	sw	s8,20(s0)
   1c8f8:	00a42023          	sw	a0,0(s0)
   1c8fc:	00098c13          	mv	s8,s3
   1c900:	00f42423          	sw	a5,8(s0)
   1c904:	00098c93          	mv	s9,s3
   1c908:	000c8613          	mv	a2,s9
   1c90c:	000b8593          	mv	a1,s7
   1c910:	498000ef          	jal	ra,1cda8 <memmove>
   1c914:	00842703          	lw	a4,8(s0)
   1c918:	00042783          	lw	a5,0(s0)
   1c91c:	00098913          	mv	s2,s3
   1c920:	41870733          	sub	a4,a4,s8
   1c924:	019787b3          	add	a5,a5,s9
   1c928:	00e42423          	sw	a4,8(s0)
   1c92c:	00f42023          	sw	a5,0(s0)
   1c930:	00000993          	li	s3,0
   1c934:	008b2783          	lw	a5,8(s6)
   1c938:	012b8bb3          	add	s7,s7,s2
   1c93c:	412787b3          	sub	a5,a5,s2
   1c940:	00fb2423          	sw	a5,8(s6)
   1c944:	0a078a63          	beqz	a5,1c9f8 <__sfvwrite_r+0x2bc>
   1c948:	00042783          	lw	a5,0(s0)
   1c94c:	00842703          	lw	a4,8(s0)
   1c950:	00c41683          	lh	a3,12(s0)
   1c954:	00078513          	mv	a0,a5
   1c958:	00070c13          	mv	s8,a4
   1c95c:	f00992e3          	bnez	s3,1c860 <__sfvwrite_r+0x124>
   1c960:	0004ab83          	lw	s7,0(s1)
   1c964:	0044a983          	lw	s3,4(s1)
   1c968:	00848493          	addi	s1,s1,8
   1c96c:	ee9ff06f          	j	1c854 <__sfvwrite_r+0x118>
   1c970:	00000a93          	li	s5,0
   1c974:	00000513          	li	a0,0
   1c978:	00000c13          	li	s8,0
   1c97c:	00000993          	li	s3,0
   1c980:	0c098e63          	beqz	s3,1ca5c <__sfvwrite_r+0x320>
   1c984:	0e050663          	beqz	a0,1ca70 <__sfvwrite_r+0x334>
   1c988:	000a8793          	mv	a5,s5
   1c98c:	00098b93          	mv	s7,s3
   1c990:	0137f463          	bgeu	a5,s3,1c998 <__sfvwrite_r+0x25c>
   1c994:	00078b93          	mv	s7,a5
   1c998:	00042503          	lw	a0,0(s0)
   1c99c:	01042783          	lw	a5,16(s0)
   1c9a0:	00842903          	lw	s2,8(s0)
   1c9a4:	01442683          	lw	a3,20(s0)
   1c9a8:	00a7f663          	bgeu	a5,a0,1c9b4 <__sfvwrite_r+0x278>
   1c9ac:	00d90933          	add	s2,s2,a3
   1c9b0:	0f794063          	blt	s2,s7,1ca90 <__sfvwrite_r+0x354>
   1c9b4:	1adbc863          	blt	s7,a3,1cb64 <__sfvwrite_r+0x428>
   1c9b8:	02442783          	lw	a5,36(s0)
   1c9bc:	01c42583          	lw	a1,28(s0)
   1c9c0:	000c0613          	mv	a2,s8
   1c9c4:	000a0513          	mv	a0,s4
   1c9c8:	000780e7          	jalr	a5
   1c9cc:	00050913          	mv	s2,a0
   1c9d0:	06a05863          	blez	a0,1ca40 <__sfvwrite_r+0x304>
   1c9d4:	412a8ab3          	sub	s5,s5,s2
   1c9d8:	00100513          	li	a0,1
   1c9dc:	040a8a63          	beqz	s5,1ca30 <__sfvwrite_r+0x2f4>
   1c9e0:	008b2783          	lw	a5,8(s6)
   1c9e4:	012c0c33          	add	s8,s8,s2
   1c9e8:	412989b3          	sub	s3,s3,s2
   1c9ec:	412787b3          	sub	a5,a5,s2
   1c9f0:	00fb2423          	sw	a5,8(s6)
   1c9f4:	f80796e3          	bnez	a5,1c980 <__sfvwrite_r+0x244>
   1c9f8:	00000513          	li	a0,0
   1c9fc:	02c12083          	lw	ra,44(sp)
   1ca00:	02812403          	lw	s0,40(sp)
   1ca04:	02412483          	lw	s1,36(sp)
   1ca08:	02012903          	lw	s2,32(sp)
   1ca0c:	01c12983          	lw	s3,28(sp)
   1ca10:	01812a03          	lw	s4,24(sp)
   1ca14:	01412a83          	lw	s5,20(sp)
   1ca18:	01012b03          	lw	s6,16(sp)
   1ca1c:	00c12b83          	lw	s7,12(sp)
   1ca20:	00812c03          	lw	s8,8(sp)
   1ca24:	00412c83          	lw	s9,4(sp)
   1ca28:	03010113          	addi	sp,sp,48
   1ca2c:	00008067          	ret
   1ca30:	00040593          	mv	a1,s0
   1ca34:	000a0513          	mv	a0,s4
   1ca38:	8b8f90ef          	jal	ra,15af0 <_fflush_r>
   1ca3c:	fa0502e3          	beqz	a0,1c9e0 <__sfvwrite_r+0x2a4>
   1ca40:	00c41783          	lh	a5,12(s0)
   1ca44:	0407e793          	ori	a5,a5,64
   1ca48:	00f41623          	sh	a5,12(s0)
   1ca4c:	fff00513          	li	a0,-1
   1ca50:	fadff06f          	j	1c9fc <__sfvwrite_r+0x2c0>
   1ca54:	00000513          	li	a0,0
   1ca58:	00008067          	ret
   1ca5c:	0044a983          	lw	s3,4(s1)
   1ca60:	00048793          	mv	a5,s1
   1ca64:	00848493          	addi	s1,s1,8
   1ca68:	fe098ae3          	beqz	s3,1ca5c <__sfvwrite_r+0x320>
   1ca6c:	0007ac03          	lw	s8,0(a5)
   1ca70:	00098613          	mv	a2,s3
   1ca74:	00a00593          	li	a1,10
   1ca78:	000c0513          	mv	a0,s8
   1ca7c:	c1cfb0ef          	jal	ra,17e98 <memchr>
   1ca80:	14050063          	beqz	a0,1cbc0 <__sfvwrite_r+0x484>
   1ca84:	00150513          	addi	a0,a0,1
   1ca88:	41850ab3          	sub	s5,a0,s8
   1ca8c:	efdff06f          	j	1c988 <__sfvwrite_r+0x24c>
   1ca90:	000c0593          	mv	a1,s8
   1ca94:	00090613          	mv	a2,s2
   1ca98:	310000ef          	jal	ra,1cda8 <memmove>
   1ca9c:	00042783          	lw	a5,0(s0)
   1caa0:	00040593          	mv	a1,s0
   1caa4:	000a0513          	mv	a0,s4
   1caa8:	012787b3          	add	a5,a5,s2
   1caac:	00f42023          	sw	a5,0(s0)
   1cab0:	840f90ef          	jal	ra,15af0 <_fflush_r>
   1cab4:	f20500e3          	beqz	a0,1c9d4 <__sfvwrite_r+0x298>
   1cab8:	f89ff06f          	j	1ca40 <__sfvwrite_r+0x304>
   1cabc:	01042683          	lw	a3,16(s0)
   1cac0:	04f6e463          	bltu	a3,a5,1cb08 <__sfvwrite_r+0x3cc>
   1cac4:	01442583          	lw	a1,20(s0)
   1cac8:	04b9e063          	bltu	s3,a1,1cb08 <__sfvwrite_r+0x3cc>
   1cacc:	00098913          	mv	s2,s3
   1cad0:	013af463          	bgeu	s5,s3,1cad8 <__sfvwrite_r+0x39c>
   1cad4:	000a8913          	mv	s2,s5
   1cad8:	00090513          	mv	a0,s2
   1cadc:	45d040ef          	jal	ra,21738 <__modsi3>
   1cae0:	02442783          	lw	a5,36(s0)
   1cae4:	01c42583          	lw	a1,28(s0)
   1cae8:	40a906b3          	sub	a3,s2,a0
   1caec:	000b8613          	mv	a2,s7
   1caf0:	000a0513          	mv	a0,s4
   1caf4:	000780e7          	jalr	a5
   1caf8:	00050913          	mv	s2,a0
   1cafc:	f4a052e3          	blez	a0,1ca40 <__sfvwrite_r+0x304>
   1cb00:	412989b3          	sub	s3,s3,s2
   1cb04:	e31ff06f          	j	1c934 <__sfvwrite_r+0x1f8>
   1cb08:	00070913          	mv	s2,a4
   1cb0c:	00e9f463          	bgeu	s3,a4,1cb14 <__sfvwrite_r+0x3d8>
   1cb10:	00098913          	mv	s2,s3
   1cb14:	00078513          	mv	a0,a5
   1cb18:	00090613          	mv	a2,s2
   1cb1c:	000b8593          	mv	a1,s7
   1cb20:	288000ef          	jal	ra,1cda8 <memmove>
   1cb24:	00842703          	lw	a4,8(s0)
   1cb28:	00042783          	lw	a5,0(s0)
   1cb2c:	41270733          	sub	a4,a4,s2
   1cb30:	012787b3          	add	a5,a5,s2
   1cb34:	00e42423          	sw	a4,8(s0)
   1cb38:	00f42023          	sw	a5,0(s0)
   1cb3c:	fc0712e3          	bnez	a4,1cb00 <__sfvwrite_r+0x3c4>
   1cb40:	00040593          	mv	a1,s0
   1cb44:	000a0513          	mv	a0,s4
   1cb48:	fa9f80ef          	jal	ra,15af0 <_fflush_r>
   1cb4c:	ee051ae3          	bnez	a0,1ca40 <__sfvwrite_r+0x304>
   1cb50:	412989b3          	sub	s3,s3,s2
   1cb54:	de1ff06f          	j	1c934 <__sfvwrite_r+0x1f8>
   1cb58:	00098c13          	mv	s8,s3
   1cb5c:	00098c93          	mv	s9,s3
   1cb60:	da9ff06f          	j	1c908 <__sfvwrite_r+0x1cc>
   1cb64:	000b8613          	mv	a2,s7
   1cb68:	000c0593          	mv	a1,s8
   1cb6c:	23c000ef          	jal	ra,1cda8 <memmove>
   1cb70:	00842703          	lw	a4,8(s0)
   1cb74:	00042783          	lw	a5,0(s0)
   1cb78:	000b8913          	mv	s2,s7
   1cb7c:	41770733          	sub	a4,a4,s7
   1cb80:	017787b3          	add	a5,a5,s7
   1cb84:	00e42423          	sw	a4,8(s0)
   1cb88:	00f42023          	sw	a5,0(s0)
   1cb8c:	e49ff06f          	j	1c9d4 <__sfvwrite_r+0x298>
   1cb90:	000a0513          	mv	a0,s4
   1cb94:	38c000ef          	jal	ra,1cf20 <_realloc_r>
   1cb98:	00050c93          	mv	s9,a0
   1cb9c:	d40516e3          	bnez	a0,1c8e8 <__sfvwrite_r+0x1ac>
   1cba0:	01042583          	lw	a1,16(s0)
   1cba4:	000a0513          	mv	a0,s4
   1cba8:	e94f90ef          	jal	ra,1623c <_free_r>
   1cbac:	00c41783          	lh	a5,12(s0)
   1cbb0:	00c00713          	li	a4,12
   1cbb4:	00ea2023          	sw	a4,0(s4)
   1cbb8:	f7f7f793          	andi	a5,a5,-129
   1cbbc:	e89ff06f          	j	1ca44 <__sfvwrite_r+0x308>
   1cbc0:	00198793          	addi	a5,s3,1
   1cbc4:	00078a93          	mv	s5,a5
   1cbc8:	dc5ff06f          	j	1c98c <__sfvwrite_r+0x250>
   1cbcc:	00c00713          	li	a4,12
   1cbd0:	00c41783          	lh	a5,12(s0)
   1cbd4:	00ea2023          	sw	a4,0(s4)
   1cbd8:	e6dff06f          	j	1ca44 <__sfvwrite_r+0x308>

0001cbdc <_findenv_r>:
   1cbdc:	fd010113          	addi	sp,sp,-48
   1cbe0:	01612823          	sw	s6,16(sp)
   1cbe4:	24018b13          	addi	s6,gp,576 # 23b00 <environ>
   1cbe8:	02912223          	sw	s1,36(sp)
   1cbec:	01312e23          	sw	s3,28(sp)
   1cbf0:	01412c23          	sw	s4,24(sp)
   1cbf4:	01512a23          	sw	s5,20(sp)
   1cbf8:	02112623          	sw	ra,44(sp)
   1cbfc:	02812423          	sw	s0,40(sp)
   1cc00:	03212023          	sw	s2,32(sp)
   1cc04:	01712623          	sw	s7,12(sp)
   1cc08:	00050a93          	mv	s5,a0
   1cc0c:	00058993          	mv	s3,a1
   1cc10:	00060a13          	mv	s4,a2
   1cc14:	2b5000ef          	jal	ra,1d6c8 <__env_lock>
   1cc18:	000b2483          	lw	s1,0(s6)
   1cc1c:	02048663          	beqz	s1,1cc48 <_findenv_r+0x6c>
   1cc20:	0009c703          	lbu	a4,0(s3)
   1cc24:	00098793          	mv	a5,s3
   1cc28:	03d00693          	li	a3,61
   1cc2c:	00000413          	li	s0,0
   1cc30:	00071863          	bnez	a4,1cc40 <_findenv_r+0x64>
   1cc34:	0500006f          	j	1cc84 <_findenv_r+0xa8>
   1cc38:	0007c703          	lbu	a4,0(a5)
   1cc3c:	04070263          	beqz	a4,1cc80 <_findenv_r+0xa4>
   1cc40:	00178793          	addi	a5,a5,1
   1cc44:	fed71ae3          	bne	a4,a3,1cc38 <_findenv_r+0x5c>
   1cc48:	000a8513          	mv	a0,s5
   1cc4c:	285000ef          	jal	ra,1d6d0 <__env_unlock>
   1cc50:	00000513          	li	a0,0
   1cc54:	02c12083          	lw	ra,44(sp)
   1cc58:	02812403          	lw	s0,40(sp)
   1cc5c:	02412483          	lw	s1,36(sp)
   1cc60:	02012903          	lw	s2,32(sp)
   1cc64:	01c12983          	lw	s3,28(sp)
   1cc68:	01812a03          	lw	s4,24(sp)
   1cc6c:	01412a83          	lw	s5,20(sp)
   1cc70:	01012b03          	lw	s6,16(sp)
   1cc74:	00c12b83          	lw	s7,12(sp)
   1cc78:	03010113          	addi	sp,sp,48
   1cc7c:	00008067          	ret
   1cc80:	41378433          	sub	s0,a5,s3
   1cc84:	0004a503          	lw	a0,0(s1)
   1cc88:	fc0500e3          	beqz	a0,1cc48 <_findenv_r+0x6c>
   1cc8c:	03d00b93          	li	s7,61
   1cc90:	00040613          	mv	a2,s0
   1cc94:	00098593          	mv	a1,s3
   1cc98:	7dc000ef          	jal	ra,1d474 <strncmp>
   1cc9c:	00051a63          	bnez	a0,1ccb0 <_findenv_r+0xd4>
   1cca0:	0004a903          	lw	s2,0(s1)
   1cca4:	00890933          	add	s2,s2,s0
   1cca8:	00094783          	lbu	a5,0(s2)
   1ccac:	01778a63          	beq	a5,s7,1ccc0 <_findenv_r+0xe4>
   1ccb0:	0044a503          	lw	a0,4(s1)
   1ccb4:	00448493          	addi	s1,s1,4
   1ccb8:	fc051ce3          	bnez	a0,1cc90 <_findenv_r+0xb4>
   1ccbc:	f8dff06f          	j	1cc48 <_findenv_r+0x6c>
   1ccc0:	000b2783          	lw	a5,0(s6)
   1ccc4:	000a8513          	mv	a0,s5
   1ccc8:	40f484b3          	sub	s1,s1,a5
   1cccc:	4024d493          	srai	s1,s1,0x2
   1ccd0:	009a2023          	sw	s1,0(s4)
   1ccd4:	1fd000ef          	jal	ra,1d6d0 <__env_unlock>
   1ccd8:	00190513          	addi	a0,s2,1
   1ccdc:	f79ff06f          	j	1cc54 <_findenv_r+0x78>

0001cce0 <_getenv_r>:
   1cce0:	fe010113          	addi	sp,sp,-32
   1cce4:	00c10613          	addi	a2,sp,12
   1cce8:	00112e23          	sw	ra,28(sp)
   1ccec:	ef1ff0ef          	jal	ra,1cbdc <_findenv_r>
   1ccf0:	01c12083          	lw	ra,28(sp)
   1ccf4:	02010113          	addi	sp,sp,32
   1ccf8:	00008067          	ret

0001ccfc <_isatty_r>:
   1ccfc:	ff010113          	addi	sp,sp,-16
   1cd00:	00812423          	sw	s0,8(sp)
   1cd04:	00050413          	mv	s0,a0
   1cd08:	00058513          	mv	a0,a1
   1cd0c:	2601ae23          	sw	zero,636(gp) # 23b3c <errno>
   1cd10:	00112623          	sw	ra,12(sp)
   1cd14:	018010ef          	jal	ra,1dd2c <_isatty>
   1cd18:	fff00793          	li	a5,-1
   1cd1c:	00f50a63          	beq	a0,a5,1cd30 <_isatty_r+0x34>
   1cd20:	00c12083          	lw	ra,12(sp)
   1cd24:	00812403          	lw	s0,8(sp)
   1cd28:	01010113          	addi	sp,sp,16
   1cd2c:	00008067          	ret
   1cd30:	27c1a783          	lw	a5,636(gp) # 23b3c <errno>
   1cd34:	fe0786e3          	beqz	a5,1cd20 <_isatty_r+0x24>
   1cd38:	00c12083          	lw	ra,12(sp)
   1cd3c:	00f42023          	sw	a5,0(s0)
   1cd40:	00812403          	lw	s0,8(sp)
   1cd44:	01010113          	addi	sp,sp,16
   1cd48:	00008067          	ret

0001cd4c <_lseek_r>:
   1cd4c:	ff010113          	addi	sp,sp,-16
   1cd50:	00058713          	mv	a4,a1
   1cd54:	00812423          	sw	s0,8(sp)
   1cd58:	00060593          	mv	a1,a2
   1cd5c:	00050413          	mv	s0,a0
   1cd60:	00068613          	mv	a2,a3
   1cd64:	00070513          	mv	a0,a4
   1cd68:	2601ae23          	sw	zero,636(gp) # 23b3c <errno>
   1cd6c:	00112623          	sw	ra,12(sp)
   1cd70:	020010ef          	jal	ra,1dd90 <_lseek>
   1cd74:	fff00793          	li	a5,-1
   1cd78:	00f50a63          	beq	a0,a5,1cd8c <_lseek_r+0x40>
   1cd7c:	00c12083          	lw	ra,12(sp)
   1cd80:	00812403          	lw	s0,8(sp)
   1cd84:	01010113          	addi	sp,sp,16
   1cd88:	00008067          	ret
   1cd8c:	27c1a783          	lw	a5,636(gp) # 23b3c <errno>
   1cd90:	fe0786e3          	beqz	a5,1cd7c <_lseek_r+0x30>
   1cd94:	00c12083          	lw	ra,12(sp)
   1cd98:	00f42023          	sw	a5,0(s0)
   1cd9c:	00812403          	lw	s0,8(sp)
   1cda0:	01010113          	addi	sp,sp,16
   1cda4:	00008067          	ret

0001cda8 <memmove>:
   1cda8:	02a5f663          	bgeu	a1,a0,1cdd4 <memmove+0x2c>
   1cdac:	00c58733          	add	a4,a1,a2
   1cdb0:	02e57263          	bgeu	a0,a4,1cdd4 <memmove+0x2c>
   1cdb4:	00c507b3          	add	a5,a0,a2
   1cdb8:	04060663          	beqz	a2,1ce04 <memmove+0x5c>
   1cdbc:	fff74683          	lbu	a3,-1(a4)
   1cdc0:	fff78793          	addi	a5,a5,-1
   1cdc4:	fff70713          	addi	a4,a4,-1
   1cdc8:	00d78023          	sb	a3,0(a5)
   1cdcc:	fef518e3          	bne	a0,a5,1cdbc <memmove+0x14>
   1cdd0:	00008067          	ret
   1cdd4:	00f00793          	li	a5,15
   1cdd8:	02c7e863          	bltu	a5,a2,1ce08 <memmove+0x60>
   1cddc:	00050793          	mv	a5,a0
   1cde0:	fff60693          	addi	a3,a2,-1
   1cde4:	0c060a63          	beqz	a2,1ceb8 <memmove+0x110>
   1cde8:	00168693          	addi	a3,a3,1 # 2001 <exit-0xe093>
   1cdec:	00d786b3          	add	a3,a5,a3
   1cdf0:	0005c703          	lbu	a4,0(a1)
   1cdf4:	00178793          	addi	a5,a5,1
   1cdf8:	00158593          	addi	a1,a1,1
   1cdfc:	fee78fa3          	sb	a4,-1(a5)
   1ce00:	fed798e3          	bne	a5,a3,1cdf0 <memmove+0x48>
   1ce04:	00008067          	ret
   1ce08:	00b567b3          	or	a5,a0,a1
   1ce0c:	0037f793          	andi	a5,a5,3
   1ce10:	08079e63          	bnez	a5,1ceac <memmove+0x104>
   1ce14:	ff060893          	addi	a7,a2,-16
   1ce18:	ff08f893          	andi	a7,a7,-16
   1ce1c:	01088893          	addi	a7,a7,16
   1ce20:	011507b3          	add	a5,a0,a7
   1ce24:	00058693          	mv	a3,a1
   1ce28:	00050713          	mv	a4,a0
   1ce2c:	0006a803          	lw	a6,0(a3)
   1ce30:	01068693          	addi	a3,a3,16
   1ce34:	01070713          	addi	a4,a4,16
   1ce38:	ff072823          	sw	a6,-16(a4)
   1ce3c:	ff46a803          	lw	a6,-12(a3)
   1ce40:	ff072a23          	sw	a6,-12(a4)
   1ce44:	ff86a803          	lw	a6,-8(a3)
   1ce48:	ff072c23          	sw	a6,-8(a4)
   1ce4c:	ffc6a803          	lw	a6,-4(a3)
   1ce50:	ff072e23          	sw	a6,-4(a4)
   1ce54:	fcf71ce3          	bne	a4,a5,1ce2c <memmove+0x84>
   1ce58:	00c67713          	andi	a4,a2,12
   1ce5c:	011585b3          	add	a1,a1,a7
   1ce60:	00f67813          	andi	a6,a2,15
   1ce64:	04070c63          	beqz	a4,1cebc <memmove+0x114>
   1ce68:	00058693          	mv	a3,a1
   1ce6c:	00078713          	mv	a4,a5
   1ce70:	01078eb3          	add	t4,a5,a6
   1ce74:	00300e13          	li	t3,3
   1ce78:	0006a303          	lw	t1,0(a3)
   1ce7c:	00470713          	addi	a4,a4,4
   1ce80:	40ee88b3          	sub	a7,t4,a4
   1ce84:	fe672e23          	sw	t1,-4(a4)
   1ce88:	00468693          	addi	a3,a3,4
   1ce8c:	ff1e66e3          	bltu	t3,a7,1ce78 <memmove+0xd0>
   1ce90:	ffc80713          	addi	a4,a6,-4
   1ce94:	ffc77713          	andi	a4,a4,-4
   1ce98:	00470713          	addi	a4,a4,4
   1ce9c:	00367613          	andi	a2,a2,3
   1cea0:	00e787b3          	add	a5,a5,a4
   1cea4:	00e585b3          	add	a1,a1,a4
   1cea8:	f39ff06f          	j	1cde0 <memmove+0x38>
   1ceac:	fff60693          	addi	a3,a2,-1
   1ceb0:	00050793          	mv	a5,a0
   1ceb4:	f35ff06f          	j	1cde8 <memmove+0x40>
   1ceb8:	00008067          	ret
   1cebc:	00080613          	mv	a2,a6
   1cec0:	f21ff06f          	j	1cde0 <memmove+0x38>

0001cec4 <_read_r>:
   1cec4:	ff010113          	addi	sp,sp,-16
   1cec8:	00058713          	mv	a4,a1
   1cecc:	00812423          	sw	s0,8(sp)
   1ced0:	00060593          	mv	a1,a2
   1ced4:	00050413          	mv	s0,a0
   1ced8:	00068613          	mv	a2,a3
   1cedc:	00070513          	mv	a0,a4
   1cee0:	2601ae23          	sw	zero,636(gp) # 23b3c <errno>
   1cee4:	00112623          	sw	ra,12(sp)
   1cee8:	6ed000ef          	jal	ra,1ddd4 <_read>
   1ceec:	fff00793          	li	a5,-1
   1cef0:	00f50a63          	beq	a0,a5,1cf04 <_read_r+0x40>
   1cef4:	00c12083          	lw	ra,12(sp)
   1cef8:	00812403          	lw	s0,8(sp)
   1cefc:	01010113          	addi	sp,sp,16
   1cf00:	00008067          	ret
   1cf04:	27c1a783          	lw	a5,636(gp) # 23b3c <errno>
   1cf08:	fe0786e3          	beqz	a5,1cef4 <_read_r+0x30>
   1cf0c:	00c12083          	lw	ra,12(sp)
   1cf10:	00f42023          	sw	a5,0(s0)
   1cf14:	00812403          	lw	s0,8(sp)
   1cf18:	01010113          	addi	sp,sp,16
   1cf1c:	00008067          	ret

0001cf20 <_realloc_r>:
   1cf20:	fd010113          	addi	sp,sp,-48
   1cf24:	02912223          	sw	s1,36(sp)
   1cf28:	02112623          	sw	ra,44(sp)
   1cf2c:	02812423          	sw	s0,40(sp)
   1cf30:	03212023          	sw	s2,32(sp)
   1cf34:	01312e23          	sw	s3,28(sp)
   1cf38:	01412c23          	sw	s4,24(sp)
   1cf3c:	01512a23          	sw	s5,20(sp)
   1cf40:	01612823          	sw	s6,16(sp)
   1cf44:	01712623          	sw	s7,12(sp)
   1cf48:	01812423          	sw	s8,8(sp)
   1cf4c:	00060493          	mv	s1,a2
   1cf50:	1c058063          	beqz	a1,1d110 <_realloc_r+0x1f0>
   1cf54:	00058413          	mv	s0,a1
   1cf58:	00050913          	mv	s2,a0
   1cf5c:	d91f30ef          	jal	ra,10cec <__malloc_lock>
   1cf60:	ffc42703          	lw	a4,-4(s0)
   1cf64:	00b48793          	addi	a5,s1,11
   1cf68:	01600693          	li	a3,22
   1cf6c:	ff840a93          	addi	s5,s0,-8
   1cf70:	ffc77993          	andi	s3,a4,-4
   1cf74:	0ef6f463          	bgeu	a3,a5,1d05c <_realloc_r+0x13c>
   1cf78:	ff87fa13          	andi	s4,a5,-8
   1cf7c:	0e07c463          	bltz	a5,1d064 <_realloc_r+0x144>
   1cf80:	0e9a6263          	bltu	s4,s1,1d064 <_realloc_r+0x144>
   1cf84:	1149d263          	bge	s3,s4,1d088 <_realloc_r+0x168>
   1cf88:	c2818c13          	addi	s8,gp,-984 # 234e8 <__malloc_av_>
   1cf8c:	008c2603          	lw	a2,8(s8)
   1cf90:	013a86b3          	add	a3,s5,s3
   1cf94:	0046a783          	lw	a5,4(a3)
   1cf98:	1cd60e63          	beq	a2,a3,1d174 <_realloc_r+0x254>
   1cf9c:	ffe7f613          	andi	a2,a5,-2
   1cfa0:	00c68633          	add	a2,a3,a2
   1cfa4:	00462603          	lw	a2,4(a2)
   1cfa8:	00167613          	andi	a2,a2,1
   1cfac:	14061463          	bnez	a2,1d0f4 <_realloc_r+0x1d4>
   1cfb0:	ffc7f793          	andi	a5,a5,-4
   1cfb4:	00f98633          	add	a2,s3,a5
   1cfb8:	0b465e63          	bge	a2,s4,1d074 <_realloc_r+0x154>
   1cfbc:	00177713          	andi	a4,a4,1
   1cfc0:	02071463          	bnez	a4,1cfe8 <_realloc_r+0xc8>
   1cfc4:	ff842b83          	lw	s7,-8(s0)
   1cfc8:	417a8bb3          	sub	s7,s5,s7
   1cfcc:	004ba703          	lw	a4,4(s7)
   1cfd0:	ffc77713          	andi	a4,a4,-4
   1cfd4:	00e787b3          	add	a5,a5,a4
   1cfd8:	01378b33          	add	s6,a5,s3
   1cfdc:	334b5463          	bge	s6,s4,1d304 <_realloc_r+0x3e4>
   1cfe0:	00e98b33          	add	s6,s3,a4
   1cfe4:	294b5663          	bge	s6,s4,1d270 <_realloc_r+0x350>
   1cfe8:	00048593          	mv	a1,s1
   1cfec:	00090513          	mv	a0,s2
   1cff0:	ca0f30ef          	jal	ra,10490 <_malloc_r>
   1cff4:	00050493          	mv	s1,a0
   1cff8:	40050263          	beqz	a0,1d3fc <_realloc_r+0x4dc>
   1cffc:	ffc42783          	lw	a5,-4(s0)
   1d000:	ff850713          	addi	a4,a0,-8
   1d004:	ffe7f793          	andi	a5,a5,-2
   1d008:	00fa87b3          	add	a5,s5,a5
   1d00c:	24e78a63          	beq	a5,a4,1d260 <_realloc_r+0x340>
   1d010:	ffc98613          	addi	a2,s3,-4
   1d014:	02400793          	li	a5,36
   1d018:	2ec7e063          	bltu	a5,a2,1d2f8 <_realloc_r+0x3d8>
   1d01c:	01300713          	li	a4,19
   1d020:	20c76e63          	bltu	a4,a2,1d23c <_realloc_r+0x31c>
   1d024:	00050793          	mv	a5,a0
   1d028:	00040713          	mv	a4,s0
   1d02c:	00072683          	lw	a3,0(a4)
   1d030:	00d7a023          	sw	a3,0(a5)
   1d034:	00472683          	lw	a3,4(a4)
   1d038:	00d7a223          	sw	a3,4(a5)
   1d03c:	00872703          	lw	a4,8(a4)
   1d040:	00e7a423          	sw	a4,8(a5)
   1d044:	00090513          	mv	a0,s2
   1d048:	00040593          	mv	a1,s0
   1d04c:	9f0f90ef          	jal	ra,1623c <_free_r>
   1d050:	00090513          	mv	a0,s2
   1d054:	ca1f30ef          	jal	ra,10cf4 <__malloc_unlock>
   1d058:	0680006f          	j	1d0c0 <_realloc_r+0x1a0>
   1d05c:	01000a13          	li	s4,16
   1d060:	f29a72e3          	bgeu	s4,s1,1cf84 <_realloc_r+0x64>
   1d064:	00c00793          	li	a5,12
   1d068:	00f92023          	sw	a5,0(s2)
   1d06c:	00000493          	li	s1,0
   1d070:	0500006f          	j	1d0c0 <_realloc_r+0x1a0>
   1d074:	00c6a783          	lw	a5,12(a3)
   1d078:	0086a703          	lw	a4,8(a3)
   1d07c:	00060993          	mv	s3,a2
   1d080:	00f72623          	sw	a5,12(a4)
   1d084:	00e7a423          	sw	a4,8(a5)
   1d088:	004aa783          	lw	a5,4(s5) # 80000004 <__BSS_END__+0x7ffdc1d4>
   1d08c:	414986b3          	sub	a3,s3,s4
   1d090:	00f00613          	li	a2,15
   1d094:	0017f793          	andi	a5,a5,1
   1d098:	013a8733          	add	a4,s5,s3
   1d09c:	0ad66463          	bltu	a2,a3,1d144 <_realloc_r+0x224>
   1d0a0:	0137e7b3          	or	a5,a5,s3
   1d0a4:	00faa223          	sw	a5,4(s5)
   1d0a8:	00472783          	lw	a5,4(a4)
   1d0ac:	0017e793          	ori	a5,a5,1
   1d0b0:	00f72223          	sw	a5,4(a4)
   1d0b4:	00090513          	mv	a0,s2
   1d0b8:	c3df30ef          	jal	ra,10cf4 <__malloc_unlock>
   1d0bc:	00040493          	mv	s1,s0
   1d0c0:	02c12083          	lw	ra,44(sp)
   1d0c4:	02812403          	lw	s0,40(sp)
   1d0c8:	02012903          	lw	s2,32(sp)
   1d0cc:	01c12983          	lw	s3,28(sp)
   1d0d0:	01812a03          	lw	s4,24(sp)
   1d0d4:	01412a83          	lw	s5,20(sp)
   1d0d8:	01012b03          	lw	s6,16(sp)
   1d0dc:	00c12b83          	lw	s7,12(sp)
   1d0e0:	00812c03          	lw	s8,8(sp)
   1d0e4:	00048513          	mv	a0,s1
   1d0e8:	02412483          	lw	s1,36(sp)
   1d0ec:	03010113          	addi	sp,sp,48
   1d0f0:	00008067          	ret
   1d0f4:	00177713          	andi	a4,a4,1
   1d0f8:	ee0718e3          	bnez	a4,1cfe8 <_realloc_r+0xc8>
   1d0fc:	ff842b83          	lw	s7,-8(s0)
   1d100:	417a8bb3          	sub	s7,s5,s7
   1d104:	004ba703          	lw	a4,4(s7)
   1d108:	ffc77713          	andi	a4,a4,-4
   1d10c:	ed5ff06f          	j	1cfe0 <_realloc_r+0xc0>
   1d110:	02812403          	lw	s0,40(sp)
   1d114:	02c12083          	lw	ra,44(sp)
   1d118:	02412483          	lw	s1,36(sp)
   1d11c:	02012903          	lw	s2,32(sp)
   1d120:	01c12983          	lw	s3,28(sp)
   1d124:	01812a03          	lw	s4,24(sp)
   1d128:	01412a83          	lw	s5,20(sp)
   1d12c:	01012b03          	lw	s6,16(sp)
   1d130:	00c12b83          	lw	s7,12(sp)
   1d134:	00812c03          	lw	s8,8(sp)
   1d138:	00060593          	mv	a1,a2
   1d13c:	03010113          	addi	sp,sp,48
   1d140:	b50f306f          	j	10490 <_malloc_r>
   1d144:	0147e7b3          	or	a5,a5,s4
   1d148:	00faa223          	sw	a5,4(s5)
   1d14c:	014a85b3          	add	a1,s5,s4
   1d150:	0016e693          	ori	a3,a3,1
   1d154:	00d5a223          	sw	a3,4(a1)
   1d158:	00472783          	lw	a5,4(a4)
   1d15c:	00858593          	addi	a1,a1,8
   1d160:	00090513          	mv	a0,s2
   1d164:	0017e793          	ori	a5,a5,1
   1d168:	00f72223          	sw	a5,4(a4)
   1d16c:	8d0f90ef          	jal	ra,1623c <_free_r>
   1d170:	f45ff06f          	j	1d0b4 <_realloc_r+0x194>
   1d174:	ffc7f793          	andi	a5,a5,-4
   1d178:	013786b3          	add	a3,a5,s3
   1d17c:	010a0613          	addi	a2,s4,16
   1d180:	22c6de63          	bge	a3,a2,1d3bc <_realloc_r+0x49c>
   1d184:	00177713          	andi	a4,a4,1
   1d188:	e60710e3          	bnez	a4,1cfe8 <_realloc_r+0xc8>
   1d18c:	ff842b83          	lw	s7,-8(s0)
   1d190:	417a8bb3          	sub	s7,s5,s7
   1d194:	004ba703          	lw	a4,4(s7)
   1d198:	ffc77713          	andi	a4,a4,-4
   1d19c:	00e787b3          	add	a5,a5,a4
   1d1a0:	01378b33          	add	s6,a5,s3
   1d1a4:	e2cb4ee3          	blt	s6,a2,1cfe0 <_realloc_r+0xc0>
   1d1a8:	00cba783          	lw	a5,12(s7)
   1d1ac:	008ba703          	lw	a4,8(s7)
   1d1b0:	ffc98613          	addi	a2,s3,-4
   1d1b4:	02400693          	li	a3,36
   1d1b8:	00f72623          	sw	a5,12(a4)
   1d1bc:	00e7a423          	sw	a4,8(a5)
   1d1c0:	008b8493          	addi	s1,s7,8
   1d1c4:	26c6e263          	bltu	a3,a2,1d428 <_realloc_r+0x508>
   1d1c8:	01300713          	li	a4,19
   1d1cc:	00048793          	mv	a5,s1
   1d1d0:	02c77263          	bgeu	a4,a2,1d1f4 <_realloc_r+0x2d4>
   1d1d4:	00042703          	lw	a4,0(s0)
   1d1d8:	01b00793          	li	a5,27
   1d1dc:	00eba423          	sw	a4,8(s7)
   1d1e0:	00442703          	lw	a4,4(s0)
   1d1e4:	00eba623          	sw	a4,12(s7)
   1d1e8:	24c7e863          	bltu	a5,a2,1d438 <_realloc_r+0x518>
   1d1ec:	00840413          	addi	s0,s0,8
   1d1f0:	010b8793          	addi	a5,s7,16
   1d1f4:	00042703          	lw	a4,0(s0)
   1d1f8:	00e7a023          	sw	a4,0(a5)
   1d1fc:	00442703          	lw	a4,4(s0)
   1d200:	00e7a223          	sw	a4,4(a5)
   1d204:	00842703          	lw	a4,8(s0)
   1d208:	00e7a423          	sw	a4,8(a5)
   1d20c:	014b8733          	add	a4,s7,s4
   1d210:	414b07b3          	sub	a5,s6,s4
   1d214:	00ec2423          	sw	a4,8(s8)
   1d218:	0017e793          	ori	a5,a5,1
   1d21c:	00f72223          	sw	a5,4(a4)
   1d220:	004ba783          	lw	a5,4(s7)
   1d224:	00090513          	mv	a0,s2
   1d228:	0017f793          	andi	a5,a5,1
   1d22c:	0147e7b3          	or	a5,a5,s4
   1d230:	00fba223          	sw	a5,4(s7)
   1d234:	ac1f30ef          	jal	ra,10cf4 <__malloc_unlock>
   1d238:	e89ff06f          	j	1d0c0 <_realloc_r+0x1a0>
   1d23c:	00042683          	lw	a3,0(s0)
   1d240:	01b00713          	li	a4,27
   1d244:	00d52023          	sw	a3,0(a0)
   1d248:	00442683          	lw	a3,4(s0)
   1d24c:	00d52223          	sw	a3,4(a0)
   1d250:	14c76663          	bltu	a4,a2,1d39c <_realloc_r+0x47c>
   1d254:	00840713          	addi	a4,s0,8
   1d258:	00850793          	addi	a5,a0,8
   1d25c:	dd1ff06f          	j	1d02c <_realloc_r+0x10c>
   1d260:	ffc52783          	lw	a5,-4(a0)
   1d264:	ffc7f793          	andi	a5,a5,-4
   1d268:	00f989b3          	add	s3,s3,a5
   1d26c:	e1dff06f          	j	1d088 <_realloc_r+0x168>
   1d270:	00cba783          	lw	a5,12(s7)
   1d274:	008ba703          	lw	a4,8(s7)
   1d278:	ffc98613          	addi	a2,s3,-4
   1d27c:	02400693          	li	a3,36
   1d280:	00f72623          	sw	a5,12(a4)
   1d284:	00e7a423          	sw	a4,8(a5)
   1d288:	008b8493          	addi	s1,s7,8
   1d28c:	10c6e063          	bltu	a3,a2,1d38c <_realloc_r+0x46c>
   1d290:	01300713          	li	a4,19
   1d294:	00048793          	mv	a5,s1
   1d298:	02c77c63          	bgeu	a4,a2,1d2d0 <_realloc_r+0x3b0>
   1d29c:	00042703          	lw	a4,0(s0)
   1d2a0:	01b00793          	li	a5,27
   1d2a4:	00eba423          	sw	a4,8(s7)
   1d2a8:	00442703          	lw	a4,4(s0)
   1d2ac:	00eba623          	sw	a4,12(s7)
   1d2b0:	14c7f063          	bgeu	a5,a2,1d3f0 <_realloc_r+0x4d0>
   1d2b4:	00842783          	lw	a5,8(s0)
   1d2b8:	00fba823          	sw	a5,16(s7)
   1d2bc:	00c42783          	lw	a5,12(s0)
   1d2c0:	00fbaa23          	sw	a5,20(s7)
   1d2c4:	0ad60663          	beq	a2,a3,1d370 <_realloc_r+0x450>
   1d2c8:	01040413          	addi	s0,s0,16
   1d2cc:	018b8793          	addi	a5,s7,24
   1d2d0:	00042703          	lw	a4,0(s0)
   1d2d4:	00e7a023          	sw	a4,0(a5)
   1d2d8:	00442703          	lw	a4,4(s0)
   1d2dc:	00e7a223          	sw	a4,4(a5)
   1d2e0:	00842703          	lw	a4,8(s0)
   1d2e4:	00e7a423          	sw	a4,8(a5)
   1d2e8:	00048413          	mv	s0,s1
   1d2ec:	000b0993          	mv	s3,s6
   1d2f0:	000b8a93          	mv	s5,s7
   1d2f4:	d95ff06f          	j	1d088 <_realloc_r+0x168>
   1d2f8:	00040593          	mv	a1,s0
   1d2fc:	aadff0ef          	jal	ra,1cda8 <memmove>
   1d300:	d45ff06f          	j	1d044 <_realloc_r+0x124>
   1d304:	00c6a783          	lw	a5,12(a3)
   1d308:	0086a703          	lw	a4,8(a3)
   1d30c:	ffc98613          	addi	a2,s3,-4
   1d310:	02400693          	li	a3,36
   1d314:	00f72623          	sw	a5,12(a4)
   1d318:	00e7a423          	sw	a4,8(a5)
   1d31c:	008ba703          	lw	a4,8(s7)
   1d320:	00cba783          	lw	a5,12(s7)
   1d324:	008b8493          	addi	s1,s7,8
   1d328:	00f72623          	sw	a5,12(a4)
   1d32c:	00e7a423          	sw	a4,8(a5)
   1d330:	04c6ee63          	bltu	a3,a2,1d38c <_realloc_r+0x46c>
   1d334:	01300713          	li	a4,19
   1d338:	00048793          	mv	a5,s1
   1d33c:	f8c77ae3          	bgeu	a4,a2,1d2d0 <_realloc_r+0x3b0>
   1d340:	00042703          	lw	a4,0(s0)
   1d344:	01b00793          	li	a5,27
   1d348:	00eba423          	sw	a4,8(s7)
   1d34c:	00442703          	lw	a4,4(s0)
   1d350:	00eba623          	sw	a4,12(s7)
   1d354:	08c7fe63          	bgeu	a5,a2,1d3f0 <_realloc_r+0x4d0>
   1d358:	00842703          	lw	a4,8(s0)
   1d35c:	02400793          	li	a5,36
   1d360:	00eba823          	sw	a4,16(s7)
   1d364:	00c42703          	lw	a4,12(s0)
   1d368:	00ebaa23          	sw	a4,20(s7)
   1d36c:	f4f61ee3          	bne	a2,a5,1d2c8 <_realloc_r+0x3a8>
   1d370:	01042703          	lw	a4,16(s0)
   1d374:	020b8793          	addi	a5,s7,32
   1d378:	01840413          	addi	s0,s0,24
   1d37c:	00ebac23          	sw	a4,24(s7)
   1d380:	ffc42703          	lw	a4,-4(s0)
   1d384:	00ebae23          	sw	a4,28(s7)
   1d388:	f49ff06f          	j	1d2d0 <_realloc_r+0x3b0>
   1d38c:	00040593          	mv	a1,s0
   1d390:	00048513          	mv	a0,s1
   1d394:	a15ff0ef          	jal	ra,1cda8 <memmove>
   1d398:	f51ff06f          	j	1d2e8 <_realloc_r+0x3c8>
   1d39c:	00842703          	lw	a4,8(s0)
   1d3a0:	00e52423          	sw	a4,8(a0)
   1d3a4:	00c42703          	lw	a4,12(s0)
   1d3a8:	00e52623          	sw	a4,12(a0)
   1d3ac:	06f60063          	beq	a2,a5,1d40c <_realloc_r+0x4ec>
   1d3b0:	01040713          	addi	a4,s0,16
   1d3b4:	01050793          	addi	a5,a0,16
   1d3b8:	c75ff06f          	j	1d02c <_realloc_r+0x10c>
   1d3bc:	014a8ab3          	add	s5,s5,s4
   1d3c0:	414687b3          	sub	a5,a3,s4
   1d3c4:	015c2423          	sw	s5,8(s8)
   1d3c8:	0017e793          	ori	a5,a5,1
   1d3cc:	00faa223          	sw	a5,4(s5)
   1d3d0:	ffc42783          	lw	a5,-4(s0)
   1d3d4:	00090513          	mv	a0,s2
   1d3d8:	00040493          	mv	s1,s0
   1d3dc:	0017f793          	andi	a5,a5,1
   1d3e0:	0147e7b3          	or	a5,a5,s4
   1d3e4:	fef42e23          	sw	a5,-4(s0)
   1d3e8:	90df30ef          	jal	ra,10cf4 <__malloc_unlock>
   1d3ec:	cd5ff06f          	j	1d0c0 <_realloc_r+0x1a0>
   1d3f0:	00840413          	addi	s0,s0,8
   1d3f4:	010b8793          	addi	a5,s7,16
   1d3f8:	ed9ff06f          	j	1d2d0 <_realloc_r+0x3b0>
   1d3fc:	00090513          	mv	a0,s2
   1d400:	8f5f30ef          	jal	ra,10cf4 <__malloc_unlock>
   1d404:	00000493          	li	s1,0
   1d408:	cb9ff06f          	j	1d0c0 <_realloc_r+0x1a0>
   1d40c:	01042683          	lw	a3,16(s0)
   1d410:	01840713          	addi	a4,s0,24
   1d414:	01850793          	addi	a5,a0,24
   1d418:	00d52823          	sw	a3,16(a0)
   1d41c:	01442683          	lw	a3,20(s0)
   1d420:	00d52a23          	sw	a3,20(a0)
   1d424:	c09ff06f          	j	1d02c <_realloc_r+0x10c>
   1d428:	00040593          	mv	a1,s0
   1d42c:	00048513          	mv	a0,s1
   1d430:	979ff0ef          	jal	ra,1cda8 <memmove>
   1d434:	dd9ff06f          	j	1d20c <_realloc_r+0x2ec>
   1d438:	00842783          	lw	a5,8(s0)
   1d43c:	00fba823          	sw	a5,16(s7)
   1d440:	00c42783          	lw	a5,12(s0)
   1d444:	00fbaa23          	sw	a5,20(s7)
   1d448:	00d60863          	beq	a2,a3,1d458 <_realloc_r+0x538>
   1d44c:	01040413          	addi	s0,s0,16
   1d450:	018b8793          	addi	a5,s7,24
   1d454:	da1ff06f          	j	1d1f4 <_realloc_r+0x2d4>
   1d458:	01042703          	lw	a4,16(s0)
   1d45c:	020b8793          	addi	a5,s7,32
   1d460:	01840413          	addi	s0,s0,24
   1d464:	00ebac23          	sw	a4,24(s7)
   1d468:	ffc42703          	lw	a4,-4(s0)
   1d46c:	00ebae23          	sw	a4,28(s7)
   1d470:	d85ff06f          	j	1d1f4 <_realloc_r+0x2d4>

0001d474 <strncmp>:
   1d474:	0a060463          	beqz	a2,1d51c <strncmp+0xa8>
   1d478:	00b567b3          	or	a5,a0,a1
   1d47c:	0037f793          	andi	a5,a5,3
   1d480:	04079c63          	bnez	a5,1d4d8 <strncmp+0x64>
   1d484:	00300793          	li	a5,3
   1d488:	04c7f863          	bgeu	a5,a2,1d4d8 <strncmp+0x64>
   1d48c:	feff0337          	lui	t1,0xfeff0
   1d490:	808088b7          	lui	a7,0x80808
   1d494:	eff30313          	addi	t1,t1,-257 # fefefeff <__BSS_END__+0xfefcc0cf>
   1d498:	08088893          	addi	a7,a7,128 # 80808080 <__BSS_END__+0x807e4250>
   1d49c:	00300e13          	li	t3,3
   1d4a0:	01c0006f          	j	1d4bc <strncmp+0x48>
   1d4a4:	ffc60613          	addi	a2,a2,-4
   1d4a8:	06060a63          	beqz	a2,1d51c <strncmp+0xa8>
   1d4ac:	06079863          	bnez	a5,1d51c <strncmp+0xa8>
   1d4b0:	00450513          	addi	a0,a0,4
   1d4b4:	00458593          	addi	a1,a1,4
   1d4b8:	02ce7063          	bgeu	t3,a2,1d4d8 <strncmp+0x64>
   1d4bc:	00052703          	lw	a4,0(a0)
   1d4c0:	0005a683          	lw	a3,0(a1)
   1d4c4:	006707b3          	add	a5,a4,t1
   1d4c8:	fff74813          	not	a6,a4
   1d4cc:	0107f7b3          	and	a5,a5,a6
   1d4d0:	0117f7b3          	and	a5,a5,a7
   1d4d4:	fcd708e3          	beq	a4,a3,1d4a4 <strncmp+0x30>
   1d4d8:	00054683          	lbu	a3,0(a0)
   1d4dc:	0005c803          	lbu	a6,0(a1)
   1d4e0:	04d81263          	bne	a6,a3,1d524 <strncmp+0xb0>
   1d4e4:	00100793          	li	a5,1
   1d4e8:	02f60a63          	beq	a2,a5,1d51c <strncmp+0xa8>
   1d4ec:	00050713          	mv	a4,a0
   1d4f0:	0140006f          	j	1d504 <strncmp+0x90>
   1d4f4:	00074683          	lbu	a3,0(a4)
   1d4f8:	0005c803          	lbu	a6,0(a1)
   1d4fc:	03069463          	bne	a3,a6,1d524 <strncmp+0xb0>
   1d500:	00078e63          	beqz	a5,1d51c <strncmp+0xa8>
   1d504:	00170713          	addi	a4,a4,1
   1d508:	40e607b3          	sub	a5,a2,a4
   1d50c:	fff78793          	addi	a5,a5,-1
   1d510:	00158593          	addi	a1,a1,1
   1d514:	00f507b3          	add	a5,a0,a5
   1d518:	fc069ee3          	bnez	a3,1d4f4 <strncmp+0x80>
   1d51c:	00000513          	li	a0,0
   1d520:	00008067          	ret
   1d524:	41068533          	sub	a0,a3,a6
   1d528:	00008067          	ret

0001d52c <__swbuf_r>:
   1d52c:	fe010113          	addi	sp,sp,-32
   1d530:	00812c23          	sw	s0,24(sp)
   1d534:	00912a23          	sw	s1,20(sp)
   1d538:	01212823          	sw	s2,16(sp)
   1d53c:	00112e23          	sw	ra,28(sp)
   1d540:	01312623          	sw	s3,12(sp)
   1d544:	00050913          	mv	s2,a0
   1d548:	00058493          	mv	s1,a1
   1d54c:	00060413          	mv	s0,a2
   1d550:	00050663          	beqz	a0,1d55c <__swbuf_r+0x30>
   1d554:	03852783          	lw	a5,56(a0)
   1d558:	14078063          	beqz	a5,1d698 <__swbuf_r+0x16c>
   1d55c:	01842783          	lw	a5,24(s0)
   1d560:	00c41703          	lh	a4,12(s0)
   1d564:	00f42423          	sw	a5,8(s0)
   1d568:	00877793          	andi	a5,a4,8
   1d56c:	08078263          	beqz	a5,1d5f0 <__swbuf_r+0xc4>
   1d570:	01042783          	lw	a5,16(s0)
   1d574:	06078e63          	beqz	a5,1d5f0 <__swbuf_r+0xc4>
   1d578:	01271693          	slli	a3,a4,0x12
   1d57c:	0ff4f993          	zext.b	s3,s1
   1d580:	0ff4f493          	zext.b	s1,s1
   1d584:	0806da63          	bgez	a3,1d618 <__swbuf_r+0xec>
   1d588:	00042703          	lw	a4,0(s0)
   1d58c:	01442683          	lw	a3,20(s0)
   1d590:	40f707b3          	sub	a5,a4,a5
   1d594:	0ad7da63          	bge	a5,a3,1d648 <__swbuf_r+0x11c>
   1d598:	00842683          	lw	a3,8(s0)
   1d59c:	00170613          	addi	a2,a4,1
   1d5a0:	00c42023          	sw	a2,0(s0)
   1d5a4:	fff68693          	addi	a3,a3,-1
   1d5a8:	00d42423          	sw	a3,8(s0)
   1d5ac:	01370023          	sb	s3,0(a4)
   1d5b0:	01442703          	lw	a4,20(s0)
   1d5b4:	00178793          	addi	a5,a5,1
   1d5b8:	0cf70463          	beq	a4,a5,1d680 <__swbuf_r+0x154>
   1d5bc:	00c45783          	lhu	a5,12(s0)
   1d5c0:	0017f793          	andi	a5,a5,1
   1d5c4:	00078663          	beqz	a5,1d5d0 <__swbuf_r+0xa4>
   1d5c8:	00a00793          	li	a5,10
   1d5cc:	0af48a63          	beq	s1,a5,1d680 <__swbuf_r+0x154>
   1d5d0:	01c12083          	lw	ra,28(sp)
   1d5d4:	01812403          	lw	s0,24(sp)
   1d5d8:	01012903          	lw	s2,16(sp)
   1d5dc:	00c12983          	lw	s3,12(sp)
   1d5e0:	00048513          	mv	a0,s1
   1d5e4:	01412483          	lw	s1,20(sp)
   1d5e8:	02010113          	addi	sp,sp,32
   1d5ec:	00008067          	ret
   1d5f0:	00040593          	mv	a1,s0
   1d5f4:	00090513          	mv	a0,s2
   1d5f8:	e38f60ef          	jal	ra,13c30 <__swsetup_r>
   1d5fc:	08051a63          	bnez	a0,1d690 <__swbuf_r+0x164>
   1d600:	00c41703          	lh	a4,12(s0)
   1d604:	0ff4f993          	zext.b	s3,s1
   1d608:	01042783          	lw	a5,16(s0)
   1d60c:	01271693          	slli	a3,a4,0x12
   1d610:	0ff4f493          	zext.b	s1,s1
   1d614:	f606cae3          	bltz	a3,1d588 <__swbuf_r+0x5c>
   1d618:	06442683          	lw	a3,100(s0)
   1d61c:	00002637          	lui	a2,0x2
   1d620:	00c76733          	or	a4,a4,a2
   1d624:	ffffe637          	lui	a2,0xffffe
   1d628:	fff60613          	addi	a2,a2,-1 # ffffdfff <__BSS_END__+0xfffda1cf>
   1d62c:	00c6f6b3          	and	a3,a3,a2
   1d630:	00e41623          	sh	a4,12(s0)
   1d634:	00042703          	lw	a4,0(s0)
   1d638:	06d42223          	sw	a3,100(s0)
   1d63c:	01442683          	lw	a3,20(s0)
   1d640:	40f707b3          	sub	a5,a4,a5
   1d644:	f4d7cae3          	blt	a5,a3,1d598 <__swbuf_r+0x6c>
   1d648:	00040593          	mv	a1,s0
   1d64c:	00090513          	mv	a0,s2
   1d650:	ca0f80ef          	jal	ra,15af0 <_fflush_r>
   1d654:	02051e63          	bnez	a0,1d690 <__swbuf_r+0x164>
   1d658:	00042703          	lw	a4,0(s0)
   1d65c:	00842683          	lw	a3,8(s0)
   1d660:	00100793          	li	a5,1
   1d664:	00170613          	addi	a2,a4,1
   1d668:	fff68693          	addi	a3,a3,-1
   1d66c:	00c42023          	sw	a2,0(s0)
   1d670:	00d42423          	sw	a3,8(s0)
   1d674:	01370023          	sb	s3,0(a4)
   1d678:	01442703          	lw	a4,20(s0)
   1d67c:	f4f710e3          	bne	a4,a5,1d5bc <__swbuf_r+0x90>
   1d680:	00040593          	mv	a1,s0
   1d684:	00090513          	mv	a0,s2
   1d688:	c68f80ef          	jal	ra,15af0 <_fflush_r>
   1d68c:	f40502e3          	beqz	a0,1d5d0 <__swbuf_r+0xa4>
   1d690:	fff00493          	li	s1,-1
   1d694:	f3dff06f          	j	1d5d0 <__swbuf_r+0xa4>
   1d698:	f10f80ef          	jal	ra,15da8 <__sinit>
   1d69c:	ec1ff06f          	j	1d55c <__swbuf_r+0x30>

0001d6a0 <__swbuf>:
   1d6a0:	00058613          	mv	a2,a1
   1d6a4:	00050593          	mv	a1,a0
   1d6a8:	2301a503          	lw	a0,560(gp) # 23af0 <_impure_ptr>
   1d6ac:	e81ff06f          	j	1d52c <__swbuf_r>

0001d6b0 <abort>:
   1d6b0:	ff010113          	addi	sp,sp,-16
   1d6b4:	00600513          	li	a0,6
   1d6b8:	00112623          	sw	ra,12(sp)
   1d6bc:	2ac000ef          	jal	ra,1d968 <raise>
   1d6c0:	00100513          	li	a0,1
   1d6c4:	5d0000ef          	jal	ra,1dc94 <_exit>

0001d6c8 <__env_lock>:
   1d6c8:	26418513          	addi	a0,gp,612 # 23b24 <__lock___env_recursive_mutex>
   1d6cc:	c65f906f          	j	17330 <__retarget_lock_acquire_recursive>

0001d6d0 <__env_unlock>:
   1d6d0:	26418513          	addi	a0,gp,612 # 23b24 <__lock___env_recursive_mutex>
   1d6d4:	c75f906f          	j	17348 <__retarget_lock_release_recursive>

0001d6d8 <_init_signal_r>:
   1d6d8:	2dc52783          	lw	a5,732(a0)
   1d6dc:	00078663          	beqz	a5,1d6e8 <_init_signal_r+0x10>
   1d6e0:	00000513          	li	a0,0
   1d6e4:	00008067          	ret
   1d6e8:	ff010113          	addi	sp,sp,-16
   1d6ec:	08000593          	li	a1,128
   1d6f0:	00812423          	sw	s0,8(sp)
   1d6f4:	00112623          	sw	ra,12(sp)
   1d6f8:	00050413          	mv	s0,a0
   1d6fc:	d95f20ef          	jal	ra,10490 <_malloc_r>
   1d700:	2ca42e23          	sw	a0,732(s0)
   1d704:	02050463          	beqz	a0,1d72c <_init_signal_r+0x54>
   1d708:	08050793          	addi	a5,a0,128
   1d70c:	00052023          	sw	zero,0(a0)
   1d710:	00450513          	addi	a0,a0,4
   1d714:	fef51ce3          	bne	a0,a5,1d70c <_init_signal_r+0x34>
   1d718:	00000513          	li	a0,0
   1d71c:	00c12083          	lw	ra,12(sp)
   1d720:	00812403          	lw	s0,8(sp)
   1d724:	01010113          	addi	sp,sp,16
   1d728:	00008067          	ret
   1d72c:	fff00513          	li	a0,-1
   1d730:	fedff06f          	j	1d71c <_init_signal_r+0x44>

0001d734 <_signal_r>:
   1d734:	fe010113          	addi	sp,sp,-32
   1d738:	00912a23          	sw	s1,20(sp)
   1d73c:	00112e23          	sw	ra,28(sp)
   1d740:	00812c23          	sw	s0,24(sp)
   1d744:	01f00793          	li	a5,31
   1d748:	00050493          	mv	s1,a0
   1d74c:	02b7ea63          	bltu	a5,a1,1d780 <_signal_r+0x4c>
   1d750:	2dc52783          	lw	a5,732(a0)
   1d754:	00058413          	mv	s0,a1
   1d758:	02078c63          	beqz	a5,1d790 <_signal_r+0x5c>
   1d75c:	00241413          	slli	s0,s0,0x2
   1d760:	008787b3          	add	a5,a5,s0
   1d764:	0007a503          	lw	a0,0(a5)
   1d768:	00c7a023          	sw	a2,0(a5)
   1d76c:	01c12083          	lw	ra,28(sp)
   1d770:	01812403          	lw	s0,24(sp)
   1d774:	01412483          	lw	s1,20(sp)
   1d778:	02010113          	addi	sp,sp,32
   1d77c:	00008067          	ret
   1d780:	01600793          	li	a5,22
   1d784:	00f52023          	sw	a5,0(a0)
   1d788:	fff00513          	li	a0,-1
   1d78c:	fe1ff06f          	j	1d76c <_signal_r+0x38>
   1d790:	08000593          	li	a1,128
   1d794:	00c12623          	sw	a2,12(sp)
   1d798:	cf9f20ef          	jal	ra,10490 <_malloc_r>
   1d79c:	2ca4ae23          	sw	a0,732(s1)
   1d7a0:	00c12603          	lw	a2,12(sp)
   1d7a4:	00050793          	mv	a5,a0
   1d7a8:	00050713          	mv	a4,a0
   1d7ac:	08050693          	addi	a3,a0,128
   1d7b0:	fc050ce3          	beqz	a0,1d788 <_signal_r+0x54>
   1d7b4:	00072023          	sw	zero,0(a4)
   1d7b8:	00470713          	addi	a4,a4,4
   1d7bc:	fed71ce3          	bne	a4,a3,1d7b4 <_signal_r+0x80>
   1d7c0:	f9dff06f          	j	1d75c <_signal_r+0x28>

0001d7c4 <_raise_r>:
   1d7c4:	ff010113          	addi	sp,sp,-16
   1d7c8:	00912223          	sw	s1,4(sp)
   1d7cc:	00112623          	sw	ra,12(sp)
   1d7d0:	00812423          	sw	s0,8(sp)
   1d7d4:	01f00793          	li	a5,31
   1d7d8:	00050493          	mv	s1,a0
   1d7dc:	08b7ee63          	bltu	a5,a1,1d878 <_raise_r+0xb4>
   1d7e0:	2dc52783          	lw	a5,732(a0)
   1d7e4:	00058413          	mv	s0,a1
   1d7e8:	04078463          	beqz	a5,1d830 <_raise_r+0x6c>
   1d7ec:	00259713          	slli	a4,a1,0x2
   1d7f0:	00e787b3          	add	a5,a5,a4
   1d7f4:	0007a703          	lw	a4,0(a5)
   1d7f8:	02070c63          	beqz	a4,1d830 <_raise_r+0x6c>
   1d7fc:	00100693          	li	a3,1
   1d800:	00d70c63          	beq	a4,a3,1d818 <_raise_r+0x54>
   1d804:	fff00693          	li	a3,-1
   1d808:	04d70863          	beq	a4,a3,1d858 <_raise_r+0x94>
   1d80c:	0007a023          	sw	zero,0(a5)
   1d810:	00058513          	mv	a0,a1
   1d814:	000700e7          	jalr	a4
   1d818:	00000513          	li	a0,0
   1d81c:	00c12083          	lw	ra,12(sp)
   1d820:	00812403          	lw	s0,8(sp)
   1d824:	00412483          	lw	s1,4(sp)
   1d828:	01010113          	addi	sp,sp,16
   1d82c:	00008067          	ret
   1d830:	00048513          	mv	a0,s1
   1d834:	418000ef          	jal	ra,1dc4c <_getpid_r>
   1d838:	00040613          	mv	a2,s0
   1d83c:	00812403          	lw	s0,8(sp)
   1d840:	00c12083          	lw	ra,12(sp)
   1d844:	00050593          	mv	a1,a0
   1d848:	00048513          	mv	a0,s1
   1d84c:	00412483          	lw	s1,4(sp)
   1d850:	01010113          	addi	sp,sp,16
   1d854:	3a00006f          	j	1dbf4 <_kill_r>
   1d858:	00c12083          	lw	ra,12(sp)
   1d85c:	00812403          	lw	s0,8(sp)
   1d860:	01600793          	li	a5,22
   1d864:	00f52023          	sw	a5,0(a0)
   1d868:	00412483          	lw	s1,4(sp)
   1d86c:	00100513          	li	a0,1
   1d870:	01010113          	addi	sp,sp,16
   1d874:	00008067          	ret
   1d878:	01600793          	li	a5,22
   1d87c:	00f52023          	sw	a5,0(a0)
   1d880:	fff00513          	li	a0,-1
   1d884:	f99ff06f          	j	1d81c <_raise_r+0x58>

0001d888 <__sigtramp_r>:
   1d888:	01f00793          	li	a5,31
   1d88c:	0cb7ea63          	bltu	a5,a1,1d960 <__sigtramp_r+0xd8>
   1d890:	2dc52783          	lw	a5,732(a0)
   1d894:	ff010113          	addi	sp,sp,-16
   1d898:	00812423          	sw	s0,8(sp)
   1d89c:	00912223          	sw	s1,4(sp)
   1d8a0:	00112623          	sw	ra,12(sp)
   1d8a4:	00058413          	mv	s0,a1
   1d8a8:	00050493          	mv	s1,a0
   1d8ac:	08078063          	beqz	a5,1d92c <__sigtramp_r+0xa4>
   1d8b0:	00241713          	slli	a4,s0,0x2
   1d8b4:	00e787b3          	add	a5,a5,a4
   1d8b8:	0007a703          	lw	a4,0(a5)
   1d8bc:	02070c63          	beqz	a4,1d8f4 <__sigtramp_r+0x6c>
   1d8c0:	fff00693          	li	a3,-1
   1d8c4:	06d70063          	beq	a4,a3,1d924 <__sigtramp_r+0x9c>
   1d8c8:	00100693          	li	a3,1
   1d8cc:	04d70063          	beq	a4,a3,1d90c <__sigtramp_r+0x84>
   1d8d0:	00040513          	mv	a0,s0
   1d8d4:	0007a023          	sw	zero,0(a5)
   1d8d8:	000700e7          	jalr	a4
   1d8dc:	00000513          	li	a0,0
   1d8e0:	00c12083          	lw	ra,12(sp)
   1d8e4:	00812403          	lw	s0,8(sp)
   1d8e8:	00412483          	lw	s1,4(sp)
   1d8ec:	01010113          	addi	sp,sp,16
   1d8f0:	00008067          	ret
   1d8f4:	00c12083          	lw	ra,12(sp)
   1d8f8:	00812403          	lw	s0,8(sp)
   1d8fc:	00412483          	lw	s1,4(sp)
   1d900:	00100513          	li	a0,1
   1d904:	01010113          	addi	sp,sp,16
   1d908:	00008067          	ret
   1d90c:	00c12083          	lw	ra,12(sp)
   1d910:	00812403          	lw	s0,8(sp)
   1d914:	00412483          	lw	s1,4(sp)
   1d918:	00300513          	li	a0,3
   1d91c:	01010113          	addi	sp,sp,16
   1d920:	00008067          	ret
   1d924:	00200513          	li	a0,2
   1d928:	fb9ff06f          	j	1d8e0 <__sigtramp_r+0x58>
   1d92c:	08000593          	li	a1,128
   1d930:	b61f20ef          	jal	ra,10490 <_malloc_r>
   1d934:	2ca4ae23          	sw	a0,732(s1)
   1d938:	00050793          	mv	a5,a0
   1d93c:	00050e63          	beqz	a0,1d958 <__sigtramp_r+0xd0>
   1d940:	00050713          	mv	a4,a0
   1d944:	08050693          	addi	a3,a0,128
   1d948:	00072023          	sw	zero,0(a4)
   1d94c:	00470713          	addi	a4,a4,4
   1d950:	fee69ce3          	bne	a3,a4,1d948 <__sigtramp_r+0xc0>
   1d954:	f5dff06f          	j	1d8b0 <__sigtramp_r+0x28>
   1d958:	fff00513          	li	a0,-1
   1d95c:	f85ff06f          	j	1d8e0 <__sigtramp_r+0x58>
   1d960:	fff00513          	li	a0,-1
   1d964:	00008067          	ret

0001d968 <raise>:
   1d968:	ff010113          	addi	sp,sp,-16
   1d96c:	00912223          	sw	s1,4(sp)
   1d970:	00112623          	sw	ra,12(sp)
   1d974:	00812423          	sw	s0,8(sp)
   1d978:	01f00793          	li	a5,31
   1d97c:	2301a483          	lw	s1,560(gp) # 23af0 <_impure_ptr>
   1d980:	08a7ec63          	bltu	a5,a0,1da18 <raise+0xb0>
   1d984:	2dc4a783          	lw	a5,732(s1)
   1d988:	00050413          	mv	s0,a0
   1d98c:	04078263          	beqz	a5,1d9d0 <raise+0x68>
   1d990:	00251713          	slli	a4,a0,0x2
   1d994:	00e787b3          	add	a5,a5,a4
   1d998:	0007a703          	lw	a4,0(a5)
   1d99c:	02070a63          	beqz	a4,1d9d0 <raise+0x68>
   1d9a0:	00100693          	li	a3,1
   1d9a4:	00d70a63          	beq	a4,a3,1d9b8 <raise+0x50>
   1d9a8:	fff00693          	li	a3,-1
   1d9ac:	04d70663          	beq	a4,a3,1d9f8 <raise+0x90>
   1d9b0:	0007a023          	sw	zero,0(a5)
   1d9b4:	000700e7          	jalr	a4
   1d9b8:	00000513          	li	a0,0
   1d9bc:	00c12083          	lw	ra,12(sp)
   1d9c0:	00812403          	lw	s0,8(sp)
   1d9c4:	00412483          	lw	s1,4(sp)
   1d9c8:	01010113          	addi	sp,sp,16
   1d9cc:	00008067          	ret
   1d9d0:	00048513          	mv	a0,s1
   1d9d4:	278000ef          	jal	ra,1dc4c <_getpid_r>
   1d9d8:	00040613          	mv	a2,s0
   1d9dc:	00812403          	lw	s0,8(sp)
   1d9e0:	00c12083          	lw	ra,12(sp)
   1d9e4:	00050593          	mv	a1,a0
   1d9e8:	00048513          	mv	a0,s1
   1d9ec:	00412483          	lw	s1,4(sp)
   1d9f0:	01010113          	addi	sp,sp,16
   1d9f4:	2000006f          	j	1dbf4 <_kill_r>
   1d9f8:	00c12083          	lw	ra,12(sp)
   1d9fc:	00812403          	lw	s0,8(sp)
   1da00:	01600793          	li	a5,22
   1da04:	00f4a023          	sw	a5,0(s1)
   1da08:	00100513          	li	a0,1
   1da0c:	00412483          	lw	s1,4(sp)
   1da10:	01010113          	addi	sp,sp,16
   1da14:	00008067          	ret
   1da18:	01600793          	li	a5,22
   1da1c:	00f4a023          	sw	a5,0(s1)
   1da20:	fff00513          	li	a0,-1
   1da24:	f99ff06f          	j	1d9bc <raise+0x54>

0001da28 <signal>:
   1da28:	ff010113          	addi	sp,sp,-16
   1da2c:	01212023          	sw	s2,0(sp)
   1da30:	00112623          	sw	ra,12(sp)
   1da34:	00812423          	sw	s0,8(sp)
   1da38:	00912223          	sw	s1,4(sp)
   1da3c:	01f00793          	li	a5,31
   1da40:	2301a903          	lw	s2,560(gp) # 23af0 <_impure_ptr>
   1da44:	02a7ee63          	bltu	a5,a0,1da80 <signal+0x58>
   1da48:	00050413          	mv	s0,a0
   1da4c:	2dc92503          	lw	a0,732(s2)
   1da50:	00058493          	mv	s1,a1
   1da54:	02050e63          	beqz	a0,1da90 <signal+0x68>
   1da58:	00241413          	slli	s0,s0,0x2
   1da5c:	008507b3          	add	a5,a0,s0
   1da60:	0007a503          	lw	a0,0(a5)
   1da64:	0097a023          	sw	s1,0(a5)
   1da68:	00c12083          	lw	ra,12(sp)
   1da6c:	00812403          	lw	s0,8(sp)
   1da70:	00412483          	lw	s1,4(sp)
   1da74:	00012903          	lw	s2,0(sp)
   1da78:	01010113          	addi	sp,sp,16
   1da7c:	00008067          	ret
   1da80:	01600793          	li	a5,22
   1da84:	00f92023          	sw	a5,0(s2)
   1da88:	fff00513          	li	a0,-1
   1da8c:	fddff06f          	j	1da68 <signal+0x40>
   1da90:	08000593          	li	a1,128
   1da94:	00090513          	mv	a0,s2
   1da98:	9f9f20ef          	jal	ra,10490 <_malloc_r>
   1da9c:	2ca92e23          	sw	a0,732(s2)
   1daa0:	00050793          	mv	a5,a0
   1daa4:	08050713          	addi	a4,a0,128
   1daa8:	fe0500e3          	beqz	a0,1da88 <signal+0x60>
   1daac:	0007a023          	sw	zero,0(a5)
   1dab0:	00478793          	addi	a5,a5,4
   1dab4:	fee79ce3          	bne	a5,a4,1daac <signal+0x84>
   1dab8:	fa1ff06f          	j	1da58 <signal+0x30>

0001dabc <_init_signal>:
   1dabc:	ff010113          	addi	sp,sp,-16
   1dac0:	00812423          	sw	s0,8(sp)
   1dac4:	2301a403          	lw	s0,560(gp) # 23af0 <_impure_ptr>
   1dac8:	2dc42783          	lw	a5,732(s0)
   1dacc:	00112623          	sw	ra,12(sp)
   1dad0:	00078c63          	beqz	a5,1dae8 <_init_signal+0x2c>
   1dad4:	00000513          	li	a0,0
   1dad8:	00c12083          	lw	ra,12(sp)
   1dadc:	00812403          	lw	s0,8(sp)
   1dae0:	01010113          	addi	sp,sp,16
   1dae4:	00008067          	ret
   1dae8:	08000593          	li	a1,128
   1daec:	00040513          	mv	a0,s0
   1daf0:	9a1f20ef          	jal	ra,10490 <_malloc_r>
   1daf4:	2ca42e23          	sw	a0,732(s0)
   1daf8:	00050c63          	beqz	a0,1db10 <_init_signal+0x54>
   1dafc:	08050793          	addi	a5,a0,128
   1db00:	00052023          	sw	zero,0(a0)
   1db04:	00450513          	addi	a0,a0,4
   1db08:	fef51ce3          	bne	a0,a5,1db00 <_init_signal+0x44>
   1db0c:	fc9ff06f          	j	1dad4 <_init_signal+0x18>
   1db10:	fff00513          	li	a0,-1
   1db14:	fc5ff06f          	j	1dad8 <_init_signal+0x1c>

0001db18 <__sigtramp>:
   1db18:	ff010113          	addi	sp,sp,-16
   1db1c:	00912223          	sw	s1,4(sp)
   1db20:	00112623          	sw	ra,12(sp)
   1db24:	00812423          	sw	s0,8(sp)
   1db28:	01f00793          	li	a5,31
   1db2c:	2301a483          	lw	s1,560(gp) # 23af0 <_impure_ptr>
   1db30:	0aa7ee63          	bltu	a5,a0,1dbec <__sigtramp+0xd4>
   1db34:	2dc4a783          	lw	a5,732(s1)
   1db38:	00050413          	mv	s0,a0
   1db3c:	08078063          	beqz	a5,1dbbc <__sigtramp+0xa4>
   1db40:	00241713          	slli	a4,s0,0x2
   1db44:	00e787b3          	add	a5,a5,a4
   1db48:	0007a703          	lw	a4,0(a5)
   1db4c:	02070c63          	beqz	a4,1db84 <__sigtramp+0x6c>
   1db50:	fff00693          	li	a3,-1
   1db54:	06d70063          	beq	a4,a3,1dbb4 <__sigtramp+0x9c>
   1db58:	00100693          	li	a3,1
   1db5c:	04d70063          	beq	a4,a3,1db9c <__sigtramp+0x84>
   1db60:	00040513          	mv	a0,s0
   1db64:	0007a023          	sw	zero,0(a5)
   1db68:	000700e7          	jalr	a4
   1db6c:	00000513          	li	a0,0
   1db70:	00c12083          	lw	ra,12(sp)
   1db74:	00812403          	lw	s0,8(sp)
   1db78:	00412483          	lw	s1,4(sp)
   1db7c:	01010113          	addi	sp,sp,16
   1db80:	00008067          	ret
   1db84:	00c12083          	lw	ra,12(sp)
   1db88:	00812403          	lw	s0,8(sp)
   1db8c:	00412483          	lw	s1,4(sp)
   1db90:	00100513          	li	a0,1
   1db94:	01010113          	addi	sp,sp,16
   1db98:	00008067          	ret
   1db9c:	00c12083          	lw	ra,12(sp)
   1dba0:	00812403          	lw	s0,8(sp)
   1dba4:	00412483          	lw	s1,4(sp)
   1dba8:	00300513          	li	a0,3
   1dbac:	01010113          	addi	sp,sp,16
   1dbb0:	00008067          	ret
   1dbb4:	00200513          	li	a0,2
   1dbb8:	fb9ff06f          	j	1db70 <__sigtramp+0x58>
   1dbbc:	08000593          	li	a1,128
   1dbc0:	00048513          	mv	a0,s1
   1dbc4:	8cdf20ef          	jal	ra,10490 <_malloc_r>
   1dbc8:	2ca4ae23          	sw	a0,732(s1)
   1dbcc:	00050793          	mv	a5,a0
   1dbd0:	00050e63          	beqz	a0,1dbec <__sigtramp+0xd4>
   1dbd4:	00050713          	mv	a4,a0
   1dbd8:	08050693          	addi	a3,a0,128
   1dbdc:	00072023          	sw	zero,0(a4)
   1dbe0:	00470713          	addi	a4,a4,4
   1dbe4:	fee69ce3          	bne	a3,a4,1dbdc <__sigtramp+0xc4>
   1dbe8:	f59ff06f          	j	1db40 <__sigtramp+0x28>
   1dbec:	fff00513          	li	a0,-1
   1dbf0:	f81ff06f          	j	1db70 <__sigtramp+0x58>

0001dbf4 <_kill_r>:
   1dbf4:	ff010113          	addi	sp,sp,-16
   1dbf8:	00058713          	mv	a4,a1
   1dbfc:	00812423          	sw	s0,8(sp)
   1dc00:	00060593          	mv	a1,a2
   1dc04:	00050413          	mv	s0,a0
   1dc08:	00070513          	mv	a0,a4
   1dc0c:	2601ae23          	sw	zero,636(gp) # 23b3c <errno>
   1dc10:	00112623          	sw	ra,12(sp)
   1dc14:	158000ef          	jal	ra,1dd6c <_kill>
   1dc18:	fff00793          	li	a5,-1
   1dc1c:	00f50a63          	beq	a0,a5,1dc30 <_kill_r+0x3c>
   1dc20:	00c12083          	lw	ra,12(sp)
   1dc24:	00812403          	lw	s0,8(sp)
   1dc28:	01010113          	addi	sp,sp,16
   1dc2c:	00008067          	ret
   1dc30:	27c1a783          	lw	a5,636(gp) # 23b3c <errno>
   1dc34:	fe0786e3          	beqz	a5,1dc20 <_kill_r+0x2c>
   1dc38:	00c12083          	lw	ra,12(sp)
   1dc3c:	00f42023          	sw	a5,0(s0)
   1dc40:	00812403          	lw	s0,8(sp)
   1dc44:	01010113          	addi	sp,sp,16
   1dc48:	00008067          	ret

0001dc4c <_getpid_r>:
   1dc4c:	0d80006f          	j	1dd24 <_getpid>

0001dc50 <_close>:
   1dc50:	ff010113          	addi	sp,sp,-16
   1dc54:	00112623          	sw	ra,12(sp)
   1dc58:	00812423          	sw	s0,8(sp)
   1dc5c:	03900893          	li	a7,57
   1dc60:	00000073          	ecall
   1dc64:	00050413          	mv	s0,a0
   1dc68:	00054c63          	bltz	a0,1dc80 <_close+0x30>
   1dc6c:	00c12083          	lw	ra,12(sp)
   1dc70:	00040513          	mv	a0,s0
   1dc74:	00812403          	lw	s0,8(sp)
   1dc78:	01010113          	addi	sp,sp,16
   1dc7c:	00008067          	ret
   1dc80:	40800433          	neg	s0,s0
   1dc84:	d6cfe0ef          	jal	ra,1c1f0 <__errno>
   1dc88:	00852023          	sw	s0,0(a0)
   1dc8c:	fff00413          	li	s0,-1
   1dc90:	fddff06f          	j	1dc6c <_close+0x1c>

0001dc94 <_exit>:
   1dc94:	05d00893          	li	a7,93
   1dc98:	00000073          	ecall
   1dc9c:	00054463          	bltz	a0,1dca4 <_exit+0x10>
   1dca0:	0000006f          	j	1dca0 <_exit+0xc>
   1dca4:	ff010113          	addi	sp,sp,-16
   1dca8:	00812423          	sw	s0,8(sp)
   1dcac:	00050413          	mv	s0,a0
   1dcb0:	00112623          	sw	ra,12(sp)
   1dcb4:	40800433          	neg	s0,s0
   1dcb8:	d38fe0ef          	jal	ra,1c1f0 <__errno>
   1dcbc:	00852023          	sw	s0,0(a0)
   1dcc0:	0000006f          	j	1dcc0 <_exit+0x2c>

0001dcc4 <_fstat>:
   1dcc4:	f7010113          	addi	sp,sp,-144
   1dcc8:	08912223          	sw	s1,132(sp)
   1dccc:	08112623          	sw	ra,140(sp)
   1dcd0:	00058493          	mv	s1,a1
   1dcd4:	08812423          	sw	s0,136(sp)
   1dcd8:	05000893          	li	a7,80
   1dcdc:	00010593          	mv	a1,sp
   1dce0:	00000073          	ecall
   1dce4:	00050413          	mv	s0,a0
   1dce8:	02054463          	bltz	a0,1dd10 <_fstat+0x4c>
   1dcec:	00048513          	mv	a0,s1
   1dcf0:	00010593          	mv	a1,sp
   1dcf4:	1e4000ef          	jal	ra,1ded8 <_conv_stat>
   1dcf8:	08c12083          	lw	ra,140(sp)
   1dcfc:	00040513          	mv	a0,s0
   1dd00:	08812403          	lw	s0,136(sp)
   1dd04:	08412483          	lw	s1,132(sp)
   1dd08:	09010113          	addi	sp,sp,144
   1dd0c:	00008067          	ret
   1dd10:	40800433          	neg	s0,s0
   1dd14:	cdcfe0ef          	jal	ra,1c1f0 <__errno>
   1dd18:	00852023          	sw	s0,0(a0)
   1dd1c:	fff00413          	li	s0,-1
   1dd20:	fcdff06f          	j	1dcec <_fstat+0x28>

0001dd24 <_getpid>:
   1dd24:	00100513          	li	a0,1
   1dd28:	00008067          	ret

0001dd2c <_isatty>:
   1dd2c:	f9010113          	addi	sp,sp,-112
   1dd30:	00810593          	addi	a1,sp,8
   1dd34:	06112623          	sw	ra,108(sp)
   1dd38:	f8dff0ef          	jal	ra,1dcc4 <_fstat>
   1dd3c:	fff00793          	li	a5,-1
   1dd40:	00f50e63          	beq	a0,a5,1dd5c <_isatty+0x30>
   1dd44:	00c12503          	lw	a0,12(sp)
   1dd48:	06c12083          	lw	ra,108(sp)
   1dd4c:	00d55513          	srli	a0,a0,0xd
   1dd50:	00157513          	andi	a0,a0,1
   1dd54:	07010113          	addi	sp,sp,112
   1dd58:	00008067          	ret
   1dd5c:	06c12083          	lw	ra,108(sp)
   1dd60:	00000513          	li	a0,0
   1dd64:	07010113          	addi	sp,sp,112
   1dd68:	00008067          	ret

0001dd6c <_kill>:
   1dd6c:	ff010113          	addi	sp,sp,-16
   1dd70:	00112623          	sw	ra,12(sp)
   1dd74:	c7cfe0ef          	jal	ra,1c1f0 <__errno>
   1dd78:	00c12083          	lw	ra,12(sp)
   1dd7c:	01600793          	li	a5,22
   1dd80:	00f52023          	sw	a5,0(a0)
   1dd84:	fff00513          	li	a0,-1
   1dd88:	01010113          	addi	sp,sp,16
   1dd8c:	00008067          	ret

0001dd90 <_lseek>:
   1dd90:	ff010113          	addi	sp,sp,-16
   1dd94:	00112623          	sw	ra,12(sp)
   1dd98:	00812423          	sw	s0,8(sp)
   1dd9c:	03e00893          	li	a7,62
   1dda0:	00000073          	ecall
   1dda4:	00050413          	mv	s0,a0
   1dda8:	00054c63          	bltz	a0,1ddc0 <_lseek+0x30>
   1ddac:	00c12083          	lw	ra,12(sp)
   1ddb0:	00040513          	mv	a0,s0
   1ddb4:	00812403          	lw	s0,8(sp)
   1ddb8:	01010113          	addi	sp,sp,16
   1ddbc:	00008067          	ret
   1ddc0:	40800433          	neg	s0,s0
   1ddc4:	c2cfe0ef          	jal	ra,1c1f0 <__errno>
   1ddc8:	00852023          	sw	s0,0(a0)
   1ddcc:	fff00413          	li	s0,-1
   1ddd0:	fddff06f          	j	1ddac <_lseek+0x1c>

0001ddd4 <_read>:
   1ddd4:	ff010113          	addi	sp,sp,-16
   1ddd8:	00112623          	sw	ra,12(sp)
   1dddc:	00812423          	sw	s0,8(sp)
   1dde0:	03f00893          	li	a7,63
   1dde4:	00000073          	ecall
   1dde8:	00050413          	mv	s0,a0
   1ddec:	00054c63          	bltz	a0,1de04 <_read+0x30>
   1ddf0:	00c12083          	lw	ra,12(sp)
   1ddf4:	00040513          	mv	a0,s0
   1ddf8:	00812403          	lw	s0,8(sp)
   1ddfc:	01010113          	addi	sp,sp,16
   1de00:	00008067          	ret
   1de04:	40800433          	neg	s0,s0
   1de08:	be8fe0ef          	jal	ra,1c1f0 <__errno>
   1de0c:	00852023          	sw	s0,0(a0)
   1de10:	fff00413          	li	s0,-1
   1de14:	fddff06f          	j	1ddf0 <_read+0x1c>

0001de18 <_sbrk>:
   1de18:	28418693          	addi	a3,gp,644 # 23b44 <heap_end.0>
   1de1c:	0006a703          	lw	a4,0(a3)
   1de20:	ff010113          	addi	sp,sp,-16
   1de24:	00112623          	sw	ra,12(sp)
   1de28:	00050793          	mv	a5,a0
   1de2c:	02071063          	bnez	a4,1de4c <_sbrk+0x34>
   1de30:	0d600893          	li	a7,214
   1de34:	00000513          	li	a0,0
   1de38:	00000073          	ecall
   1de3c:	fff00613          	li	a2,-1
   1de40:	00050713          	mv	a4,a0
   1de44:	02c50a63          	beq	a0,a2,1de78 <_sbrk+0x60>
   1de48:	00a6a023          	sw	a0,0(a3)
   1de4c:	0d600893          	li	a7,214
   1de50:	00e78533          	add	a0,a5,a4
   1de54:	00000073          	ecall
   1de58:	0006a703          	lw	a4,0(a3)
   1de5c:	00e787b3          	add	a5,a5,a4
   1de60:	00f51c63          	bne	a0,a5,1de78 <_sbrk+0x60>
   1de64:	00c12083          	lw	ra,12(sp)
   1de68:	00a6a023          	sw	a0,0(a3)
   1de6c:	00070513          	mv	a0,a4
   1de70:	01010113          	addi	sp,sp,16
   1de74:	00008067          	ret
   1de78:	b78fe0ef          	jal	ra,1c1f0 <__errno>
   1de7c:	00c12083          	lw	ra,12(sp)
   1de80:	00c00793          	li	a5,12
   1de84:	00f52023          	sw	a5,0(a0)
   1de88:	fff00513          	li	a0,-1
   1de8c:	01010113          	addi	sp,sp,16
   1de90:	00008067          	ret

0001de94 <_write>:
   1de94:	ff010113          	addi	sp,sp,-16
   1de98:	00112623          	sw	ra,12(sp)
   1de9c:	00812423          	sw	s0,8(sp)
   1dea0:	04000893          	li	a7,64
   1dea4:	00000073          	ecall
   1dea8:	00050413          	mv	s0,a0
   1deac:	00054c63          	bltz	a0,1dec4 <_write+0x30>
   1deb0:	00c12083          	lw	ra,12(sp)
   1deb4:	00040513          	mv	a0,s0
   1deb8:	00812403          	lw	s0,8(sp)
   1debc:	01010113          	addi	sp,sp,16
   1dec0:	00008067          	ret
   1dec4:	40800433          	neg	s0,s0
   1dec8:	b28fe0ef          	jal	ra,1c1f0 <__errno>
   1decc:	00852023          	sw	s0,0(a0)
   1ded0:	fff00413          	li	s0,-1
   1ded4:	fddff06f          	j	1deb0 <_write+0x1c>

0001ded8 <_conv_stat>:
   1ded8:	0185d703          	lhu	a4,24(a1)
   1dedc:	0145d783          	lhu	a5,20(a1)
   1dee0:	ff010113          	addi	sp,sp,-16
   1dee4:	01c5a283          	lw	t0,28(a1)
   1dee8:	0205af83          	lw	t6,32(a1)
   1deec:	0305af03          	lw	t5,48(a1)
   1def0:	0405ae83          	lw	t4,64(a1)
   1def4:	0385ae03          	lw	t3,56(a1)
   1def8:	0485a303          	lw	t1,72(a1)
   1defc:	04c5a383          	lw	t2,76(a1)
   1df00:	0585a803          	lw	a6,88(a1)
   1df04:	05c5a883          	lw	a7,92(a1)
   1df08:	00812623          	sw	s0,12(sp)
   1df0c:	00912423          	sw	s1,8(sp)
   1df10:	0105a403          	lw	s0,16(a1)
   1df14:	0085a483          	lw	s1,8(a1)
   1df18:	01212223          	sw	s2,4(sp)
   1df1c:	0005a903          	lw	s2,0(a1)
   1df20:	0685a603          	lw	a2,104(a1)
   1df24:	01071713          	slli	a4,a4,0x10
   1df28:	00e7e7b3          	or	a5,a5,a4
   1df2c:	06c5a683          	lw	a3,108(a1)
   1df30:	01251023          	sh	s2,0(a0)
   1df34:	00951123          	sh	s1,2(a0)
   1df38:	00852223          	sw	s0,4(a0)
   1df3c:	00f52423          	sw	a5,8(a0)
   1df40:	00551623          	sh	t0,12(a0)
   1df44:	01f51723          	sh	t6,14(a0)
   1df48:	01e52823          	sw	t5,16(a0)
   1df4c:	05d52623          	sw	t4,76(a0)
   1df50:	05c52423          	sw	t3,72(a0)
   1df54:	00652c23          	sw	t1,24(a0)
   1df58:	00752e23          	sw	t2,28(a0)
   1df5c:	03052423          	sw	a6,40(a0)
   1df60:	03152623          	sw	a7,44(a0)
   1df64:	02c52c23          	sw	a2,56(a0)
   1df68:	00c12403          	lw	s0,12(sp)
   1df6c:	02d52e23          	sw	a3,60(a0)
   1df70:	00812483          	lw	s1,8(sp)
   1df74:	00412903          	lw	s2,4(sp)
   1df78:	01010113          	addi	sp,sp,16
   1df7c:	00008067          	ret

0001df80 <__udivdi3>:
   1df80:	fd010113          	addi	sp,sp,-48
   1df84:	02912223          	sw	s1,36(sp)
   1df88:	02112623          	sw	ra,44(sp)
   1df8c:	02812423          	sw	s0,40(sp)
   1df90:	03212023          	sw	s2,32(sp)
   1df94:	01312e23          	sw	s3,28(sp)
   1df98:	01412c23          	sw	s4,24(sp)
   1df9c:	01512a23          	sw	s5,20(sp)
   1dfa0:	01612823          	sw	s6,16(sp)
   1dfa4:	01712623          	sw	s7,12(sp)
   1dfa8:	01812423          	sw	s8,8(sp)
   1dfac:	01912223          	sw	s9,4(sp)
   1dfb0:	00050493          	mv	s1,a0
   1dfb4:	12069a63          	bnez	a3,1e0e8 <__udivdi3+0x168>
   1dfb8:	00060993          	mv	s3,a2
   1dfbc:	00050913          	mv	s2,a0
   1dfc0:	1cc5f063          	bgeu	a1,a2,1e180 <__udivdi3+0x200>
   1dfc4:	000107b7          	lui	a5,0x10
   1dfc8:	00058a13          	mv	s4,a1
   1dfcc:	2af66e63          	bltu	a2,a5,1e288 <__udivdi3+0x308>
   1dfd0:	010007b7          	lui	a5,0x1000
   1dfd4:	00f637b3          	sltu	a5,a2,a5
   1dfd8:	40f007b3          	neg	a5,a5
   1dfdc:	ff87f793          	andi	a5,a5,-8
   1dfe0:	01878793          	addi	a5,a5,24 # 1000018 <__BSS_END__+0xfdc1e8>
   1dfe4:	00f656b3          	srl	a3,a2,a5
   1dfe8:	00004717          	auipc	a4,0x4
   1dfec:	4c870713          	addi	a4,a4,1224 # 224b0 <__clz_tab>
   1dff0:	00d70733          	add	a4,a4,a3
   1dff4:	00074703          	lbu	a4,0(a4)
   1dff8:	02000693          	li	a3,32
   1dffc:	00f707b3          	add	a5,a4,a5
   1e000:	40f68733          	sub	a4,a3,a5
   1e004:	00f68c63          	beq	a3,a5,1e01c <__udivdi3+0x9c>
   1e008:	00e59a33          	sll	s4,a1,a4
   1e00c:	00f4d7b3          	srl	a5,s1,a5
   1e010:	00e619b3          	sll	s3,a2,a4
   1e014:	0147ea33          	or	s4,a5,s4
   1e018:	00e49933          	sll	s2,s1,a4
   1e01c:	0109da93          	srli	s5,s3,0x10
   1e020:	000a8593          	mv	a1,s5
   1e024:	000a0513          	mv	a0,s4
   1e028:	01099b13          	slli	s6,s3,0x10
   1e02c:	690030ef          	jal	ra,216bc <__hidden___udivsi3>
   1e030:	010b5b13          	srli	s6,s6,0x10
   1e034:	00050593          	mv	a1,a0
   1e038:	00050413          	mv	s0,a0
   1e03c:	000b0513          	mv	a0,s6
   1e040:	650030ef          	jal	ra,21690 <__mulsi3>
   1e044:	00050493          	mv	s1,a0
   1e048:	000a8593          	mv	a1,s5
   1e04c:	000a0513          	mv	a0,s4
   1e050:	6b4030ef          	jal	ra,21704 <__umodsi3>
   1e054:	01051513          	slli	a0,a0,0x10
   1e058:	01095793          	srli	a5,s2,0x10
   1e05c:	00a7e7b3          	or	a5,a5,a0
   1e060:	0097fc63          	bgeu	a5,s1,1e078 <__udivdi3+0xf8>
   1e064:	00f987b3          	add	a5,s3,a5
   1e068:	fff40713          	addi	a4,s0,-1
   1e06c:	0137e463          	bltu	a5,s3,1e074 <__udivdi3+0xf4>
   1e070:	5497e863          	bltu	a5,s1,1e5c0 <__udivdi3+0x640>
   1e074:	00070413          	mv	s0,a4
   1e078:	409784b3          	sub	s1,a5,s1
   1e07c:	000a8593          	mv	a1,s5
   1e080:	00048513          	mv	a0,s1
   1e084:	638030ef          	jal	ra,216bc <__hidden___udivsi3>
   1e088:	00050593          	mv	a1,a0
   1e08c:	00050a13          	mv	s4,a0
   1e090:	000b0513          	mv	a0,s6
   1e094:	5fc030ef          	jal	ra,21690 <__mulsi3>
   1e098:	00050793          	mv	a5,a0
   1e09c:	000a8593          	mv	a1,s5
   1e0a0:	00048513          	mv	a0,s1
   1e0a4:	01091913          	slli	s2,s2,0x10
   1e0a8:	00078493          	mv	s1,a5
   1e0ac:	658030ef          	jal	ra,21704 <__umodsi3>
   1e0b0:	01051513          	slli	a0,a0,0x10
   1e0b4:	01095913          	srli	s2,s2,0x10
   1e0b8:	00a96933          	or	s2,s2,a0
   1e0bc:	00997e63          	bgeu	s2,s1,1e0d8 <__udivdi3+0x158>
   1e0c0:	01298933          	add	s2,s3,s2
   1e0c4:	fffa0793          	addi	a5,s4,-1
   1e0c8:	01396663          	bltu	s2,s3,1e0d4 <__udivdi3+0x154>
   1e0cc:	ffea0a13          	addi	s4,s4,-2
   1e0d0:	00996463          	bltu	s2,s1,1e0d8 <__udivdi3+0x158>
   1e0d4:	00078a13          	mv	s4,a5
   1e0d8:	01041413          	slli	s0,s0,0x10
   1e0dc:	01446533          	or	a0,s0,s4
   1e0e0:	00000b13          	li	s6,0
   1e0e4:	0100006f          	j	1e0f4 <__udivdi3+0x174>
   1e0e8:	04d5f263          	bgeu	a1,a3,1e12c <__udivdi3+0x1ac>
   1e0ec:	00000b13          	li	s6,0
   1e0f0:	00000513          	li	a0,0
   1e0f4:	02c12083          	lw	ra,44(sp)
   1e0f8:	02812403          	lw	s0,40(sp)
   1e0fc:	02412483          	lw	s1,36(sp)
   1e100:	02012903          	lw	s2,32(sp)
   1e104:	01c12983          	lw	s3,28(sp)
   1e108:	01812a03          	lw	s4,24(sp)
   1e10c:	01412a83          	lw	s5,20(sp)
   1e110:	00c12b83          	lw	s7,12(sp)
   1e114:	00812c03          	lw	s8,8(sp)
   1e118:	00412c83          	lw	s9,4(sp)
   1e11c:	000b0593          	mv	a1,s6
   1e120:	01012b03          	lw	s6,16(sp)
   1e124:	03010113          	addi	sp,sp,48
   1e128:	00008067          	ret
   1e12c:	000107b7          	lui	a5,0x10
   1e130:	26f6ec63          	bltu	a3,a5,1e3a8 <__udivdi3+0x428>
   1e134:	010007b7          	lui	a5,0x1000
   1e138:	00f6b7b3          	sltu	a5,a3,a5
   1e13c:	40f007b3          	neg	a5,a5
   1e140:	ff87f793          	andi	a5,a5,-8
   1e144:	01878793          	addi	a5,a5,24 # 1000018 <__BSS_END__+0xfdc1e8>
   1e148:	00f6d533          	srl	a0,a3,a5
   1e14c:	00004717          	auipc	a4,0x4
   1e150:	36470713          	addi	a4,a4,868 # 224b0 <__clz_tab>
   1e154:	00a70733          	add	a4,a4,a0
   1e158:	00074703          	lbu	a4,0(a4)
   1e15c:	02000513          	li	a0,32
   1e160:	00f70733          	add	a4,a4,a5
   1e164:	40e50bb3          	sub	s7,a0,a4
   1e168:	26e51863          	bne	a0,a4,1e3d8 <__udivdi3+0x458>
   1e16c:	40b6ee63          	bltu	a3,a1,1e588 <__udivdi3+0x608>
   1e170:	00c4b533          	sltu	a0,s1,a2
   1e174:	00154513          	xori	a0,a0,1
   1e178:	00000b13          	li	s6,0
   1e17c:	f79ff06f          	j	1e0f4 <__udivdi3+0x174>
   1e180:	10060c63          	beqz	a2,1e298 <__udivdi3+0x318>
   1e184:	000107b7          	lui	a5,0x10
   1e188:	3ef67663          	bgeu	a2,a5,1e574 <__udivdi3+0x5f4>
   1e18c:	10063713          	sltiu	a4,a2,256
   1e190:	00174713          	xori	a4,a4,1
   1e194:	00371713          	slli	a4,a4,0x3
   1e198:	00e656b3          	srl	a3,a2,a4
   1e19c:	00004797          	auipc	a5,0x4
   1e1a0:	31478793          	addi	a5,a5,788 # 224b0 <__clz_tab>
   1e1a4:	00d787b3          	add	a5,a5,a3
   1e1a8:	0007ca03          	lbu	s4,0(a5)
   1e1ac:	02000793          	li	a5,32
   1e1b0:	00ea0a33          	add	s4,s4,a4
   1e1b4:	41478733          	sub	a4,a5,s4
   1e1b8:	11479463          	bne	a5,s4,1e2c0 <__udivdi3+0x340>
   1e1bc:	01061413          	slli	s0,a2,0x10
   1e1c0:	40c58a33          	sub	s4,a1,a2
   1e1c4:	01065a93          	srli	s5,a2,0x10
   1e1c8:	01045413          	srli	s0,s0,0x10
   1e1cc:	00100b13          	li	s6,1
   1e1d0:	000a8593          	mv	a1,s5
   1e1d4:	000a0513          	mv	a0,s4
   1e1d8:	4e4030ef          	jal	ra,216bc <__hidden___udivsi3>
   1e1dc:	00040593          	mv	a1,s0
   1e1e0:	00050493          	mv	s1,a0
   1e1e4:	4ac030ef          	jal	ra,21690 <__mulsi3>
   1e1e8:	00050793          	mv	a5,a0
   1e1ec:	000a8593          	mv	a1,s5
   1e1f0:	000a0513          	mv	a0,s4
   1e1f4:	00078a13          	mv	s4,a5
   1e1f8:	50c030ef          	jal	ra,21704 <__umodsi3>
   1e1fc:	01051513          	slli	a0,a0,0x10
   1e200:	01095793          	srli	a5,s2,0x10
   1e204:	00a7e7b3          	or	a5,a5,a0
   1e208:	0147fc63          	bgeu	a5,s4,1e220 <__udivdi3+0x2a0>
   1e20c:	00f987b3          	add	a5,s3,a5
   1e210:	fff48713          	addi	a4,s1,-1
   1e214:	0137e463          	bltu	a5,s3,1e21c <__udivdi3+0x29c>
   1e218:	3947ee63          	bltu	a5,s4,1e5b4 <__udivdi3+0x634>
   1e21c:	00070493          	mv	s1,a4
   1e220:	41478a33          	sub	s4,a5,s4
   1e224:	000a8593          	mv	a1,s5
   1e228:	000a0513          	mv	a0,s4
   1e22c:	490030ef          	jal	ra,216bc <__hidden___udivsi3>
   1e230:	00040593          	mv	a1,s0
   1e234:	00050413          	mv	s0,a0
   1e238:	458030ef          	jal	ra,21690 <__mulsi3>
   1e23c:	00050793          	mv	a5,a0
   1e240:	000a8593          	mv	a1,s5
   1e244:	000a0513          	mv	a0,s4
   1e248:	01091913          	slli	s2,s2,0x10
   1e24c:	00078a13          	mv	s4,a5
   1e250:	4b4030ef          	jal	ra,21704 <__umodsi3>
   1e254:	01051513          	slli	a0,a0,0x10
   1e258:	01095913          	srli	s2,s2,0x10
   1e25c:	00a96933          	or	s2,s2,a0
   1e260:	01497e63          	bgeu	s2,s4,1e27c <__udivdi3+0x2fc>
   1e264:	01298933          	add	s2,s3,s2
   1e268:	fff40793          	addi	a5,s0,-1
   1e26c:	01396663          	bltu	s2,s3,1e278 <__udivdi3+0x2f8>
   1e270:	ffe40413          	addi	s0,s0,-2
   1e274:	01496463          	bltu	s2,s4,1e27c <__udivdi3+0x2fc>
   1e278:	00078413          	mv	s0,a5
   1e27c:	01049493          	slli	s1,s1,0x10
   1e280:	0084e533          	or	a0,s1,s0
   1e284:	e71ff06f          	j	1e0f4 <__udivdi3+0x174>
   1e288:	10063793          	sltiu	a5,a2,256
   1e28c:	0017c793          	xori	a5,a5,1
   1e290:	00379793          	slli	a5,a5,0x3
   1e294:	d51ff06f          	j	1dfe4 <__udivdi3+0x64>
   1e298:	00000693          	li	a3,0
   1e29c:	00004797          	auipc	a5,0x4
   1e2a0:	21478793          	addi	a5,a5,532 # 224b0 <__clz_tab>
   1e2a4:	00d787b3          	add	a5,a5,a3
   1e2a8:	0007ca03          	lbu	s4,0(a5)
   1e2ac:	00000713          	li	a4,0
   1e2b0:	02000793          	li	a5,32
   1e2b4:	00ea0a33          	add	s4,s4,a4
   1e2b8:	41478733          	sub	a4,a5,s4
   1e2bc:	f14780e3          	beq	a5,s4,1e1bc <__udivdi3+0x23c>
   1e2c0:	00e619b3          	sll	s3,a2,a4
   1e2c4:	0145dbb3          	srl	s7,a1,s4
   1e2c8:	0109da93          	srli	s5,s3,0x10
   1e2cc:	00e597b3          	sll	a5,a1,a4
   1e2d0:	0144da33          	srl	s4,s1,s4
   1e2d4:	000a8593          	mv	a1,s5
   1e2d8:	000b8513          	mv	a0,s7
   1e2dc:	01099413          	slli	s0,s3,0x10
   1e2e0:	00fa6a33          	or	s4,s4,a5
   1e2e4:	00e49933          	sll	s2,s1,a4
   1e2e8:	01045413          	srli	s0,s0,0x10
   1e2ec:	3d0030ef          	jal	ra,216bc <__hidden___udivsi3>
   1e2f0:	00050593          	mv	a1,a0
   1e2f4:	00050b13          	mv	s6,a0
   1e2f8:	00040513          	mv	a0,s0
   1e2fc:	394030ef          	jal	ra,21690 <__mulsi3>
   1e300:	00050493          	mv	s1,a0
   1e304:	000a8593          	mv	a1,s5
   1e308:	000b8513          	mv	a0,s7
   1e30c:	3f8030ef          	jal	ra,21704 <__umodsi3>
   1e310:	01051513          	slli	a0,a0,0x10
   1e314:	010a5793          	srli	a5,s4,0x10
   1e318:	00a7e7b3          	or	a5,a5,a0
   1e31c:	0097fe63          	bgeu	a5,s1,1e338 <__udivdi3+0x3b8>
   1e320:	00f987b3          	add	a5,s3,a5
   1e324:	fffb0713          	addi	a4,s6,-1
   1e328:	2737ee63          	bltu	a5,s3,1e5a4 <__udivdi3+0x624>
   1e32c:	2697fc63          	bgeu	a5,s1,1e5a4 <__udivdi3+0x624>
   1e330:	ffeb0b13          	addi	s6,s6,-2
   1e334:	013787b3          	add	a5,a5,s3
   1e338:	409784b3          	sub	s1,a5,s1
   1e33c:	000a8593          	mv	a1,s5
   1e340:	00048513          	mv	a0,s1
   1e344:	378030ef          	jal	ra,216bc <__hidden___udivsi3>
   1e348:	00050593          	mv	a1,a0
   1e34c:	00050b93          	mv	s7,a0
   1e350:	00040513          	mv	a0,s0
   1e354:	33c030ef          	jal	ra,21690 <__mulsi3>
   1e358:	00050793          	mv	a5,a0
   1e35c:	000a8593          	mv	a1,s5
   1e360:	00048513          	mv	a0,s1
   1e364:	010a1a13          	slli	s4,s4,0x10
   1e368:	00078493          	mv	s1,a5
   1e36c:	398030ef          	jal	ra,21704 <__umodsi3>
   1e370:	01051513          	slli	a0,a0,0x10
   1e374:	010a5a13          	srli	s4,s4,0x10
   1e378:	00aa6a33          	or	s4,s4,a0
   1e37c:	009a7e63          	bgeu	s4,s1,1e398 <__udivdi3+0x418>
   1e380:	01498a33          	add	s4,s3,s4
   1e384:	fffb8793          	addi	a5,s7,-1
   1e388:	213a6663          	bltu	s4,s3,1e594 <__udivdi3+0x614>
   1e38c:	209a7463          	bgeu	s4,s1,1e594 <__udivdi3+0x614>
   1e390:	ffeb8b93          	addi	s7,s7,-2
   1e394:	013a0a33          	add	s4,s4,s3
   1e398:	010b1b13          	slli	s6,s6,0x10
   1e39c:	409a0a33          	sub	s4,s4,s1
   1e3a0:	017b6b33          	or	s6,s6,s7
   1e3a4:	e2dff06f          	j	1e1d0 <__udivdi3+0x250>
   1e3a8:	1006b793          	sltiu	a5,a3,256
   1e3ac:	0017c793          	xori	a5,a5,1
   1e3b0:	00379793          	slli	a5,a5,0x3
   1e3b4:	00f6d533          	srl	a0,a3,a5
   1e3b8:	00004717          	auipc	a4,0x4
   1e3bc:	0f870713          	addi	a4,a4,248 # 224b0 <__clz_tab>
   1e3c0:	00a70733          	add	a4,a4,a0
   1e3c4:	00074703          	lbu	a4,0(a4)
   1e3c8:	02000513          	li	a0,32
   1e3cc:	00f70733          	add	a4,a4,a5
   1e3d0:	40e50bb3          	sub	s7,a0,a4
   1e3d4:	d8e50ce3          	beq	a0,a4,1e16c <__udivdi3+0x1ec>
   1e3d8:	00e659b3          	srl	s3,a2,a4
   1e3dc:	017696b3          	sll	a3,a3,s7
   1e3e0:	00d9e9b3          	or	s3,s3,a3
   1e3e4:	00e5dcb3          	srl	s9,a1,a4
   1e3e8:	0109da93          	srli	s5,s3,0x10
   1e3ec:	017597b3          	sll	a5,a1,s7
   1e3f0:	00e4d733          	srl	a4,s1,a4
   1e3f4:	000a8593          	mv	a1,s5
   1e3f8:	000c8513          	mv	a0,s9
   1e3fc:	01099c13          	slli	s8,s3,0x10
   1e400:	00f76933          	or	s2,a4,a5
   1e404:	01761a33          	sll	s4,a2,s7
   1e408:	010c5c13          	srli	s8,s8,0x10
   1e40c:	2b0030ef          	jal	ra,216bc <__hidden___udivsi3>
   1e410:	00050593          	mv	a1,a0
   1e414:	00050413          	mv	s0,a0
   1e418:	000c0513          	mv	a0,s8
   1e41c:	274030ef          	jal	ra,21690 <__mulsi3>
   1e420:	00050b13          	mv	s6,a0
   1e424:	000a8593          	mv	a1,s5
   1e428:	000c8513          	mv	a0,s9
   1e42c:	2d8030ef          	jal	ra,21704 <__umodsi3>
   1e430:	01051513          	slli	a0,a0,0x10
   1e434:	01095793          	srli	a5,s2,0x10
   1e438:	00a7e7b3          	or	a5,a5,a0
   1e43c:	0167fe63          	bgeu	a5,s6,1e458 <__udivdi3+0x4d8>
   1e440:	00f987b3          	add	a5,s3,a5
   1e444:	fff40713          	addi	a4,s0,-1
   1e448:	1737e263          	bltu	a5,s3,1e5ac <__udivdi3+0x62c>
   1e44c:	1767f063          	bgeu	a5,s6,1e5ac <__udivdi3+0x62c>
   1e450:	ffe40413          	addi	s0,s0,-2
   1e454:	013787b3          	add	a5,a5,s3
   1e458:	41678b33          	sub	s6,a5,s6
   1e45c:	000a8593          	mv	a1,s5
   1e460:	000b0513          	mv	a0,s6
   1e464:	258030ef          	jal	ra,216bc <__hidden___udivsi3>
   1e468:	00050593          	mv	a1,a0
   1e46c:	00050c93          	mv	s9,a0
   1e470:	000c0513          	mv	a0,s8
   1e474:	21c030ef          	jal	ra,21690 <__mulsi3>
   1e478:	00050793          	mv	a5,a0
   1e47c:	000a8593          	mv	a1,s5
   1e480:	000b0513          	mv	a0,s6
   1e484:	00078a93          	mv	s5,a5
   1e488:	27c030ef          	jal	ra,21704 <__umodsi3>
   1e48c:	01091713          	slli	a4,s2,0x10
   1e490:	01051513          	slli	a0,a0,0x10
   1e494:	01075713          	srli	a4,a4,0x10
   1e498:	00a76733          	or	a4,a4,a0
   1e49c:	01577e63          	bgeu	a4,s5,1e4b8 <__udivdi3+0x538>
   1e4a0:	00e98733          	add	a4,s3,a4
   1e4a4:	fffc8793          	addi	a5,s9,-1
   1e4a8:	0f376a63          	bltu	a4,s3,1e59c <__udivdi3+0x61c>
   1e4ac:	0f577863          	bgeu	a4,s5,1e59c <__udivdi3+0x61c>
   1e4b0:	ffec8c93          	addi	s9,s9,-2
   1e4b4:	01370733          	add	a4,a4,s3
   1e4b8:	00010e37          	lui	t3,0x10
   1e4bc:	01041413          	slli	s0,s0,0x10
   1e4c0:	01946433          	or	s0,s0,s9
   1e4c4:	fffe0793          	addi	a5,t3,-1 # ffff <exit-0x95>
   1e4c8:	00f47833          	and	a6,s0,a5
   1e4cc:	00fa77b3          	and	a5,s4,a5
   1e4d0:	41570733          	sub	a4,a4,s5
   1e4d4:	01045e93          	srli	t4,s0,0x10
   1e4d8:	010a5a13          	srli	s4,s4,0x10
   1e4dc:	00080513          	mv	a0,a6
   1e4e0:	00078593          	mv	a1,a5
   1e4e4:	1ac030ef          	jal	ra,21690 <__mulsi3>
   1e4e8:	00050313          	mv	t1,a0
   1e4ec:	000a0593          	mv	a1,s4
   1e4f0:	00080513          	mv	a0,a6
   1e4f4:	19c030ef          	jal	ra,21690 <__mulsi3>
   1e4f8:	00050813          	mv	a6,a0
   1e4fc:	00078593          	mv	a1,a5
   1e500:	000e8513          	mv	a0,t4
   1e504:	18c030ef          	jal	ra,21690 <__mulsi3>
   1e508:	00050893          	mv	a7,a0
   1e50c:	000a0593          	mv	a1,s4
   1e510:	000e8513          	mv	a0,t4
   1e514:	17c030ef          	jal	ra,21690 <__mulsi3>
   1e518:	01035793          	srli	a5,t1,0x10
   1e51c:	01180833          	add	a6,a6,a7
   1e520:	010787b3          	add	a5,a5,a6
   1e524:	0117f463          	bgeu	a5,a7,1e52c <__udivdi3+0x5ac>
   1e528:	01c50533          	add	a0,a0,t3
   1e52c:	0107d693          	srli	a3,a5,0x10
   1e530:	00a686b3          	add	a3,a3,a0
   1e534:	02d76a63          	bltu	a4,a3,1e568 <__udivdi3+0x5e8>
   1e538:	00d70863          	beq	a4,a3,1e548 <__udivdi3+0x5c8>
   1e53c:	00040513          	mv	a0,s0
   1e540:	00000b13          	li	s6,0
   1e544:	bb1ff06f          	j	1e0f4 <__udivdi3+0x174>
   1e548:	00010737          	lui	a4,0x10
   1e54c:	fff70713          	addi	a4,a4,-1 # ffff <exit-0x95>
   1e550:	00e7f7b3          	and	a5,a5,a4
   1e554:	01079793          	slli	a5,a5,0x10
   1e558:	00e37333          	and	t1,t1,a4
   1e55c:	017494b3          	sll	s1,s1,s7
   1e560:	00678533          	add	a0,a5,t1
   1e564:	fca4fce3          	bgeu	s1,a0,1e53c <__udivdi3+0x5bc>
   1e568:	fff40513          	addi	a0,s0,-1
   1e56c:	00000b13          	li	s6,0
   1e570:	b85ff06f          	j	1e0f4 <__udivdi3+0x174>
   1e574:	010007b7          	lui	a5,0x1000
   1e578:	04f67a63          	bgeu	a2,a5,1e5cc <__udivdi3+0x64c>
   1e57c:	01065693          	srli	a3,a2,0x10
   1e580:	01000713          	li	a4,16
   1e584:	c19ff06f          	j	1e19c <__udivdi3+0x21c>
   1e588:	00000b13          	li	s6,0
   1e58c:	00100513          	li	a0,1
   1e590:	b65ff06f          	j	1e0f4 <__udivdi3+0x174>
   1e594:	00078b93          	mv	s7,a5
   1e598:	e01ff06f          	j	1e398 <__udivdi3+0x418>
   1e59c:	00078c93          	mv	s9,a5
   1e5a0:	f19ff06f          	j	1e4b8 <__udivdi3+0x538>
   1e5a4:	00070b13          	mv	s6,a4
   1e5a8:	d91ff06f          	j	1e338 <__udivdi3+0x3b8>
   1e5ac:	00070413          	mv	s0,a4
   1e5b0:	ea9ff06f          	j	1e458 <__udivdi3+0x4d8>
   1e5b4:	ffe48493          	addi	s1,s1,-2
   1e5b8:	013787b3          	add	a5,a5,s3
   1e5bc:	c65ff06f          	j	1e220 <__udivdi3+0x2a0>
   1e5c0:	ffe40413          	addi	s0,s0,-2
   1e5c4:	013787b3          	add	a5,a5,s3
   1e5c8:	ab1ff06f          	j	1e078 <__udivdi3+0xf8>
   1e5cc:	01865693          	srli	a3,a2,0x18
   1e5d0:	01800713          	li	a4,24
   1e5d4:	bc9ff06f          	j	1e19c <__udivdi3+0x21c>

0001e5d8 <__umoddi3>:
   1e5d8:	fd010113          	addi	sp,sp,-48
   1e5dc:	02112623          	sw	ra,44(sp)
   1e5e0:	02812423          	sw	s0,40(sp)
   1e5e4:	02912223          	sw	s1,36(sp)
   1e5e8:	03212023          	sw	s2,32(sp)
   1e5ec:	01312e23          	sw	s3,28(sp)
   1e5f0:	01412c23          	sw	s4,24(sp)
   1e5f4:	01512a23          	sw	s5,20(sp)
   1e5f8:	01612823          	sw	s6,16(sp)
   1e5fc:	01712623          	sw	s7,12(sp)
   1e600:	01812423          	sw	s8,8(sp)
   1e604:	01912223          	sw	s9,4(sp)
   1e608:	01a12023          	sw	s10,0(sp)
   1e60c:	00050793          	mv	a5,a0
   1e610:	14069663          	bnez	a3,1e75c <__umoddi3+0x184>
   1e614:	00060913          	mv	s2,a2
   1e618:	00050993          	mv	s3,a0
   1e61c:	1ac5f863          	bgeu	a1,a2,1e7cc <__umoddi3+0x1f4>
   1e620:	00010737          	lui	a4,0x10
   1e624:	00058413          	mv	s0,a1
   1e628:	26e66c63          	bltu	a2,a4,1e8a0 <__umoddi3+0x2c8>
   1e62c:	01000737          	lui	a4,0x1000
   1e630:	00e63733          	sltu	a4,a2,a4
   1e634:	40e00733          	neg	a4,a4
   1e638:	ff877713          	andi	a4,a4,-8
   1e63c:	01870713          	addi	a4,a4,24 # 1000018 <__BSS_END__+0xfdc1e8>
   1e640:	00e65533          	srl	a0,a2,a4
   1e644:	00004697          	auipc	a3,0x4
   1e648:	e6c68693          	addi	a3,a3,-404 # 224b0 <__clz_tab>
   1e64c:	00a686b3          	add	a3,a3,a0
   1e650:	0006c683          	lbu	a3,0(a3)
   1e654:	02000513          	li	a0,32
   1e658:	00e68733          	add	a4,a3,a4
   1e65c:	40e504b3          	sub	s1,a0,a4
   1e660:	00e50c63          	beq	a0,a4,1e678 <__umoddi3+0xa0>
   1e664:	00959433          	sll	s0,a1,s1
   1e668:	00e7d733          	srl	a4,a5,a4
   1e66c:	00961933          	sll	s2,a2,s1
   1e670:	00876433          	or	s0,a4,s0
   1e674:	009799b3          	sll	s3,a5,s1
   1e678:	01095a13          	srli	s4,s2,0x10
   1e67c:	000a0593          	mv	a1,s4
   1e680:	00040513          	mv	a0,s0
   1e684:	01091a93          	slli	s5,s2,0x10
   1e688:	034030ef          	jal	ra,216bc <__hidden___udivsi3>
   1e68c:	010ada93          	srli	s5,s5,0x10
   1e690:	000a8593          	mv	a1,s5
   1e694:	7fd020ef          	jal	ra,21690 <__mulsi3>
   1e698:	00050793          	mv	a5,a0
   1e69c:	000a0593          	mv	a1,s4
   1e6a0:	00040513          	mv	a0,s0
   1e6a4:	00078413          	mv	s0,a5
   1e6a8:	05c030ef          	jal	ra,21704 <__umodsi3>
   1e6ac:	01051513          	slli	a0,a0,0x10
   1e6b0:	0109d793          	srli	a5,s3,0x10
   1e6b4:	00a7e7b3          	or	a5,a5,a0
   1e6b8:	0087f863          	bgeu	a5,s0,1e6c8 <__umoddi3+0xf0>
   1e6bc:	00f907b3          	add	a5,s2,a5
   1e6c0:	0127e463          	bltu	a5,s2,1e6c8 <__umoddi3+0xf0>
   1e6c4:	4e87e463          	bltu	a5,s0,1ebac <__umoddi3+0x5d4>
   1e6c8:	40878433          	sub	s0,a5,s0
   1e6cc:	000a0593          	mv	a1,s4
   1e6d0:	00040513          	mv	a0,s0
   1e6d4:	7e9020ef          	jal	ra,216bc <__hidden___udivsi3>
   1e6d8:	000a8593          	mv	a1,s5
   1e6dc:	7b5020ef          	jal	ra,21690 <__mulsi3>
   1e6e0:	00050793          	mv	a5,a0
   1e6e4:	000a0593          	mv	a1,s4
   1e6e8:	00040513          	mv	a0,s0
   1e6ec:	00078413          	mv	s0,a5
   1e6f0:	014030ef          	jal	ra,21704 <__umodsi3>
   1e6f4:	01099793          	slli	a5,s3,0x10
   1e6f8:	01051513          	slli	a0,a0,0x10
   1e6fc:	0107d793          	srli	a5,a5,0x10
   1e700:	00a7e7b3          	or	a5,a5,a0
   1e704:	0087fa63          	bgeu	a5,s0,1e718 <__umoddi3+0x140>
   1e708:	00f907b3          	add	a5,s2,a5
   1e70c:	0127e663          	bltu	a5,s2,1e718 <__umoddi3+0x140>
   1e710:	0087f463          	bgeu	a5,s0,1e718 <__umoddi3+0x140>
   1e714:	012787b3          	add	a5,a5,s2
   1e718:	408787b3          	sub	a5,a5,s0
   1e71c:	0097d533          	srl	a0,a5,s1
   1e720:	00000593          	li	a1,0
   1e724:	02c12083          	lw	ra,44(sp)
   1e728:	02812403          	lw	s0,40(sp)
   1e72c:	02412483          	lw	s1,36(sp)
   1e730:	02012903          	lw	s2,32(sp)
   1e734:	01c12983          	lw	s3,28(sp)
   1e738:	01812a03          	lw	s4,24(sp)
   1e73c:	01412a83          	lw	s5,20(sp)
   1e740:	01012b03          	lw	s6,16(sp)
   1e744:	00c12b83          	lw	s7,12(sp)
   1e748:	00812c03          	lw	s8,8(sp)
   1e74c:	00412c83          	lw	s9,4(sp)
   1e750:	00012d03          	lw	s10,0(sp)
   1e754:	03010113          	addi	sp,sp,48
   1e758:	00008067          	ret
   1e75c:	00050893          	mv	a7,a0
   1e760:	fcd5e2e3          	bltu	a1,a3,1e724 <__umoddi3+0x14c>
   1e764:	00010737          	lui	a4,0x10
   1e768:	00058813          	mv	a6,a1
   1e76c:	22e6e663          	bltu	a3,a4,1e998 <__umoddi3+0x3c0>
   1e770:	01000737          	lui	a4,0x1000
   1e774:	00e6b733          	sltu	a4,a3,a4
   1e778:	40e00733          	neg	a4,a4
   1e77c:	ff877713          	andi	a4,a4,-8
   1e780:	01870713          	addi	a4,a4,24 # 1000018 <__BSS_END__+0xfdc1e8>
   1e784:	00e6d333          	srl	t1,a3,a4
   1e788:	00004517          	auipc	a0,0x4
   1e78c:	d2850513          	addi	a0,a0,-728 # 224b0 <__clz_tab>
   1e790:	00650533          	add	a0,a0,t1
   1e794:	00054483          	lbu	s1,0(a0)
   1e798:	02000513          	li	a0,32
   1e79c:	00e484b3          	add	s1,s1,a4
   1e7a0:	40950a33          	sub	s4,a0,s1
   1e7a4:	22951263          	bne	a0,s1,1e9c8 <__umoddi3+0x3f0>
   1e7a8:	00b6e463          	bltu	a3,a1,1e7b0 <__umoddi3+0x1d8>
   1e7ac:	00c7ea63          	bltu	a5,a2,1e7c0 <__umoddi3+0x1e8>
   1e7b0:	40c788b3          	sub	a7,a5,a2
   1e7b4:	40d586b3          	sub	a3,a1,a3
   1e7b8:	0117b833          	sltu	a6,a5,a7
   1e7bc:	41068833          	sub	a6,a3,a6
   1e7c0:	00088513          	mv	a0,a7
   1e7c4:	00080593          	mv	a1,a6
   1e7c8:	f5dff06f          	j	1e724 <__umoddi3+0x14c>
   1e7cc:	0e060263          	beqz	a2,1e8b0 <__umoddi3+0x2d8>
   1e7d0:	00010737          	lui	a4,0x10
   1e7d4:	3ae67a63          	bgeu	a2,a4,1eb88 <__umoddi3+0x5b0>
   1e7d8:	10063693          	sltiu	a3,a2,256
   1e7dc:	0016c693          	xori	a3,a3,1
   1e7e0:	00369693          	slli	a3,a3,0x3
   1e7e4:	00d65533          	srl	a0,a2,a3
   1e7e8:	00004717          	auipc	a4,0x4
   1e7ec:	cc870713          	addi	a4,a4,-824 # 224b0 <__clz_tab>
   1e7f0:	00a70733          	add	a4,a4,a0
   1e7f4:	00074a03          	lbu	s4,0(a4)
   1e7f8:	02000713          	li	a4,32
   1e7fc:	00da0a33          	add	s4,s4,a3
   1e800:	414704b3          	sub	s1,a4,s4
   1e804:	0d471a63          	bne	a4,s4,1e8d8 <__umoddi3+0x300>
   1e808:	01061413          	slli	s0,a2,0x10
   1e80c:	40c58a33          	sub	s4,a1,a2
   1e810:	01065a93          	srli	s5,a2,0x10
   1e814:	01045413          	srli	s0,s0,0x10
   1e818:	000a8593          	mv	a1,s5
   1e81c:	000a0513          	mv	a0,s4
   1e820:	69d020ef          	jal	ra,216bc <__hidden___udivsi3>
   1e824:	00040593          	mv	a1,s0
   1e828:	669020ef          	jal	ra,21690 <__mulsi3>
   1e82c:	00050793          	mv	a5,a0
   1e830:	000a8593          	mv	a1,s5
   1e834:	000a0513          	mv	a0,s4
   1e838:	00078a13          	mv	s4,a5
   1e83c:	6c9020ef          	jal	ra,21704 <__umodsi3>
   1e840:	01051513          	slli	a0,a0,0x10
   1e844:	0109d793          	srli	a5,s3,0x10
   1e848:	00a7e7b3          	or	a5,a5,a0
   1e84c:	0147fa63          	bgeu	a5,s4,1e860 <__umoddi3+0x288>
   1e850:	00f907b3          	add	a5,s2,a5
   1e854:	0127e663          	bltu	a5,s2,1e860 <__umoddi3+0x288>
   1e858:	0147f463          	bgeu	a5,s4,1e860 <__umoddi3+0x288>
   1e85c:	012787b3          	add	a5,a5,s2
   1e860:	41478a33          	sub	s4,a5,s4
   1e864:	000a8593          	mv	a1,s5
   1e868:	000a0513          	mv	a0,s4
   1e86c:	651020ef          	jal	ra,216bc <__hidden___udivsi3>
   1e870:	00040593          	mv	a1,s0
   1e874:	61d020ef          	jal	ra,21690 <__mulsi3>
   1e878:	00050413          	mv	s0,a0
   1e87c:	000a8593          	mv	a1,s5
   1e880:	000a0513          	mv	a0,s4
   1e884:	681020ef          	jal	ra,21704 <__umodsi3>
   1e888:	01099993          	slli	s3,s3,0x10
   1e88c:	01051793          	slli	a5,a0,0x10
   1e890:	0109d993          	srli	s3,s3,0x10
   1e894:	00f9e7b3          	or	a5,s3,a5
   1e898:	e887f0e3          	bgeu	a5,s0,1e718 <__umoddi3+0x140>
   1e89c:	e6dff06f          	j	1e708 <__umoddi3+0x130>
   1e8a0:	10063713          	sltiu	a4,a2,256
   1e8a4:	00174713          	xori	a4,a4,1
   1e8a8:	00371713          	slli	a4,a4,0x3
   1e8ac:	d95ff06f          	j	1e640 <__umoddi3+0x68>
   1e8b0:	00000513          	li	a0,0
   1e8b4:	00004717          	auipc	a4,0x4
   1e8b8:	bfc70713          	addi	a4,a4,-1028 # 224b0 <__clz_tab>
   1e8bc:	00a70733          	add	a4,a4,a0
   1e8c0:	00074a03          	lbu	s4,0(a4)
   1e8c4:	00000693          	li	a3,0
   1e8c8:	02000713          	li	a4,32
   1e8cc:	00da0a33          	add	s4,s4,a3
   1e8d0:	414704b3          	sub	s1,a4,s4
   1e8d4:	f3470ae3          	beq	a4,s4,1e808 <__umoddi3+0x230>
   1e8d8:	00961933          	sll	s2,a2,s1
   1e8dc:	0145dbb3          	srl	s7,a1,s4
   1e8e0:	01095a93          	srli	s5,s2,0x10
   1e8e4:	00959733          	sll	a4,a1,s1
   1e8e8:	0147da33          	srl	s4,a5,s4
   1e8ec:	000a8593          	mv	a1,s5
   1e8f0:	01091413          	slli	s0,s2,0x10
   1e8f4:	000b8513          	mv	a0,s7
   1e8f8:	00ea6a33          	or	s4,s4,a4
   1e8fc:	009799b3          	sll	s3,a5,s1
   1e900:	01045413          	srli	s0,s0,0x10
   1e904:	5b9020ef          	jal	ra,216bc <__hidden___udivsi3>
   1e908:	00040593          	mv	a1,s0
   1e90c:	585020ef          	jal	ra,21690 <__mulsi3>
   1e910:	00050b13          	mv	s6,a0
   1e914:	000a8593          	mv	a1,s5
   1e918:	000b8513          	mv	a0,s7
   1e91c:	5e9020ef          	jal	ra,21704 <__umodsi3>
   1e920:	01051513          	slli	a0,a0,0x10
   1e924:	010a5793          	srli	a5,s4,0x10
   1e928:	00a7e7b3          	or	a5,a5,a0
   1e92c:	0167fa63          	bgeu	a5,s6,1e940 <__umoddi3+0x368>
   1e930:	00f907b3          	add	a5,s2,a5
   1e934:	0127e663          	bltu	a5,s2,1e940 <__umoddi3+0x368>
   1e938:	0167f463          	bgeu	a5,s6,1e940 <__umoddi3+0x368>
   1e93c:	012787b3          	add	a5,a5,s2
   1e940:	41678b33          	sub	s6,a5,s6
   1e944:	000a8593          	mv	a1,s5
   1e948:	000b0513          	mv	a0,s6
   1e94c:	571020ef          	jal	ra,216bc <__hidden___udivsi3>
   1e950:	00040593          	mv	a1,s0
   1e954:	53d020ef          	jal	ra,21690 <__mulsi3>
   1e958:	00050793          	mv	a5,a0
   1e95c:	000a8593          	mv	a1,s5
   1e960:	000b0513          	mv	a0,s6
   1e964:	010a1a13          	slli	s4,s4,0x10
   1e968:	00078b13          	mv	s6,a5
   1e96c:	599020ef          	jal	ra,21704 <__umodsi3>
   1e970:	01051513          	slli	a0,a0,0x10
   1e974:	010a5a13          	srli	s4,s4,0x10
   1e978:	00aa6a33          	or	s4,s4,a0
   1e97c:	016a7a63          	bgeu	s4,s6,1e990 <__umoddi3+0x3b8>
   1e980:	01490a33          	add	s4,s2,s4
   1e984:	012a6663          	bltu	s4,s2,1e990 <__umoddi3+0x3b8>
   1e988:	016a7463          	bgeu	s4,s6,1e990 <__umoddi3+0x3b8>
   1e98c:	012a0a33          	add	s4,s4,s2
   1e990:	416a0a33          	sub	s4,s4,s6
   1e994:	e85ff06f          	j	1e818 <__umoddi3+0x240>
   1e998:	1006b713          	sltiu	a4,a3,256
   1e99c:	00174713          	xori	a4,a4,1
   1e9a0:	00371713          	slli	a4,a4,0x3
   1e9a4:	00e6d333          	srl	t1,a3,a4
   1e9a8:	00004517          	auipc	a0,0x4
   1e9ac:	b0850513          	addi	a0,a0,-1272 # 224b0 <__clz_tab>
   1e9b0:	00650533          	add	a0,a0,t1
   1e9b4:	00054483          	lbu	s1,0(a0)
   1e9b8:	02000513          	li	a0,32
   1e9bc:	00e484b3          	add	s1,s1,a4
   1e9c0:	40950a33          	sub	s4,a0,s1
   1e9c4:	de9502e3          	beq	a0,s1,1e7a8 <__umoddi3+0x1d0>
   1e9c8:	00965933          	srl	s2,a2,s1
   1e9cc:	014696b3          	sll	a3,a3,s4
   1e9d0:	00d96933          	or	s2,s2,a3
   1e9d4:	0095dd33          	srl	s10,a1,s1
   1e9d8:	01095b93          	srli	s7,s2,0x10
   1e9dc:	01459733          	sll	a4,a1,s4
   1e9e0:	0097d6b3          	srl	a3,a5,s1
   1e9e4:	000b8593          	mv	a1,s7
   1e9e8:	000d0513          	mv	a0,s10
   1e9ec:	01091c93          	slli	s9,s2,0x10
   1e9f0:	00e6eab3          	or	s5,a3,a4
   1e9f4:	014799b3          	sll	s3,a5,s4
   1e9f8:	01461433          	sll	s0,a2,s4
   1e9fc:	010cdc93          	srli	s9,s9,0x10
   1ea00:	4bd020ef          	jal	ra,216bc <__hidden___udivsi3>
   1ea04:	00050593          	mv	a1,a0
   1ea08:	00050b13          	mv	s6,a0
   1ea0c:	000c8513          	mv	a0,s9
   1ea10:	481020ef          	jal	ra,21690 <__mulsi3>
   1ea14:	00050c13          	mv	s8,a0
   1ea18:	000b8593          	mv	a1,s7
   1ea1c:	000d0513          	mv	a0,s10
   1ea20:	4e5020ef          	jal	ra,21704 <__umodsi3>
   1ea24:	01051513          	slli	a0,a0,0x10
   1ea28:	010ad793          	srli	a5,s5,0x10
   1ea2c:	00a7e7b3          	or	a5,a5,a0
   1ea30:	0187fe63          	bgeu	a5,s8,1ea4c <__umoddi3+0x474>
   1ea34:	00f907b3          	add	a5,s2,a5
   1ea38:	fffb0713          	addi	a4,s6,-1
   1ea3c:	1727e463          	bltu	a5,s2,1eba4 <__umoddi3+0x5cc>
   1ea40:	1787f263          	bgeu	a5,s8,1eba4 <__umoddi3+0x5cc>
   1ea44:	ffeb0b13          	addi	s6,s6,-2
   1ea48:	012787b3          	add	a5,a5,s2
   1ea4c:	41878c33          	sub	s8,a5,s8
   1ea50:	000b8593          	mv	a1,s7
   1ea54:	000c0513          	mv	a0,s8
   1ea58:	465020ef          	jal	ra,216bc <__hidden___udivsi3>
   1ea5c:	00050593          	mv	a1,a0
   1ea60:	00050d13          	mv	s10,a0
   1ea64:	000c8513          	mv	a0,s9
   1ea68:	429020ef          	jal	ra,21690 <__mulsi3>
   1ea6c:	00050793          	mv	a5,a0
   1ea70:	000b8593          	mv	a1,s7
   1ea74:	000c0513          	mv	a0,s8
   1ea78:	00078b93          	mv	s7,a5
   1ea7c:	489020ef          	jal	ra,21704 <__umodsi3>
   1ea80:	010a9593          	slli	a1,s5,0x10
   1ea84:	01051513          	slli	a0,a0,0x10
   1ea88:	0105d593          	srli	a1,a1,0x10
   1ea8c:	00a5e5b3          	or	a1,a1,a0
   1ea90:	0175fe63          	bgeu	a1,s7,1eaac <__umoddi3+0x4d4>
   1ea94:	00b905b3          	add	a1,s2,a1
   1ea98:	fffd0793          	addi	a5,s10,-1
   1ea9c:	1125e063          	bltu	a1,s2,1eb9c <__umoddi3+0x5c4>
   1eaa0:	0f75fe63          	bgeu	a1,s7,1eb9c <__umoddi3+0x5c4>
   1eaa4:	ffed0d13          	addi	s10,s10,-2
   1eaa8:	012585b3          	add	a1,a1,s2
   1eaac:	010b1793          	slli	a5,s6,0x10
   1eab0:	00010e37          	lui	t3,0x10
   1eab4:	01a7e7b3          	or	a5,a5,s10
   1eab8:	fffe0313          	addi	t1,t3,-1 # ffff <exit-0x95>
   1eabc:	0067f8b3          	and	a7,a5,t1
   1eac0:	00647333          	and	t1,s0,t1
   1eac4:	41758733          	sub	a4,a1,s7
   1eac8:	0107d793          	srli	a5,a5,0x10
   1eacc:	01045e93          	srli	t4,s0,0x10
   1ead0:	00088513          	mv	a0,a7
   1ead4:	00030593          	mv	a1,t1
   1ead8:	3b9020ef          	jal	ra,21690 <__mulsi3>
   1eadc:	00050813          	mv	a6,a0
   1eae0:	000e8593          	mv	a1,t4
   1eae4:	00088513          	mv	a0,a7
   1eae8:	3a9020ef          	jal	ra,21690 <__mulsi3>
   1eaec:	00050893          	mv	a7,a0
   1eaf0:	00030593          	mv	a1,t1
   1eaf4:	00078513          	mv	a0,a5
   1eaf8:	399020ef          	jal	ra,21690 <__mulsi3>
   1eafc:	00050313          	mv	t1,a0
   1eb00:	000e8593          	mv	a1,t4
   1eb04:	00078513          	mv	a0,a5
   1eb08:	389020ef          	jal	ra,21690 <__mulsi3>
   1eb0c:	01085793          	srli	a5,a6,0x10
   1eb10:	006888b3          	add	a7,a7,t1
   1eb14:	011787b3          	add	a5,a5,a7
   1eb18:	0067f463          	bgeu	a5,t1,1eb20 <__umoddi3+0x548>
   1eb1c:	01c50533          	add	a0,a0,t3
   1eb20:	00010637          	lui	a2,0x10
   1eb24:	fff60613          	addi	a2,a2,-1 # ffff <exit-0x95>
   1eb28:	0107d693          	srli	a3,a5,0x10
   1eb2c:	00c7f7b3          	and	a5,a5,a2
   1eb30:	01079793          	slli	a5,a5,0x10
   1eb34:	00c87833          	and	a6,a6,a2
   1eb38:	00a686b3          	add	a3,a3,a0
   1eb3c:	010787b3          	add	a5,a5,a6
   1eb40:	02d76863          	bltu	a4,a3,1eb70 <__umoddi3+0x598>
   1eb44:	02d70463          	beq	a4,a3,1eb6c <__umoddi3+0x594>
   1eb48:	40f987b3          	sub	a5,s3,a5
   1eb4c:	00f9b9b3          	sltu	s3,s3,a5
   1eb50:	40d705b3          	sub	a1,a4,a3
   1eb54:	413585b3          	sub	a1,a1,s3
   1eb58:	009594b3          	sll	s1,a1,s1
   1eb5c:	0147d7b3          	srl	a5,a5,s4
   1eb60:	00f4e533          	or	a0,s1,a5
   1eb64:	0145d5b3          	srl	a1,a1,s4
   1eb68:	bbdff06f          	j	1e724 <__umoddi3+0x14c>
   1eb6c:	fcf9fee3          	bgeu	s3,a5,1eb48 <__umoddi3+0x570>
   1eb70:	40878633          	sub	a2,a5,s0
   1eb74:	00c7b7b3          	sltu	a5,a5,a2
   1eb78:	01278933          	add	s2,a5,s2
   1eb7c:	412686b3          	sub	a3,a3,s2
   1eb80:	00060793          	mv	a5,a2
   1eb84:	fc5ff06f          	j	1eb48 <__umoddi3+0x570>
   1eb88:	01000737          	lui	a4,0x1000
   1eb8c:	02e67463          	bgeu	a2,a4,1ebb4 <__umoddi3+0x5dc>
   1eb90:	01065513          	srli	a0,a2,0x10
   1eb94:	01000693          	li	a3,16
   1eb98:	c51ff06f          	j	1e7e8 <__umoddi3+0x210>
   1eb9c:	00078d13          	mv	s10,a5
   1eba0:	f0dff06f          	j	1eaac <__umoddi3+0x4d4>
   1eba4:	00070b13          	mv	s6,a4
   1eba8:	ea5ff06f          	j	1ea4c <__umoddi3+0x474>
   1ebac:	012787b3          	add	a5,a5,s2
   1ebb0:	b19ff06f          	j	1e6c8 <__umoddi3+0xf0>
   1ebb4:	01865513          	srli	a0,a2,0x18
   1ebb8:	01800693          	li	a3,24
   1ebbc:	c2dff06f          	j	1e7e8 <__umoddi3+0x210>

0001ebc0 <__adddf3>:
   1ebc0:	001007b7          	lui	a5,0x100
   1ebc4:	fe010113          	addi	sp,sp,-32
   1ebc8:	fff78793          	addi	a5,a5,-1 # fffff <__BSS_END__+0xdc1cf>
   1ebcc:	00b7f833          	and	a6,a5,a1
   1ebd0:	0146d893          	srli	a7,a3,0x14
   1ebd4:	00d7f7b3          	and	a5,a5,a3
   1ebd8:	00812c23          	sw	s0,24(sp)
   1ebdc:	0145d413          	srli	s0,a1,0x14
   1ebe0:	00379713          	slli	a4,a5,0x3
   1ebe4:	00381813          	slli	a6,a6,0x3
   1ebe8:	01212823          	sw	s2,16(sp)
   1ebec:	01312623          	sw	s3,12(sp)
   1ebf0:	01d65793          	srli	a5,a2,0x1d
   1ebf4:	01d55993          	srli	s3,a0,0x1d
   1ebf8:	01f5d913          	srli	s2,a1,0x1f
   1ebfc:	7ff47413          	andi	s0,s0,2047
   1ec00:	7ff8f893          	andi	a7,a7,2047
   1ec04:	00112e23          	sw	ra,28(sp)
   1ec08:	00912a23          	sw	s1,20(sp)
   1ec0c:	01f6d693          	srli	a3,a3,0x1f
   1ec10:	0109e9b3          	or	s3,s3,a6
   1ec14:	00e7e7b3          	or	a5,a5,a4
   1ec18:	00351593          	slli	a1,a0,0x3
   1ec1c:	00361813          	slli	a6,a2,0x3
   1ec20:	41140733          	sub	a4,s0,a7
   1ec24:	1ed90063          	beq	s2,a3,1ee04 <__adddf3+0x244>
   1ec28:	16e05063          	blez	a4,1ed88 <__adddf3+0x1c8>
   1ec2c:	28088463          	beqz	a7,1eeb4 <__adddf3+0x2f4>
   1ec30:	7ff00693          	li	a3,2047
   1ec34:	66d40863          	beq	s0,a3,1f2a4 <__adddf3+0x6e4>
   1ec38:	03800693          	li	a3,56
   1ec3c:	00100493          	li	s1,1
   1ec40:	02e6ce63          	blt	a3,a4,1ec7c <__adddf3+0xbc>
   1ec44:	008006b7          	lui	a3,0x800
   1ec48:	00d7e7b3          	or	a5,a5,a3
   1ec4c:	01f00693          	li	a3,31
   1ec50:	52e6c663          	blt	a3,a4,1f17c <__adddf3+0x5bc>
   1ec54:	02000693          	li	a3,32
   1ec58:	40e686b3          	sub	a3,a3,a4
   1ec5c:	00d794b3          	sll	s1,a5,a3
   1ec60:	00e85633          	srl	a2,a6,a4
   1ec64:	00d816b3          	sll	a3,a6,a3
   1ec68:	00c4e4b3          	or	s1,s1,a2
   1ec6c:	00d036b3          	snez	a3,a3
   1ec70:	00e7d733          	srl	a4,a5,a4
   1ec74:	00d4e4b3          	or	s1,s1,a3
   1ec78:	40e989b3          	sub	s3,s3,a4
   1ec7c:	409584b3          	sub	s1,a1,s1
   1ec80:	0095b7b3          	sltu	a5,a1,s1
   1ec84:	40f989b3          	sub	s3,s3,a5
   1ec88:	008007b7          	lui	a5,0x800
   1ec8c:	00f9f733          	and	a4,s3,a5
   1ec90:	2c070c63          	beqz	a4,1ef68 <__adddf3+0x3a8>
   1ec94:	fff78793          	addi	a5,a5,-1 # 7fffff <__BSS_END__+0x7dc1cf>
   1ec98:	00f9f9b3          	and	s3,s3,a5
   1ec9c:	34098463          	beqz	s3,1efe4 <__adddf3+0x424>
   1eca0:	00098513          	mv	a0,s3
   1eca4:	2c5020ef          	jal	ra,21768 <__clzsi2>
   1eca8:	ff850713          	addi	a4,a0,-8
   1ecac:	02000693          	li	a3,32
   1ecb0:	40e687b3          	sub	a5,a3,a4
   1ecb4:	00f4d7b3          	srl	a5,s1,a5
   1ecb8:	00e999b3          	sll	s3,s3,a4
   1ecbc:	0137e7b3          	or	a5,a5,s3
   1ecc0:	00e494b3          	sll	s1,s1,a4
   1ecc4:	3e874863          	blt	a4,s0,1f0b4 <__adddf3+0x4f4>
   1ecc8:	40870733          	sub	a4,a4,s0
   1eccc:	00170713          	addi	a4,a4,1 # 1000001 <__BSS_END__+0xfdc1d1>
   1ecd0:	40e686b3          	sub	a3,a3,a4
   1ecd4:	00d49633          	sll	a2,s1,a3
   1ecd8:	00e4d9b3          	srl	s3,s1,a4
   1ecdc:	00c03633          	snez	a2,a2
   1ece0:	01366633          	or	a2,a2,s3
   1ece4:	00d796b3          	sll	a3,a5,a3
   1ece8:	00c6e4b3          	or	s1,a3,a2
   1ecec:	00e7d9b3          	srl	s3,a5,a4
   1ecf0:	00000413          	li	s0,0
   1ecf4:	0074f793          	andi	a5,s1,7
   1ecf8:	02078063          	beqz	a5,1ed18 <__adddf3+0x158>
   1ecfc:	00f4f793          	andi	a5,s1,15
   1ed00:	00400713          	li	a4,4
   1ed04:	00e78a63          	beq	a5,a4,1ed18 <__adddf3+0x158>
   1ed08:	00448793          	addi	a5,s1,4
   1ed0c:	0097b4b3          	sltu	s1,a5,s1
   1ed10:	009989b3          	add	s3,s3,s1
   1ed14:	00078493          	mv	s1,a5
   1ed18:	008007b7          	lui	a5,0x800
   1ed1c:	00f9f7b3          	and	a5,s3,a5
   1ed20:	32078263          	beqz	a5,1f044 <__adddf3+0x484>
   1ed24:	00140413          	addi	s0,s0,1
   1ed28:	7ff00793          	li	a5,2047
   1ed2c:	22f40663          	beq	s0,a5,1ef58 <__adddf3+0x398>
   1ed30:	ff8007b7          	lui	a5,0xff800
   1ed34:	fff78793          	addi	a5,a5,-1 # ff7fffff <__BSS_END__+0xff7dc1cf>
   1ed38:	00f9f7b3          	and	a5,s3,a5
   1ed3c:	01d79713          	slli	a4,a5,0x1d
   1ed40:	0034d493          	srli	s1,s1,0x3
   1ed44:	00979793          	slli	a5,a5,0x9
   1ed48:	00976733          	or	a4,a4,s1
   1ed4c:	00c7d793          	srli	a5,a5,0xc
   1ed50:	7ff47413          	andi	s0,s0,2047
   1ed54:	01441413          	slli	s0,s0,0x14
   1ed58:	01f91913          	slli	s2,s2,0x1f
   1ed5c:	00f46433          	or	s0,s0,a5
   1ed60:	01246433          	or	s0,s0,s2
   1ed64:	01c12083          	lw	ra,28(sp)
   1ed68:	00040593          	mv	a1,s0
   1ed6c:	01812403          	lw	s0,24(sp)
   1ed70:	01412483          	lw	s1,20(sp)
   1ed74:	01012903          	lw	s2,16(sp)
   1ed78:	00c12983          	lw	s3,12(sp)
   1ed7c:	00070513          	mv	a0,a4
   1ed80:	02010113          	addi	sp,sp,32
   1ed84:	00008067          	ret
   1ed88:	14070c63          	beqz	a4,1eee0 <__adddf3+0x320>
   1ed8c:	40888733          	sub	a4,a7,s0
   1ed90:	3c041663          	bnez	s0,1f15c <__adddf3+0x59c>
   1ed94:	00b9e533          	or	a0,s3,a1
   1ed98:	30050263          	beqz	a0,1f09c <__adddf3+0x4dc>
   1ed9c:	fff70513          	addi	a0,a4,-1
   1eda0:	5c050663          	beqz	a0,1f36c <__adddf3+0x7ac>
   1eda4:	7ff00313          	li	t1,2047
   1eda8:	54670063          	beq	a4,t1,1f2e8 <__adddf3+0x728>
   1edac:	03800713          	li	a4,56
   1edb0:	00100493          	li	s1,1
   1edb4:	02a74c63          	blt	a4,a0,1edec <__adddf3+0x22c>
   1edb8:	00050713          	mv	a4,a0
   1edbc:	01f00613          	li	a2,31
   1edc0:	54e64e63          	blt	a2,a4,1f31c <__adddf3+0x75c>
   1edc4:	02000613          	li	a2,32
   1edc8:	40e60633          	sub	a2,a2,a4
   1edcc:	00c994b3          	sll	s1,s3,a2
   1edd0:	00e5d533          	srl	a0,a1,a4
   1edd4:	00c59633          	sll	a2,a1,a2
   1edd8:	00a4e4b3          	or	s1,s1,a0
   1eddc:	00c03633          	snez	a2,a2
   1ede0:	00e9d733          	srl	a4,s3,a4
   1ede4:	00c4e4b3          	or	s1,s1,a2
   1ede8:	40e787b3          	sub	a5,a5,a4
   1edec:	409804b3          	sub	s1,a6,s1
   1edf0:	00983833          	sltu	a6,a6,s1
   1edf4:	410789b3          	sub	s3,a5,a6
   1edf8:	00088413          	mv	s0,a7
   1edfc:	00068913          	mv	s2,a3
   1ee00:	e89ff06f          	j	1ec88 <__adddf3+0xc8>
   1ee04:	16e05863          	blez	a4,1ef74 <__adddf3+0x3b4>
   1ee08:	12089863          	bnez	a7,1ef38 <__adddf3+0x378>
   1ee0c:	0107e6b3          	or	a3,a5,a6
   1ee10:	28068c63          	beqz	a3,1f0a8 <__adddf3+0x4e8>
   1ee14:	fff70613          	addi	a2,a4,-1
   1ee18:	44060263          	beqz	a2,1f25c <__adddf3+0x69c>
   1ee1c:	7ff00693          	li	a3,2047
   1ee20:	58d70663          	beq	a4,a3,1f3ac <__adddf3+0x7ec>
   1ee24:	03800713          	li	a4,56
   1ee28:	00100693          	li	a3,1
   1ee2c:	02c74c63          	blt	a4,a2,1ee64 <__adddf3+0x2a4>
   1ee30:	00060713          	mv	a4,a2
   1ee34:	01f00693          	li	a3,31
   1ee38:	48e6c263          	blt	a3,a4,1f2bc <__adddf3+0x6fc>
   1ee3c:	02000613          	li	a2,32
   1ee40:	40e60633          	sub	a2,a2,a4
   1ee44:	00c796b3          	sll	a3,a5,a2
   1ee48:	00e85533          	srl	a0,a6,a4
   1ee4c:	00c81633          	sll	a2,a6,a2
   1ee50:	00a6e6b3          	or	a3,a3,a0
   1ee54:	00c03633          	snez	a2,a2
   1ee58:	00e7d733          	srl	a4,a5,a4
   1ee5c:	00c6e6b3          	or	a3,a3,a2
   1ee60:	00e989b3          	add	s3,s3,a4
   1ee64:	00b687b3          	add	a5,a3,a1
   1ee68:	00d7b6b3          	sltu	a3,a5,a3
   1ee6c:	00078493          	mv	s1,a5
   1ee70:	00d989b3          	add	s3,s3,a3
   1ee74:	008007b7          	lui	a5,0x800
   1ee78:	00f9f7b3          	and	a5,s3,a5
   1ee7c:	0e078663          	beqz	a5,1ef68 <__adddf3+0x3a8>
   1ee80:	00140413          	addi	s0,s0,1
   1ee84:	7ff00793          	li	a5,2047
   1ee88:	0cf40863          	beq	s0,a5,1ef58 <__adddf3+0x398>
   1ee8c:	ff8007b7          	lui	a5,0xff800
   1ee90:	fff78793          	addi	a5,a5,-1 # ff7fffff <__BSS_END__+0xff7dc1cf>
   1ee94:	00f9f7b3          	and	a5,s3,a5
   1ee98:	0014d713          	srli	a4,s1,0x1
   1ee9c:	0014f493          	andi	s1,s1,1
   1eea0:	00976733          	or	a4,a4,s1
   1eea4:	01f79493          	slli	s1,a5,0x1f
   1eea8:	00e4e4b3          	or	s1,s1,a4
   1eeac:	0017d993          	srli	s3,a5,0x1
   1eeb0:	e45ff06f          	j	1ecf4 <__adddf3+0x134>
   1eeb4:	0107e6b3          	or	a3,a5,a6
   1eeb8:	1e068863          	beqz	a3,1f0a8 <__adddf3+0x4e8>
   1eebc:	fff70693          	addi	a3,a4,-1
   1eec0:	3c068463          	beqz	a3,1f288 <__adddf3+0x6c8>
   1eec4:	7ff00613          	li	a2,2047
   1eec8:	1ac70263          	beq	a4,a2,1f06c <__adddf3+0x4ac>
   1eecc:	03800713          	li	a4,56
   1eed0:	00100493          	li	s1,1
   1eed4:	dad744e3          	blt	a4,a3,1ec7c <__adddf3+0xbc>
   1eed8:	00068713          	mv	a4,a3
   1eedc:	d71ff06f          	j	1ec4c <__adddf3+0x8c>
   1eee0:	00140713          	addi	a4,s0,1
   1eee4:	7fe77713          	andi	a4,a4,2046
   1eee8:	22071e63          	bnez	a4,1f124 <__adddf3+0x564>
   1eeec:	00b9e8b3          	or	a7,s3,a1
   1eef0:	0107e733          	or	a4,a5,a6
   1eef4:	34041863          	bnez	s0,1f244 <__adddf3+0x684>
   1eef8:	48088a63          	beqz	a7,1f38c <__adddf3+0x7cc>
   1eefc:	4c070463          	beqz	a4,1f3c4 <__adddf3+0x804>
   1ef00:	410584b3          	sub	s1,a1,a6
   1ef04:	0095b733          	sltu	a4,a1,s1
   1ef08:	40f98633          	sub	a2,s3,a5
   1ef0c:	40e60633          	sub	a2,a2,a4
   1ef10:	00800737          	lui	a4,0x800
   1ef14:	00e67733          	and	a4,a2,a4
   1ef18:	52070a63          	beqz	a4,1f44c <__adddf3+0x88c>
   1ef1c:	40b805b3          	sub	a1,a6,a1
   1ef20:	413787b3          	sub	a5,a5,s3
   1ef24:	00b83833          	sltu	a6,a6,a1
   1ef28:	00058493          	mv	s1,a1
   1ef2c:	410789b3          	sub	s3,a5,a6
   1ef30:	00068913          	mv	s2,a3
   1ef34:	dc1ff06f          	j	1ecf4 <__adddf3+0x134>
   1ef38:	7ff00693          	li	a3,2047
   1ef3c:	12d40863          	beq	s0,a3,1f06c <__adddf3+0x4ac>
   1ef40:	03800613          	li	a2,56
   1ef44:	00100693          	li	a3,1
   1ef48:	f0e64ee3          	blt	a2,a4,1ee64 <__adddf3+0x2a4>
   1ef4c:	008006b7          	lui	a3,0x800
   1ef50:	00d7e7b3          	or	a5,a5,a3
   1ef54:	ee1ff06f          	j	1ee34 <__adddf3+0x274>
   1ef58:	7ff00413          	li	s0,2047
   1ef5c:	00000793          	li	a5,0
   1ef60:	00000713          	li	a4,0
   1ef64:	df1ff06f          	j	1ed54 <__adddf3+0x194>
   1ef68:	0074f713          	andi	a4,s1,7
   1ef6c:	d80718e3          	bnez	a4,1ecfc <__adddf3+0x13c>
   1ef70:	1a80006f          	j	1f118 <__adddf3+0x558>
   1ef74:	14070a63          	beqz	a4,1f0c8 <__adddf3+0x508>
   1ef78:	40888733          	sub	a4,a7,s0
   1ef7c:	22040663          	beqz	s0,1f1a8 <__adddf3+0x5e8>
   1ef80:	7ff00693          	li	a3,2047
   1ef84:	38d88063          	beq	a7,a3,1f304 <__adddf3+0x744>
   1ef88:	03800613          	li	a2,56
   1ef8c:	00100693          	li	a3,1
   1ef90:	02e64e63          	blt	a2,a4,1efcc <__adddf3+0x40c>
   1ef94:	008006b7          	lui	a3,0x800
   1ef98:	00d9e9b3          	or	s3,s3,a3
   1ef9c:	01f00693          	li	a3,31
   1efa0:	48e6c063          	blt	a3,a4,1f420 <__adddf3+0x860>
   1efa4:	02000613          	li	a2,32
   1efa8:	40e60633          	sub	a2,a2,a4
   1efac:	00c996b3          	sll	a3,s3,a2
   1efb0:	00e5d533          	srl	a0,a1,a4
   1efb4:	00c59633          	sll	a2,a1,a2
   1efb8:	00a6e6b3          	or	a3,a3,a0
   1efbc:	00c03633          	snez	a2,a2
   1efc0:	00e9d733          	srl	a4,s3,a4
   1efc4:	00c6e6b3          	or	a3,a3,a2
   1efc8:	00e787b3          	add	a5,a5,a4
   1efcc:	01068833          	add	a6,a3,a6
   1efd0:	00d836b3          	sltu	a3,a6,a3
   1efd4:	00080493          	mv	s1,a6
   1efd8:	00f689b3          	add	s3,a3,a5
   1efdc:	00088413          	mv	s0,a7
   1efe0:	e95ff06f          	j	1ee74 <__adddf3+0x2b4>
   1efe4:	00048513          	mv	a0,s1
   1efe8:	780020ef          	jal	ra,21768 <__clzsi2>
   1efec:	01850713          	addi	a4,a0,24
   1eff0:	01f00693          	li	a3,31
   1eff4:	cae6dce3          	bge	a3,a4,1ecac <__adddf3+0xec>
   1eff8:	ff850793          	addi	a5,a0,-8
   1effc:	00f497b3          	sll	a5,s1,a5
   1f000:	1c874a63          	blt	a4,s0,1f1d4 <__adddf3+0x614>
   1f004:	408704b3          	sub	s1,a4,s0
   1f008:	00148713          	addi	a4,s1,1
   1f00c:	46e6d663          	bge	a3,a4,1f478 <__adddf3+0x8b8>
   1f010:	fe148493          	addi	s1,s1,-31
   1f014:	02000693          	li	a3,32
   1f018:	0097d4b3          	srl	s1,a5,s1
   1f01c:	00d70c63          	beq	a4,a3,1f034 <__adddf3+0x474>
   1f020:	04000693          	li	a3,64
   1f024:	40e68733          	sub	a4,a3,a4
   1f028:	00e797b3          	sll	a5,a5,a4
   1f02c:	00f037b3          	snez	a5,a5
   1f030:	00f4e4b3          	or	s1,s1,a5
   1f034:	0074f713          	andi	a4,s1,7
   1f038:	00000413          	li	s0,0
   1f03c:	cc0710e3          	bnez	a4,1ecfc <__adddf3+0x13c>
   1f040:	0d80006f          	j	1f118 <__adddf3+0x558>
   1f044:	0034d793          	srli	a5,s1,0x3
   1f048:	01d99713          	slli	a4,s3,0x1d
   1f04c:	7ff00693          	li	a3,2047
   1f050:	00f76733          	or	a4,a4,a5
   1f054:	0039d793          	srli	a5,s3,0x3
   1f058:	02d40463          	beq	s0,a3,1f080 <__adddf3+0x4c0>
   1f05c:	00c79793          	slli	a5,a5,0xc
   1f060:	00c7d793          	srli	a5,a5,0xc
   1f064:	7ff47413          	andi	s0,s0,2047
   1f068:	cedff06f          	j	1ed54 <__adddf3+0x194>
   1f06c:	00351513          	slli	a0,a0,0x3
   1f070:	01d99793          	slli	a5,s3,0x1d
   1f074:	00355713          	srli	a4,a0,0x3
   1f078:	00f76733          	or	a4,a4,a5
   1f07c:	0039d793          	srli	a5,s3,0x3
   1f080:	00f76733          	or	a4,a4,a5
   1f084:	ec070ae3          	beqz	a4,1ef58 <__adddf3+0x398>
   1f088:	00000913          	li	s2,0
   1f08c:	7ff00413          	li	s0,2047
   1f090:	000807b7          	lui	a5,0x80
   1f094:	00000713          	li	a4,0
   1f098:	cbdff06f          	j	1ed54 <__adddf3+0x194>
   1f09c:	00080593          	mv	a1,a6
   1f0a0:	00078993          	mv	s3,a5
   1f0a4:	00068913          	mv	s2,a3
   1f0a8:	0035d793          	srli	a5,a1,0x3
   1f0ac:	00070413          	mv	s0,a4
   1f0b0:	f99ff06f          	j	1f048 <__adddf3+0x488>
   1f0b4:	ff8009b7          	lui	s3,0xff800
   1f0b8:	fff98993          	addi	s3,s3,-1 # ff7fffff <__BSS_END__+0xff7dc1cf>
   1f0bc:	40e40433          	sub	s0,s0,a4
   1f0c0:	0137f9b3          	and	s3,a5,s3
   1f0c4:	c31ff06f          	j	1ecf4 <__adddf3+0x134>
   1f0c8:	00140693          	addi	a3,s0,1
   1f0cc:	7fe6f713          	andi	a4,a3,2046
   1f0d0:	12071063          	bnez	a4,1f1f0 <__adddf3+0x630>
   1f0d4:	00b9e733          	or	a4,s3,a1
   1f0d8:	26041863          	bnez	s0,1f348 <__adddf3+0x788>
   1f0dc:	30070a63          	beqz	a4,1f3f0 <__adddf3+0x830>
   1f0e0:	0107e733          	or	a4,a5,a6
   1f0e4:	32070263          	beqz	a4,1f408 <__adddf3+0x848>
   1f0e8:	01058833          	add	a6,a1,a6
   1f0ec:	00f987b3          	add	a5,s3,a5
   1f0f0:	00b835b3          	sltu	a1,a6,a1
   1f0f4:	00b789b3          	add	s3,a5,a1
   1f0f8:	00800737          	lui	a4,0x800
   1f0fc:	00e9f733          	and	a4,s3,a4
   1f100:	00080493          	mv	s1,a6
   1f104:	00070a63          	beqz	a4,1f118 <__adddf3+0x558>
   1f108:	ff8007b7          	lui	a5,0xff800
   1f10c:	fff78793          	addi	a5,a5,-1 # ff7fffff <__BSS_END__+0xff7dc1cf>
   1f110:	00f9f9b3          	and	s3,s3,a5
   1f114:	00100413          	li	s0,1
   1f118:	00048593          	mv	a1,s1
   1f11c:	00040713          	mv	a4,s0
   1f120:	f89ff06f          	j	1f0a8 <__adddf3+0x4e8>
   1f124:	410584b3          	sub	s1,a1,a6
   1f128:	0095b733          	sltu	a4,a1,s1
   1f12c:	40f98633          	sub	a2,s3,a5
   1f130:	40e60633          	sub	a2,a2,a4
   1f134:	00800737          	lui	a4,0x800
   1f138:	00e67733          	and	a4,a2,a4
   1f13c:	0e071663          	bnez	a4,1f228 <__adddf3+0x668>
   1f140:	00c4e733          	or	a4,s1,a2
   1f144:	00060993          	mv	s3,a2
   1f148:	b4071ae3          	bnez	a4,1ec9c <__adddf3+0xdc>
   1f14c:	00000913          	li	s2,0
   1f150:	00000413          	li	s0,0
   1f154:	00000793          	li	a5,0
   1f158:	bfdff06f          	j	1ed54 <__adddf3+0x194>
   1f15c:	7ff00513          	li	a0,2047
   1f160:	18a88463          	beq	a7,a0,1f2e8 <__adddf3+0x728>
   1f164:	03800613          	li	a2,56
   1f168:	00100493          	li	s1,1
   1f16c:	c8e640e3          	blt	a2,a4,1edec <__adddf3+0x22c>
   1f170:	00800637          	lui	a2,0x800
   1f174:	00c9e9b3          	or	s3,s3,a2
   1f178:	c45ff06f          	j	1edbc <__adddf3+0x1fc>
   1f17c:	fe070693          	addi	a3,a4,-32 # 7fffe0 <__BSS_END__+0x7dc1b0>
   1f180:	02000613          	li	a2,32
   1f184:	00d7d6b3          	srl	a3,a5,a3
   1f188:	00c70a63          	beq	a4,a2,1f19c <__adddf3+0x5dc>
   1f18c:	04000613          	li	a2,64
   1f190:	40e60733          	sub	a4,a2,a4
   1f194:	00e797b3          	sll	a5,a5,a4
   1f198:	00f86833          	or	a6,a6,a5
   1f19c:	010034b3          	snez	s1,a6
   1f1a0:	00d4e4b3          	or	s1,s1,a3
   1f1a4:	ad9ff06f          	j	1ec7c <__adddf3+0xbc>
   1f1a8:	00b9e6b3          	or	a3,s3,a1
   1f1ac:	22068863          	beqz	a3,1f3dc <__adddf3+0x81c>
   1f1b0:	fff70513          	addi	a0,a4,-1
   1f1b4:	0a050463          	beqz	a0,1f25c <__adddf3+0x69c>
   1f1b8:	7ff00693          	li	a3,2047
   1f1bc:	14d70463          	beq	a4,a3,1f304 <__adddf3+0x744>
   1f1c0:	03800713          	li	a4,56
   1f1c4:	00100693          	li	a3,1
   1f1c8:	e0a742e3          	blt	a4,a0,1efcc <__adddf3+0x40c>
   1f1cc:	00050713          	mv	a4,a0
   1f1d0:	dcdff06f          	j	1ef9c <__adddf3+0x3dc>
   1f1d4:	ff8006b7          	lui	a3,0xff800
   1f1d8:	fff68693          	addi	a3,a3,-1 # ff7fffff <__BSS_END__+0xff7dc1cf>
   1f1dc:	00d7f7b3          	and	a5,a5,a3
   1f1e0:	40e40433          	sub	s0,s0,a4
   1f1e4:	01d79713          	slli	a4,a5,0x1d
   1f1e8:	0037d793          	srli	a5,a5,0x3
   1f1ec:	e71ff06f          	j	1f05c <__adddf3+0x49c>
   1f1f0:	7ff00713          	li	a4,2047
   1f1f4:	d6e682e3          	beq	a3,a4,1ef58 <__adddf3+0x398>
   1f1f8:	01058733          	add	a4,a1,a6
   1f1fc:	00f987b3          	add	a5,s3,a5
   1f200:	00b735b3          	sltu	a1,a4,a1
   1f204:	00b787b3          	add	a5,a5,a1
   1f208:	00175713          	srli	a4,a4,0x1
   1f20c:	01f79493          	slli	s1,a5,0x1f
   1f210:	00e4e4b3          	or	s1,s1,a4
   1f214:	00777713          	andi	a4,a4,7
   1f218:	0017d993          	srli	s3,a5,0x1
   1f21c:	00068413          	mv	s0,a3
   1f220:	ac071ee3          	bnez	a4,1ecfc <__adddf3+0x13c>
   1f224:	ef5ff06f          	j	1f118 <__adddf3+0x558>
   1f228:	40b805b3          	sub	a1,a6,a1
   1f22c:	413787b3          	sub	a5,a5,s3
   1f230:	00b83833          	sltu	a6,a6,a1
   1f234:	00058493          	mv	s1,a1
   1f238:	410789b3          	sub	s3,a5,a6
   1f23c:	00068913          	mv	s2,a3
   1f240:	a5dff06f          	j	1ec9c <__adddf3+0xdc>
   1f244:	1a089263          	bnez	a7,1f3e8 <__adddf3+0x828>
   1f248:	20071a63          	bnez	a4,1f45c <__adddf3+0x89c>
   1f24c:	00000913          	li	s2,0
   1f250:	7ff00413          	li	s0,2047
   1f254:	000807b7          	lui	a5,0x80
   1f258:	afdff06f          	j	1ed54 <__adddf3+0x194>
   1f25c:	01058833          	add	a6,a1,a6
   1f260:	00f987b3          	add	a5,s3,a5
   1f264:	00b835b3          	sltu	a1,a6,a1
   1f268:	00b789b3          	add	s3,a5,a1
   1f26c:	008007b7          	lui	a5,0x800
   1f270:	00f9f7b3          	and	a5,s3,a5
   1f274:	00080493          	mv	s1,a6
   1f278:	00100413          	li	s0,1
   1f27c:	ce0786e3          	beqz	a5,1ef68 <__adddf3+0x3a8>
   1f280:	00200413          	li	s0,2
   1f284:	c09ff06f          	j	1ee8c <__adddf3+0x2cc>
   1f288:	41058833          	sub	a6,a1,a6
   1f28c:	40f987b3          	sub	a5,s3,a5
   1f290:	0105b5b3          	sltu	a1,a1,a6
   1f294:	00080493          	mv	s1,a6
   1f298:	40b789b3          	sub	s3,a5,a1
   1f29c:	00100413          	li	s0,1
   1f2a0:	9e9ff06f          	j	1ec88 <__adddf3+0xc8>
   1f2a4:	00351513          	slli	a0,a0,0x3
   1f2a8:	00355513          	srli	a0,a0,0x3
   1f2ac:	01d99713          	slli	a4,s3,0x1d
   1f2b0:	00e56733          	or	a4,a0,a4
   1f2b4:	0039d793          	srli	a5,s3,0x3
   1f2b8:	dc9ff06f          	j	1f080 <__adddf3+0x4c0>
   1f2bc:	fe070613          	addi	a2,a4,-32
   1f2c0:	02000693          	li	a3,32
   1f2c4:	00c7d633          	srl	a2,a5,a2
   1f2c8:	00d70a63          	beq	a4,a3,1f2dc <__adddf3+0x71c>
   1f2cc:	04000693          	li	a3,64
   1f2d0:	40e68733          	sub	a4,a3,a4
   1f2d4:	00e797b3          	sll	a5,a5,a4
   1f2d8:	00f86833          	or	a6,a6,a5
   1f2dc:	010036b3          	snez	a3,a6
   1f2e0:	00c6e6b3          	or	a3,a3,a2
   1f2e4:	b81ff06f          	j	1ee64 <__adddf3+0x2a4>
   1f2e8:	00361613          	slli	a2,a2,0x3
   1f2ec:	01d79713          	slli	a4,a5,0x1d
   1f2f0:	00365613          	srli	a2,a2,0x3
   1f2f4:	00e66733          	or	a4,a2,a4
   1f2f8:	0037d793          	srli	a5,a5,0x3
   1f2fc:	00068913          	mv	s2,a3
   1f300:	d81ff06f          	j	1f080 <__adddf3+0x4c0>
   1f304:	00361613          	slli	a2,a2,0x3
   1f308:	01d79713          	slli	a4,a5,0x1d
   1f30c:	00365613          	srli	a2,a2,0x3
   1f310:	00e66733          	or	a4,a2,a4
   1f314:	0037d793          	srli	a5,a5,0x3
   1f318:	d69ff06f          	j	1f080 <__adddf3+0x4c0>
   1f31c:	fe070613          	addi	a2,a4,-32
   1f320:	02000513          	li	a0,32
   1f324:	00c9d633          	srl	a2,s3,a2
   1f328:	00a70a63          	beq	a4,a0,1f33c <__adddf3+0x77c>
   1f32c:	04000513          	li	a0,64
   1f330:	40e50733          	sub	a4,a0,a4
   1f334:	00e99733          	sll	a4,s3,a4
   1f338:	00e5e5b3          	or	a1,a1,a4
   1f33c:	00b034b3          	snez	s1,a1
   1f340:	00c4e4b3          	or	s1,s1,a2
   1f344:	aa9ff06f          	j	1edec <__adddf3+0x22c>
   1f348:	fa070ee3          	beqz	a4,1f304 <__adddf3+0x744>
   1f34c:	0107e833          	or	a6,a5,a6
   1f350:	d2081ce3          	bnez	a6,1f088 <__adddf3+0x4c8>
   1f354:	00351513          	slli	a0,a0,0x3
   1f358:	01d99793          	slli	a5,s3,0x1d
   1f35c:	00355513          	srli	a0,a0,0x3
   1f360:	00f56733          	or	a4,a0,a5
   1f364:	0039d793          	srli	a5,s3,0x3
   1f368:	d19ff06f          	j	1f080 <__adddf3+0x4c0>
   1f36c:	40b805b3          	sub	a1,a6,a1
   1f370:	413787b3          	sub	a5,a5,s3
   1f374:	00b83833          	sltu	a6,a6,a1
   1f378:	00058493          	mv	s1,a1
   1f37c:	410789b3          	sub	s3,a5,a6
   1f380:	00068913          	mv	s2,a3
   1f384:	00100413          	li	s0,1
   1f388:	901ff06f          	j	1ec88 <__adddf3+0xc8>
   1f38c:	dc0700e3          	beqz	a4,1f14c <__adddf3+0x58c>
   1f390:	00361613          	slli	a2,a2,0x3
   1f394:	01d79713          	slli	a4,a5,0x1d
   1f398:	00365613          	srli	a2,a2,0x3
   1f39c:	00c76733          	or	a4,a4,a2
   1f3a0:	0037d793          	srli	a5,a5,0x3
   1f3a4:	00068913          	mv	s2,a3
   1f3a8:	cb5ff06f          	j	1f05c <__adddf3+0x49c>
   1f3ac:	00351793          	slli	a5,a0,0x3
   1f3b0:	0037d793          	srli	a5,a5,0x3
   1f3b4:	01d99713          	slli	a4,s3,0x1d
   1f3b8:	00f76733          	or	a4,a4,a5
   1f3bc:	0039d793          	srli	a5,s3,0x3
   1f3c0:	cc1ff06f          	j	1f080 <__adddf3+0x4c0>
   1f3c4:	00351793          	slli	a5,a0,0x3
   1f3c8:	0037d793          	srli	a5,a5,0x3
   1f3cc:	01d99713          	slli	a4,s3,0x1d
   1f3d0:	00f76733          	or	a4,a4,a5
   1f3d4:	0039d793          	srli	a5,s3,0x3
   1f3d8:	c85ff06f          	j	1f05c <__adddf3+0x49c>
   1f3dc:	00080593          	mv	a1,a6
   1f3e0:	00078993          	mv	s3,a5
   1f3e4:	cc5ff06f          	j	1f0a8 <__adddf3+0x4e8>
   1f3e8:	f60706e3          	beqz	a4,1f354 <__adddf3+0x794>
   1f3ec:	c9dff06f          	j	1f088 <__adddf3+0x4c8>
   1f3f0:	00361613          	slli	a2,a2,0x3
   1f3f4:	01d79713          	slli	a4,a5,0x1d
   1f3f8:	00365613          	srli	a2,a2,0x3
   1f3fc:	00e66733          	or	a4,a2,a4
   1f400:	0037d793          	srli	a5,a5,0x3
   1f404:	c59ff06f          	j	1f05c <__adddf3+0x49c>
   1f408:	00351513          	slli	a0,a0,0x3
   1f40c:	01d99793          	slli	a5,s3,0x1d
   1f410:	00355513          	srli	a0,a0,0x3
   1f414:	00f56733          	or	a4,a0,a5
   1f418:	0039d793          	srli	a5,s3,0x3
   1f41c:	c41ff06f          	j	1f05c <__adddf3+0x49c>
   1f420:	fe070613          	addi	a2,a4,-32
   1f424:	02000693          	li	a3,32
   1f428:	00c9d633          	srl	a2,s3,a2
   1f42c:	00d70a63          	beq	a4,a3,1f440 <__adddf3+0x880>
   1f430:	04000693          	li	a3,64
   1f434:	40e68733          	sub	a4,a3,a4
   1f438:	00e99733          	sll	a4,s3,a4
   1f43c:	00e5e5b3          	or	a1,a1,a4
   1f440:	00b036b3          	snez	a3,a1
   1f444:	00c6e6b3          	or	a3,a3,a2
   1f448:	b85ff06f          	j	1efcc <__adddf3+0x40c>
   1f44c:	00c4e733          	or	a4,s1,a2
   1f450:	00060993          	mv	s3,a2
   1f454:	cc0712e3          	bnez	a4,1f118 <__adddf3+0x558>
   1f458:	cf5ff06f          	j	1f14c <__adddf3+0x58c>
   1f45c:	00361613          	slli	a2,a2,0x3
   1f460:	01d79713          	slli	a4,a5,0x1d
   1f464:	00365613          	srli	a2,a2,0x3
   1f468:	00c76733          	or	a4,a4,a2
   1f46c:	0037d793          	srli	a5,a5,0x3
   1f470:	00068913          	mv	s2,a3
   1f474:	c0dff06f          	j	1f080 <__adddf3+0x4c0>
   1f478:	02000693          	li	a3,32
   1f47c:	40e686b3          	sub	a3,a3,a4
   1f480:	00000613          	li	a2,0
   1f484:	85dff06f          	j	1ece0 <__adddf3+0x120>

0001f488 <__divdf3>:
   1f488:	fb010113          	addi	sp,sp,-80
   1f48c:	0145d793          	srli	a5,a1,0x14
   1f490:	04812423          	sw	s0,72(sp)
   1f494:	04912223          	sw	s1,68(sp)
   1f498:	05212023          	sw	s2,64(sp)
   1f49c:	03412c23          	sw	s4,56(sp)
   1f4a0:	03612823          	sw	s6,48(sp)
   1f4a4:	00c59493          	slli	s1,a1,0xc
   1f4a8:	04112623          	sw	ra,76(sp)
   1f4ac:	03312e23          	sw	s3,60(sp)
   1f4b0:	03512a23          	sw	s5,52(sp)
   1f4b4:	03712623          	sw	s7,44(sp)
   1f4b8:	03812423          	sw	s8,40(sp)
   1f4bc:	03912223          	sw	s9,36(sp)
   1f4c0:	03a12023          	sw	s10,32(sp)
   1f4c4:	01b12e23          	sw	s11,28(sp)
   1f4c8:	7ff7f793          	andi	a5,a5,2047
   1f4cc:	00050413          	mv	s0,a0
   1f4d0:	00060a13          	mv	s4,a2
   1f4d4:	00068913          	mv	s2,a3
   1f4d8:	00c4d493          	srli	s1,s1,0xc
   1f4dc:	01f5db13          	srli	s6,a1,0x1f
   1f4e0:	18078863          	beqz	a5,1f670 <__divdf3+0x1e8>
   1f4e4:	7ff00713          	li	a4,2047
   1f4e8:	1ce78a63          	beq	a5,a4,1f6bc <__divdf3+0x234>
   1f4ec:	01d55b93          	srli	s7,a0,0x1d
   1f4f0:	00349493          	slli	s1,s1,0x3
   1f4f4:	009be4b3          	or	s1,s7,s1
   1f4f8:	00800737          	lui	a4,0x800
   1f4fc:	00e4ebb3          	or	s7,s1,a4
   1f500:	00351a93          	slli	s5,a0,0x3
   1f504:	c0178993          	addi	s3,a5,-1023 # 7ffc01 <__BSS_END__+0x7dbdd1>
   1f508:	00000493          	li	s1,0
   1f50c:	00000c13          	li	s8,0
   1f510:	01495793          	srli	a5,s2,0x14
   1f514:	00c91413          	slli	s0,s2,0xc
   1f518:	7ff7f793          	andi	a5,a5,2047
   1f51c:	00c45413          	srli	s0,s0,0xc
   1f520:	01f95913          	srli	s2,s2,0x1f
   1f524:	10078263          	beqz	a5,1f628 <__divdf3+0x1a0>
   1f528:	7ff00713          	li	a4,2047
   1f52c:	0ee78063          	beq	a5,a4,1f60c <__divdf3+0x184>
   1f530:	00341413          	slli	s0,s0,0x3
   1f534:	01da5713          	srli	a4,s4,0x1d
   1f538:	00876733          	or	a4,a4,s0
   1f53c:	c0178793          	addi	a5,a5,-1023
   1f540:	00800437          	lui	s0,0x800
   1f544:	40f989b3          	sub	s3,s3,a5
   1f548:	00876433          	or	s0,a4,s0
   1f54c:	003a1813          	slli	a6,s4,0x3
   1f550:	00000793          	li	a5,0
   1f554:	00f00713          	li	a4,15
   1f558:	012b4a33          	xor	s4,s6,s2
   1f55c:	24976463          	bltu	a4,s1,1f7a4 <__divdf3+0x31c>
   1f560:	00003697          	auipc	a3,0x3
   1f564:	f1068693          	addi	a3,a3,-240 # 22470 <_ctype_+0x104>
   1f568:	00249493          	slli	s1,s1,0x2
   1f56c:	00d484b3          	add	s1,s1,a3
   1f570:	0004a703          	lw	a4,0(s1)
   1f574:	00d70733          	add	a4,a4,a3
   1f578:	00070067          	jr	a4 # 800000 <__BSS_END__+0x7dc1d0>
   1f57c:	40f70733          	sub	a4,a4,a5
   1f580:	03800693          	li	a3,56
   1f584:	66e6d063          	bge	a3,a4,1fbe4 <__divdf3+0x75c>
   1f588:	00000793          	li	a5,0
   1f58c:	00000693          	li	a3,0
   1f590:	00000713          	li	a4,0
   1f594:	04c12083          	lw	ra,76(sp)
   1f598:	04812403          	lw	s0,72(sp)
   1f59c:	01479793          	slli	a5,a5,0x14
   1f5a0:	00d7e7b3          	or	a5,a5,a3
   1f5a4:	01fa1693          	slli	a3,s4,0x1f
   1f5a8:	00d7e7b3          	or	a5,a5,a3
   1f5ac:	04412483          	lw	s1,68(sp)
   1f5b0:	04012903          	lw	s2,64(sp)
   1f5b4:	03c12983          	lw	s3,60(sp)
   1f5b8:	03812a03          	lw	s4,56(sp)
   1f5bc:	03412a83          	lw	s5,52(sp)
   1f5c0:	03012b03          	lw	s6,48(sp)
   1f5c4:	02c12b83          	lw	s7,44(sp)
   1f5c8:	02812c03          	lw	s8,40(sp)
   1f5cc:	02412c83          	lw	s9,36(sp)
   1f5d0:	02012d03          	lw	s10,32(sp)
   1f5d4:	01c12d83          	lw	s11,28(sp)
   1f5d8:	00070513          	mv	a0,a4
   1f5dc:	00078593          	mv	a1,a5
   1f5e0:	05010113          	addi	sp,sp,80
   1f5e4:	00008067          	ret
   1f5e8:	7ff00793          	li	a5,2047
   1f5ec:	00000693          	li	a3,0
   1f5f0:	00000713          	li	a4,0
   1f5f4:	fa1ff06f          	j	1f594 <__divdf3+0x10c>
   1f5f8:	00000a13          	li	s4,0
   1f5fc:	7ff00793          	li	a5,2047
   1f600:	000806b7          	lui	a3,0x80
   1f604:	00000713          	li	a4,0
   1f608:	f8dff06f          	j	1f594 <__divdf3+0x10c>
   1f60c:	01446833          	or	a6,s0,s4
   1f610:	80198993          	addi	s3,s3,-2047
   1f614:	16081663          	bnez	a6,1f780 <__divdf3+0x2f8>
   1f618:	0024e493          	ori	s1,s1,2
   1f61c:	00000413          	li	s0,0
   1f620:	00200793          	li	a5,2
   1f624:	f31ff06f          	j	1f554 <__divdf3+0xcc>
   1f628:	01446833          	or	a6,s0,s4
   1f62c:	14080263          	beqz	a6,1f770 <__divdf3+0x2e8>
   1f630:	54040863          	beqz	s0,1fb80 <__divdf3+0x6f8>
   1f634:	00040513          	mv	a0,s0
   1f638:	130020ef          	jal	ra,21768 <__clzsi2>
   1f63c:	00050793          	mv	a5,a0
   1f640:	ff550693          	addi	a3,a0,-11
   1f644:	01d00713          	li	a4,29
   1f648:	ff878813          	addi	a6,a5,-8
   1f64c:	40d70733          	sub	a4,a4,a3
   1f650:	01041433          	sll	s0,s0,a6
   1f654:	00ea5733          	srl	a4,s4,a4
   1f658:	00876433          	or	s0,a4,s0
   1f65c:	010a1833          	sll	a6,s4,a6
   1f660:	013787b3          	add	a5,a5,s3
   1f664:	3f378993          	addi	s3,a5,1011
   1f668:	00000793          	li	a5,0
   1f66c:	ee9ff06f          	j	1f554 <__divdf3+0xcc>
   1f670:	00a4ebb3          	or	s7,s1,a0
   1f674:	100b8e63          	beqz	s7,1f790 <__divdf3+0x308>
   1f678:	4e048263          	beqz	s1,1fb5c <__divdf3+0x6d4>
   1f67c:	00048513          	mv	a0,s1
   1f680:	0e8020ef          	jal	ra,21768 <__clzsi2>
   1f684:	00050713          	mv	a4,a0
   1f688:	ff550793          	addi	a5,a0,-11
   1f68c:	01d00b93          	li	s7,29
   1f690:	ff870a93          	addi	s5,a4,-8
   1f694:	40fb8bb3          	sub	s7,s7,a5
   1f698:	015494b3          	sll	s1,s1,s5
   1f69c:	01745bb3          	srl	s7,s0,s7
   1f6a0:	009bebb3          	or	s7,s7,s1
   1f6a4:	01541ab3          	sll	s5,s0,s5
   1f6a8:	c0d00793          	li	a5,-1011
   1f6ac:	40e789b3          	sub	s3,a5,a4
   1f6b0:	00000493          	li	s1,0
   1f6b4:	00000c13          	li	s8,0
   1f6b8:	e59ff06f          	j	1f510 <__divdf3+0x88>
   1f6bc:	00a4ebb3          	or	s7,s1,a0
   1f6c0:	080b9c63          	bnez	s7,1f758 <__divdf3+0x2d0>
   1f6c4:	00000a93          	li	s5,0
   1f6c8:	00800493          	li	s1,8
   1f6cc:	7ff00993          	li	s3,2047
   1f6d0:	00200c13          	li	s8,2
   1f6d4:	e3dff06f          	j	1f510 <__divdf3+0x88>
   1f6d8:	00078c13          	mv	s8,a5
   1f6dc:	00200793          	li	a5,2
   1f6e0:	5efc0a63          	beq	s8,a5,1fcd4 <__divdf3+0x84c>
   1f6e4:	00300793          	li	a5,3
   1f6e8:	f0fc08e3          	beq	s8,a5,1f5f8 <__divdf3+0x170>
   1f6ec:	00100793          	li	a5,1
   1f6f0:	00090a13          	mv	s4,s2
   1f6f4:	e8fc0ae3          	beq	s8,a5,1f588 <__divdf3+0x100>
   1f6f8:	3ff98793          	addi	a5,s3,1023
   1f6fc:	3af05663          	blez	a5,1faa8 <__divdf3+0x620>
   1f700:	00787713          	andi	a4,a6,7
   1f704:	5a071863          	bnez	a4,1fcb4 <__divdf3+0x82c>
   1f708:	01000737          	lui	a4,0x1000
   1f70c:	00e47733          	and	a4,s0,a4
   1f710:	00070a63          	beqz	a4,1f724 <__divdf3+0x29c>
   1f714:	ff0007b7          	lui	a5,0xff000
   1f718:	fff78793          	addi	a5,a5,-1 # feffffff <__BSS_END__+0xfefdc1cf>
   1f71c:	00f47433          	and	s0,s0,a5
   1f720:	40098793          	addi	a5,s3,1024
   1f724:	7fe00713          	li	a4,2046
   1f728:	ecf740e3          	blt	a4,a5,1f5e8 <__divdf3+0x160>
   1f72c:	00385813          	srli	a6,a6,0x3
   1f730:	01d41713          	slli	a4,s0,0x1d
   1f734:	00941693          	slli	a3,s0,0x9
   1f738:	01076733          	or	a4,a4,a6
   1f73c:	00c6d693          	srli	a3,a3,0xc
   1f740:	7ff7f793          	andi	a5,a5,2047
   1f744:	e51ff06f          	j	1f594 <__divdf3+0x10c>
   1f748:	000b0913          	mv	s2,s6
   1f74c:	000b8413          	mv	s0,s7
   1f750:	000a8813          	mv	a6,s5
   1f754:	f89ff06f          	j	1f6dc <__divdf3+0x254>
   1f758:	00048b93          	mv	s7,s1
   1f75c:	00050a93          	mv	s5,a0
   1f760:	00c00493          	li	s1,12
   1f764:	7ff00993          	li	s3,2047
   1f768:	00300c13          	li	s8,3
   1f76c:	da5ff06f          	j	1f510 <__divdf3+0x88>
   1f770:	0014e493          	ori	s1,s1,1
   1f774:	00000413          	li	s0,0
   1f778:	00100793          	li	a5,1
   1f77c:	dd9ff06f          	j	1f554 <__divdf3+0xcc>
   1f780:	0034e493          	ori	s1,s1,3
   1f784:	000a0813          	mv	a6,s4
   1f788:	00300793          	li	a5,3
   1f78c:	dc9ff06f          	j	1f554 <__divdf3+0xcc>
   1f790:	00000a93          	li	s5,0
   1f794:	00400493          	li	s1,4
   1f798:	00000993          	li	s3,0
   1f79c:	00100c13          	li	s8,1
   1f7a0:	d71ff06f          	j	1f510 <__divdf3+0x88>
   1f7a4:	3b746063          	bltu	s0,s7,1fb44 <__divdf3+0x6bc>
   1f7a8:	388b8c63          	beq	s7,s0,1fb40 <__divdf3+0x6b8>
   1f7ac:	fff98993          	addi	s3,s3,-1
   1f7b0:	000a8c13          	mv	s8,s5
   1f7b4:	000b8493          	mv	s1,s7
   1f7b8:	00000d13          	li	s10,0
   1f7bc:	01885c93          	srli	s9,a6,0x18
   1f7c0:	00841413          	slli	s0,s0,0x8
   1f7c4:	01045913          	srli	s2,s0,0x10
   1f7c8:	008cecb3          	or	s9,s9,s0
   1f7cc:	00090593          	mv	a1,s2
   1f7d0:	00048513          	mv	a0,s1
   1f7d4:	010c9b93          	slli	s7,s9,0x10
   1f7d8:	00881b13          	slli	s6,a6,0x8
   1f7dc:	010bdb93          	srli	s7,s7,0x10
   1f7e0:	6dd010ef          	jal	ra,216bc <__hidden___udivsi3>
   1f7e4:	00050593          	mv	a1,a0
   1f7e8:	00050413          	mv	s0,a0
   1f7ec:	000b8513          	mv	a0,s7
   1f7f0:	6a1010ef          	jal	ra,21690 <__mulsi3>
   1f7f4:	00050793          	mv	a5,a0
   1f7f8:	00090593          	mv	a1,s2
   1f7fc:	00048513          	mv	a0,s1
   1f800:	00078493          	mv	s1,a5
   1f804:	701010ef          	jal	ra,21704 <__umodsi3>
   1f808:	01051513          	slli	a0,a0,0x10
   1f80c:	010c5793          	srli	a5,s8,0x10
   1f810:	00a7e7b3          	or	a5,a5,a0
   1f814:	0097fa63          	bgeu	a5,s1,1f828 <__divdf3+0x3a0>
   1f818:	00fc87b3          	add	a5,s9,a5
   1f81c:	fff40713          	addi	a4,s0,-1 # 7fffff <__BSS_END__+0x7dc1cf>
   1f820:	3b97fa63          	bgeu	a5,s9,1fbd4 <__divdf3+0x74c>
   1f824:	00070413          	mv	s0,a4
   1f828:	409784b3          	sub	s1,a5,s1
   1f82c:	00090593          	mv	a1,s2
   1f830:	00048513          	mv	a0,s1
   1f834:	689010ef          	jal	ra,216bc <__hidden___udivsi3>
   1f838:	00050593          	mv	a1,a0
   1f83c:	00050a93          	mv	s5,a0
   1f840:	000b8513          	mv	a0,s7
   1f844:	64d010ef          	jal	ra,21690 <__mulsi3>
   1f848:	00050793          	mv	a5,a0
   1f84c:	00090593          	mv	a1,s2
   1f850:	00048513          	mv	a0,s1
   1f854:	00078493          	mv	s1,a5
   1f858:	6ad010ef          	jal	ra,21704 <__umodsi3>
   1f85c:	010c1793          	slli	a5,s8,0x10
   1f860:	01051513          	slli	a0,a0,0x10
   1f864:	0107d793          	srli	a5,a5,0x10
   1f868:	00a7e7b3          	or	a5,a5,a0
   1f86c:	0097fa63          	bgeu	a5,s1,1f880 <__divdf3+0x3f8>
   1f870:	00fc87b3          	add	a5,s9,a5
   1f874:	fffa8713          	addi	a4,s5,-1
   1f878:	3597f663          	bgeu	a5,s9,1fbc4 <__divdf3+0x73c>
   1f87c:	00070a93          	mv	s5,a4
   1f880:	00010337          	lui	t1,0x10
   1f884:	01041413          	slli	s0,s0,0x10
   1f888:	01546433          	or	s0,s0,s5
   1f88c:	fff30d93          	addi	s11,t1,-1 # ffff <exit-0x95>
   1f890:	01b478b3          	and	a7,s0,s11
   1f894:	01bb7db3          	and	s11,s6,s11
   1f898:	40978ab3          	sub	s5,a5,s1
   1f89c:	010b5c13          	srli	s8,s6,0x10
   1f8a0:	01045793          	srli	a5,s0,0x10
   1f8a4:	00088513          	mv	a0,a7
   1f8a8:	000d8593          	mv	a1,s11
   1f8ac:	5e5010ef          	jal	ra,21690 <__mulsi3>
   1f8b0:	00050813          	mv	a6,a0
   1f8b4:	000c0593          	mv	a1,s8
   1f8b8:	00088513          	mv	a0,a7
   1f8bc:	5d5010ef          	jal	ra,21690 <__mulsi3>
   1f8c0:	00050893          	mv	a7,a0
   1f8c4:	000d8593          	mv	a1,s11
   1f8c8:	00078513          	mv	a0,a5
   1f8cc:	5c5010ef          	jal	ra,21690 <__mulsi3>
   1f8d0:	00050e13          	mv	t3,a0
   1f8d4:	000c0593          	mv	a1,s8
   1f8d8:	00078513          	mv	a0,a5
   1f8dc:	5b5010ef          	jal	ra,21690 <__mulsi3>
   1f8e0:	01085793          	srli	a5,a6,0x10
   1f8e4:	01c888b3          	add	a7,a7,t3
   1f8e8:	011787b3          	add	a5,a5,a7
   1f8ec:	01c7f463          	bgeu	a5,t3,1f8f4 <__divdf3+0x46c>
   1f8f0:	00650533          	add	a0,a0,t1
   1f8f4:	00010637          	lui	a2,0x10
   1f8f8:	fff60613          	addi	a2,a2,-1 # ffff <exit-0x95>
   1f8fc:	00c7f4b3          	and	s1,a5,a2
   1f900:	0107d693          	srli	a3,a5,0x10
   1f904:	01049493          	slli	s1,s1,0x10
   1f908:	00c87833          	and	a6,a6,a2
   1f90c:	00a687b3          	add	a5,a3,a0
   1f910:	010484b3          	add	s1,s1,a6
   1f914:	20fae063          	bltu	s5,a5,1fb14 <__divdf3+0x68c>
   1f918:	1efa8c63          	beq	s5,a5,1fb10 <__divdf3+0x688>
   1f91c:	409d04b3          	sub	s1,s10,s1
   1f920:	40fa8ab3          	sub	s5,s5,a5
   1f924:	009d3d33          	sltu	s10,s10,s1
   1f928:	41aa8ab3          	sub	s5,s5,s10
   1f92c:	375c8263          	beq	s9,s5,1fc90 <__divdf3+0x808>
   1f930:	00090593          	mv	a1,s2
   1f934:	000a8513          	mv	a0,s5
   1f938:	585010ef          	jal	ra,216bc <__hidden___udivsi3>
   1f93c:	00050593          	mv	a1,a0
   1f940:	00a12623          	sw	a0,12(sp)
   1f944:	00050d13          	mv	s10,a0
   1f948:	000b8513          	mv	a0,s7
   1f94c:	545010ef          	jal	ra,21690 <__mulsi3>
   1f950:	00050793          	mv	a5,a0
   1f954:	00090593          	mv	a1,s2
   1f958:	000a8513          	mv	a0,s5
   1f95c:	00078a93          	mv	s5,a5
   1f960:	5a5010ef          	jal	ra,21704 <__umodsi3>
   1f964:	01051513          	slli	a0,a0,0x10
   1f968:	0104d793          	srli	a5,s1,0x10
   1f96c:	00a7e7b3          	or	a5,a5,a0
   1f970:	0357f063          	bgeu	a5,s5,1f990 <__divdf3+0x508>
   1f974:	00fc87b3          	add	a5,s9,a5
   1f978:	fffd0693          	addi	a3,s10,-1
   1f97c:	3597e863          	bltu	a5,s9,1fccc <__divdf3+0x844>
   1f980:	3557f663          	bgeu	a5,s5,1fccc <__divdf3+0x844>
   1f984:	ffed0713          	addi	a4,s10,-2
   1f988:	00e12623          	sw	a4,12(sp)
   1f98c:	019787b3          	add	a5,a5,s9
   1f990:	41578ab3          	sub	s5,a5,s5
   1f994:	00090593          	mv	a1,s2
   1f998:	000a8513          	mv	a0,s5
   1f99c:	521010ef          	jal	ra,216bc <__hidden___udivsi3>
   1f9a0:	00050593          	mv	a1,a0
   1f9a4:	00050d13          	mv	s10,a0
   1f9a8:	000b8513          	mv	a0,s7
   1f9ac:	4e5010ef          	jal	ra,21690 <__mulsi3>
   1f9b0:	00050793          	mv	a5,a0
   1f9b4:	00090593          	mv	a1,s2
   1f9b8:	000a8513          	mv	a0,s5
   1f9bc:	00078913          	mv	s2,a5
   1f9c0:	01049493          	slli	s1,s1,0x10
   1f9c4:	541010ef          	jal	ra,21704 <__umodsi3>
   1f9c8:	01051513          	slli	a0,a0,0x10
   1f9cc:	0104d493          	srli	s1,s1,0x10
   1f9d0:	00a4e4b3          	or	s1,s1,a0
   1f9d4:	0124fe63          	bgeu	s1,s2,1f9f0 <__divdf3+0x568>
   1f9d8:	009c84b3          	add	s1,s9,s1
   1f9dc:	fffd0793          	addi	a5,s10,-1
   1f9e0:	2f94e263          	bltu	s1,s9,1fcc4 <__divdf3+0x83c>
   1f9e4:	2f24f063          	bgeu	s1,s2,1fcc4 <__divdf3+0x83c>
   1f9e8:	ffed0d13          	addi	s10,s10,-2
   1f9ec:	019484b3          	add	s1,s1,s9
   1f9f0:	00c12783          	lw	a5,12(sp)
   1f9f4:	412484b3          	sub	s1,s1,s2
   1f9f8:	000d8593          	mv	a1,s11
   1f9fc:	01079813          	slli	a6,a5,0x10
   1fa00:	01a86833          	or	a6,a6,s10
   1fa04:	01081313          	slli	t1,a6,0x10
   1fa08:	01035313          	srli	t1,t1,0x10
   1fa0c:	01085793          	srli	a5,a6,0x10
   1fa10:	00030513          	mv	a0,t1
   1fa14:	47d010ef          	jal	ra,21690 <__mulsi3>
   1fa18:	00050893          	mv	a7,a0
   1fa1c:	000c0593          	mv	a1,s8
   1fa20:	00030513          	mv	a0,t1
   1fa24:	46d010ef          	jal	ra,21690 <__mulsi3>
   1fa28:	00050313          	mv	t1,a0
   1fa2c:	000d8593          	mv	a1,s11
   1fa30:	00078513          	mv	a0,a5
   1fa34:	45d010ef          	jal	ra,21690 <__mulsi3>
   1fa38:	00050e13          	mv	t3,a0
   1fa3c:	000c0593          	mv	a1,s8
   1fa40:	00078513          	mv	a0,a5
   1fa44:	44d010ef          	jal	ra,21690 <__mulsi3>
   1fa48:	0108d793          	srli	a5,a7,0x10
   1fa4c:	01c30333          	add	t1,t1,t3
   1fa50:	006787b3          	add	a5,a5,t1
   1fa54:	01c7f663          	bgeu	a5,t3,1fa60 <__divdf3+0x5d8>
   1fa58:	00010737          	lui	a4,0x10
   1fa5c:	00e50533          	add	a0,a0,a4
   1fa60:	000106b7          	lui	a3,0x10
   1fa64:	fff68693          	addi	a3,a3,-1 # ffff <exit-0x95>
   1fa68:	0107d713          	srli	a4,a5,0x10
   1fa6c:	00d7f7b3          	and	a5,a5,a3
   1fa70:	01079793          	slli	a5,a5,0x10
   1fa74:	00d8f8b3          	and	a7,a7,a3
   1fa78:	00a70733          	add	a4,a4,a0
   1fa7c:	011787b3          	add	a5,a5,a7
   1fa80:	12e4f463          	bgeu	s1,a4,1fba8 <__divdf3+0x720>
   1fa84:	009c84b3          	add	s1,s9,s1
   1fa88:	fff80613          	addi	a2,a6,-1
   1fa8c:	00048693          	mv	a3,s1
   1fa90:	1d94e663          	bltu	s1,s9,1fc5c <__divdf3+0x7d4>
   1fa94:	24e4ea63          	bltu	s1,a4,1fce8 <__divdf3+0x860>
   1fa98:	26e48863          	beq	s1,a4,1fd08 <__divdf3+0x880>
   1fa9c:	00060813          	mv	a6,a2
   1faa0:	00186813          	ori	a6,a6,1
   1faa4:	c55ff06f          	j	1f6f8 <__divdf3+0x270>
   1faa8:	00100713          	li	a4,1
   1faac:	ac0798e3          	bnez	a5,1f57c <__divdf3+0xf4>
   1fab0:	41e98793          	addi	a5,s3,1054
   1fab4:	00f816b3          	sll	a3,a6,a5
   1fab8:	00d036b3          	snez	a3,a3
   1fabc:	00f417b3          	sll	a5,s0,a5
   1fac0:	00f6e7b3          	or	a5,a3,a5
   1fac4:	00e85833          	srl	a6,a6,a4
   1fac8:	00f86833          	or	a6,a6,a5
   1facc:	00787793          	andi	a5,a6,7
   1fad0:	00e45433          	srl	s0,s0,a4
   1fad4:	02078063          	beqz	a5,1faf4 <__divdf3+0x66c>
   1fad8:	00f87793          	andi	a5,a6,15
   1fadc:	00400713          	li	a4,4
   1fae0:	00e78a63          	beq	a5,a4,1faf4 <__divdf3+0x66c>
   1fae4:	00480793          	addi	a5,a6,4
   1fae8:	0107b833          	sltu	a6,a5,a6
   1faec:	01040433          	add	s0,s0,a6
   1faf0:	00078813          	mv	a6,a5
   1faf4:	00800637          	lui	a2,0x800
   1faf8:	00c47633          	and	a2,s0,a2
   1fafc:	00100793          	li	a5,1
   1fb00:	00000693          	li	a3,0
   1fb04:	00000713          	li	a4,0
   1fb08:	a80616e3          	bnez	a2,1f594 <__divdf3+0x10c>
   1fb0c:	1340006f          	j	1fc40 <__divdf3+0x7b8>
   1fb10:	e09d76e3          	bgeu	s10,s1,1f91c <__divdf3+0x494>
   1fb14:	016d06b3          	add	a3,s10,s6
   1fb18:	01a6b633          	sltu	a2,a3,s10
   1fb1c:	019605b3          	add	a1,a2,s9
   1fb20:	00ba8ab3          	add	s5,s5,a1
   1fb24:	00068d13          	mv	s10,a3
   1fb28:	fff40593          	addi	a1,s0,-1
   1fb2c:	095cf463          	bgeu	s9,s5,1fbb4 <__divdf3+0x72c>
   1fb30:	14fae263          	bltu	s5,a5,1fc74 <__divdf3+0x7ec>
   1fb34:	13578e63          	beq	a5,s5,1fc70 <__divdf3+0x7e8>
   1fb38:	00058413          	mv	s0,a1
   1fb3c:	de1ff06f          	j	1f91c <__divdf3+0x494>
   1fb40:	c70ae6e3          	bltu	s5,a6,1f7ac <__divdf3+0x324>
   1fb44:	01fb9c13          	slli	s8,s7,0x1f
   1fb48:	001ad713          	srli	a4,s5,0x1
   1fb4c:	001bd493          	srli	s1,s7,0x1
   1fb50:	00ec6c33          	or	s8,s8,a4
   1fb54:	01fa9d13          	slli	s10,s5,0x1f
   1fb58:	c65ff06f          	j	1f7bc <__divdf3+0x334>
   1fb5c:	40d010ef          	jal	ra,21768 <__clzsi2>
   1fb60:	01550793          	addi	a5,a0,21
   1fb64:	01c00693          	li	a3,28
   1fb68:	02050713          	addi	a4,a0,32
   1fb6c:	b2f6d0e3          	bge	a3,a5,1f68c <__divdf3+0x204>
   1fb70:	ff850493          	addi	s1,a0,-8
   1fb74:	00941bb3          	sll	s7,s0,s1
   1fb78:	00000a93          	li	s5,0
   1fb7c:	b2dff06f          	j	1f6a8 <__divdf3+0x220>
   1fb80:	000a0513          	mv	a0,s4
   1fb84:	3e5010ef          	jal	ra,21768 <__clzsi2>
   1fb88:	01550693          	addi	a3,a0,21
   1fb8c:	01c00713          	li	a4,28
   1fb90:	02050793          	addi	a5,a0,32
   1fb94:	aad758e3          	bge	a4,a3,1f644 <__divdf3+0x1bc>
   1fb98:	ff850513          	addi	a0,a0,-8
   1fb9c:	00000813          	li	a6,0
   1fba0:	00aa1433          	sll	s0,s4,a0
   1fba4:	abdff06f          	j	1f660 <__divdf3+0x1d8>
   1fba8:	eee49ce3          	bne	s1,a4,1faa0 <__divdf3+0x618>
   1fbac:	b40786e3          	beqz	a5,1f6f8 <__divdf3+0x270>
   1fbb0:	ed5ff06f          	j	1fa84 <__divdf3+0x5fc>
   1fbb4:	f95c92e3          	bne	s9,s5,1fb38 <__divdf3+0x6b0>
   1fbb8:	f6060ce3          	beqz	a2,1fb30 <__divdf3+0x6a8>
   1fbbc:	00058413          	mv	s0,a1
   1fbc0:	d5dff06f          	j	1f91c <__divdf3+0x494>
   1fbc4:	ca97fce3          	bgeu	a5,s1,1f87c <__divdf3+0x3f4>
   1fbc8:	ffea8a93          	addi	s5,s5,-2
   1fbcc:	019787b3          	add	a5,a5,s9
   1fbd0:	cb1ff06f          	j	1f880 <__divdf3+0x3f8>
   1fbd4:	c497f8e3          	bgeu	a5,s1,1f824 <__divdf3+0x39c>
   1fbd8:	ffe40413          	addi	s0,s0,-2
   1fbdc:	019787b3          	add	a5,a5,s9
   1fbe0:	c49ff06f          	j	1f828 <__divdf3+0x3a0>
   1fbe4:	01f00693          	li	a3,31
   1fbe8:	ece6d4e3          	bge	a3,a4,1fab0 <__divdf3+0x628>
   1fbec:	fe100693          	li	a3,-31
   1fbf0:	40f686b3          	sub	a3,a3,a5
   1fbf4:	02000793          	li	a5,32
   1fbf8:	00d456b3          	srl	a3,s0,a3
   1fbfc:	00f70863          	beq	a4,a5,1fc0c <__divdf3+0x784>
   1fc00:	43e98793          	addi	a5,s3,1086
   1fc04:	00f417b3          	sll	a5,s0,a5
   1fc08:	00f86833          	or	a6,a6,a5
   1fc0c:	01003833          	snez	a6,a6
   1fc10:	00d86833          	or	a6,a6,a3
   1fc14:	00787713          	andi	a4,a6,7
   1fc18:	00000693          	li	a3,0
   1fc1c:	02070863          	beqz	a4,1fc4c <__divdf3+0x7c4>
   1fc20:	00f87793          	andi	a5,a6,15
   1fc24:	00400713          	li	a4,4
   1fc28:	00000413          	li	s0,0
   1fc2c:	00e78a63          	beq	a5,a4,1fc40 <__divdf3+0x7b8>
   1fc30:	00480793          	addi	a5,a6,4
   1fc34:	0107b833          	sltu	a6,a5,a6
   1fc38:	01003433          	snez	s0,a6
   1fc3c:	00078813          	mv	a6,a5
   1fc40:	00941693          	slli	a3,s0,0x9
   1fc44:	01d41713          	slli	a4,s0,0x1d
   1fc48:	00c6d693          	srli	a3,a3,0xc
   1fc4c:	00385813          	srli	a6,a6,0x3
   1fc50:	00e86733          	or	a4,a6,a4
   1fc54:	00000793          	li	a5,0
   1fc58:	93dff06f          	j	1f594 <__divdf3+0x10c>
   1fc5c:	00060813          	mv	a6,a2
   1fc60:	e4e690e3          	bne	a3,a4,1faa0 <__divdf3+0x618>
   1fc64:	a9678ae3          	beq	a5,s6,1f6f8 <__divdf3+0x270>
   1fc68:	00186813          	ori	a6,a6,1
   1fc6c:	a8dff06f          	j	1f6f8 <__divdf3+0x270>
   1fc70:	ec96f4e3          	bgeu	a3,s1,1fb38 <__divdf3+0x6b0>
   1fc74:	00db06b3          	add	a3,s6,a3
   1fc78:	0166b633          	sltu	a2,a3,s6
   1fc7c:	01960633          	add	a2,a2,s9
   1fc80:	ffe40413          	addi	s0,s0,-2
   1fc84:	00068d13          	mv	s10,a3
   1fc88:	00ca8ab3          	add	s5,s5,a2
   1fc8c:	c91ff06f          	j	1f91c <__divdf3+0x494>
   1fc90:	c0200713          	li	a4,-1022
   1fc94:	3ff98793          	addi	a5,s3,1023
   1fc98:	fff00813          	li	a6,-1
   1fc9c:	e0e9c6e3          	blt	s3,a4,1faa8 <__divdf3+0x620>
   1fca0:	00480713          	addi	a4,a6,4
   1fca4:	01073833          	sltu	a6,a4,a6
   1fca8:	01040433          	add	s0,s0,a6
   1fcac:	00070813          	mv	a6,a4
   1fcb0:	a59ff06f          	j	1f708 <__divdf3+0x280>
   1fcb4:	00f87713          	andi	a4,a6,15
   1fcb8:	00400693          	li	a3,4
   1fcbc:	a4d706e3          	beq	a4,a3,1f708 <__divdf3+0x280>
   1fcc0:	fe1ff06f          	j	1fca0 <__divdf3+0x818>
   1fcc4:	00078d13          	mv	s10,a5
   1fcc8:	d29ff06f          	j	1f9f0 <__divdf3+0x568>
   1fccc:	00d12623          	sw	a3,12(sp)
   1fcd0:	cc1ff06f          	j	1f990 <__divdf3+0x508>
   1fcd4:	00090a13          	mv	s4,s2
   1fcd8:	7ff00793          	li	a5,2047
   1fcdc:	00000693          	li	a3,0
   1fce0:	00000713          	li	a4,0
   1fce4:	8b1ff06f          	j	1f594 <__divdf3+0x10c>
   1fce8:	001b1613          	slli	a2,s6,0x1
   1fcec:	016636b3          	sltu	a3,a2,s6
   1fcf0:	019686b3          	add	a3,a3,s9
   1fcf4:	00d486b3          	add	a3,s1,a3
   1fcf8:	ffe80813          	addi	a6,a6,-2
   1fcfc:	00060b13          	mv	s6,a2
   1fd00:	f6e682e3          	beq	a3,a4,1fc64 <__divdf3+0x7dc>
   1fd04:	d9dff06f          	j	1faa0 <__divdf3+0x618>
   1fd08:	fefb60e3          	bltu	s6,a5,1fce8 <__divdf3+0x860>
   1fd0c:	00060813          	mv	a6,a2
   1fd10:	f5679ce3          	bne	a5,s6,1fc68 <__divdf3+0x7e0>
   1fd14:	9e5ff06f          	j	1f6f8 <__divdf3+0x270>

0001fd18 <__eqdf2>:
   1fd18:	0145d713          	srli	a4,a1,0x14
   1fd1c:	001007b7          	lui	a5,0x100
   1fd20:	fff78793          	addi	a5,a5,-1 # fffff <__BSS_END__+0xdc1cf>
   1fd24:	0146d813          	srli	a6,a3,0x14
   1fd28:	7ff77713          	andi	a4,a4,2047
   1fd2c:	7ff00313          	li	t1,2047
   1fd30:	00b7fe33          	and	t3,a5,a1
   1fd34:	00050893          	mv	a7,a0
   1fd38:	00d7f7b3          	and	a5,a5,a3
   1fd3c:	01f5d593          	srli	a1,a1,0x1f
   1fd40:	7ff87813          	andi	a6,a6,2047
   1fd44:	01f6d693          	srli	a3,a3,0x1f
   1fd48:	00100513          	li	a0,1
   1fd4c:	00670c63          	beq	a4,t1,1fd64 <__eqdf2+0x4c>
   1fd50:	00680863          	beq	a6,t1,1fd60 <__eqdf2+0x48>
   1fd54:	01071463          	bne	a4,a6,1fd5c <__eqdf2+0x44>
   1fd58:	02fe0663          	beq	t3,a5,1fd84 <__eqdf2+0x6c>
   1fd5c:	00008067          	ret
   1fd60:	00008067          	ret
   1fd64:	fee81ce3          	bne	a6,a4,1fd5c <__eqdf2+0x44>
   1fd68:	00fe67b3          	or	a5,t3,a5
   1fd6c:	00c7e7b3          	or	a5,a5,a2
   1fd70:	0117e7b3          	or	a5,a5,a7
   1fd74:	fe0794e3          	bnez	a5,1fd5c <__eqdf2+0x44>
   1fd78:	40d585b3          	sub	a1,a1,a3
   1fd7c:	00b03533          	snez	a0,a1
   1fd80:	00008067          	ret
   1fd84:	fcc89ce3          	bne	a7,a2,1fd5c <__eqdf2+0x44>
   1fd88:	00d58a63          	beq	a1,a3,1fd9c <__eqdf2+0x84>
   1fd8c:	fc0718e3          	bnez	a4,1fd5c <__eqdf2+0x44>
   1fd90:	011e6e33          	or	t3,t3,a7
   1fd94:	01c03533          	snez	a0,t3
   1fd98:	00008067          	ret
   1fd9c:	00000513          	li	a0,0
   1fda0:	00008067          	ret

0001fda4 <__gedf2>:
   1fda4:	0145d813          	srli	a6,a1,0x14
   1fda8:	001007b7          	lui	a5,0x100
   1fdac:	fff78793          	addi	a5,a5,-1 # fffff <__BSS_END__+0xdc1cf>
   1fdb0:	0146d893          	srli	a7,a3,0x14
   1fdb4:	7ff87813          	andi	a6,a6,2047
   1fdb8:	7ff00e13          	li	t3,2047
   1fdbc:	00b7f333          	and	t1,a5,a1
   1fdc0:	00050713          	mv	a4,a0
   1fdc4:	00050e93          	mv	t4,a0
   1fdc8:	01f5d593          	srli	a1,a1,0x1f
   1fdcc:	00060f13          	mv	t5,a2
   1fdd0:	00d7f7b3          	and	a5,a5,a3
   1fdd4:	7ff8f893          	andi	a7,a7,2047
   1fdd8:	01f6d513          	srli	a0,a3,0x1f
   1fddc:	05c80663          	beq	a6,t3,1fe28 <__gedf2+0x84>
   1fde0:	03c88263          	beq	a7,t3,1fe04 <__gedf2+0x60>
   1fde4:	06081663          	bnez	a6,1fe50 <__gedf2+0xac>
   1fde8:	00e36733          	or	a4,t1,a4
   1fdec:	04089c63          	bnez	a7,1fe44 <__gedf2+0xa0>
   1fdf0:	00c7e633          	or	a2,a5,a2
   1fdf4:	08060263          	beqz	a2,1fe78 <__gedf2+0xd4>
   1fdf8:	0a071463          	bnez	a4,1fea0 <__gedf2+0xfc>
   1fdfc:	04050063          	beqz	a0,1fe3c <__gedf2+0x98>
   1fe00:	00008067          	ret
   1fe04:	00c7e633          	or	a2,a5,a2
   1fe08:	08061863          	bnez	a2,1fe98 <__gedf2+0xf4>
   1fe0c:	00081663          	bnez	a6,1fe18 <__gedf2+0x74>
   1fe10:	00e36333          	or	t1,t1,a4
   1fe14:	fe0304e3          	beqz	t1,1fdfc <__gedf2+0x58>
   1fe18:	00a59e63          	bne	a1,a0,1fe34 <__gedf2+0x90>
   1fe1c:	02058063          	beqz	a1,1fe3c <__gedf2+0x98>
   1fe20:	00058513          	mv	a0,a1
   1fe24:	00008067          	ret
   1fe28:	00e36333          	or	t1,t1,a4
   1fe2c:	06031663          	bnez	t1,1fe98 <__gedf2+0xf4>
   1fe30:	05088a63          	beq	a7,a6,1fe84 <__gedf2+0xe0>
   1fe34:	00100513          	li	a0,1
   1fe38:	fc0584e3          	beqz	a1,1fe00 <__gedf2+0x5c>
   1fe3c:	fff00513          	li	a0,-1
   1fe40:	00008067          	ret
   1fe44:	fc071ae3          	bnez	a4,1fe18 <__gedf2+0x74>
   1fe48:	fa051ce3          	bnez	a0,1fe00 <__gedf2+0x5c>
   1fe4c:	ff1ff06f          	j	1fe3c <__gedf2+0x98>
   1fe50:	fe0882e3          	beqz	a7,1fe34 <__gedf2+0x90>
   1fe54:	fea590e3          	bne	a1,a0,1fe34 <__gedf2+0x90>
   1fe58:	fd08cee3          	blt	a7,a6,1fe34 <__gedf2+0x90>
   1fe5c:	fd1840e3          	blt	a6,a7,1fe1c <__gedf2+0x78>
   1fe60:	fc67eae3          	bltu	a5,t1,1fe34 <__gedf2+0x90>
   1fe64:	faf31ce3          	bne	t1,a5,1fe1c <__gedf2+0x78>
   1fe68:	fddf66e3          	bltu	t5,t4,1fe34 <__gedf2+0x90>
   1fe6c:	00000513          	li	a0,0
   1fe70:	fbeee6e3          	bltu	t4,t5,1fe1c <__gedf2+0x78>
   1fe74:	00008067          	ret
   1fe78:	00000513          	li	a0,0
   1fe7c:	fa071ce3          	bnez	a4,1fe34 <__gedf2+0x90>
   1fe80:	00008067          	ret
   1fe84:	00c7e7b3          	or	a5,a5,a2
   1fe88:	00079863          	bnez	a5,1fe98 <__gedf2+0xf4>
   1fe8c:	faa594e3          	bne	a1,a0,1fe34 <__gedf2+0x90>
   1fe90:	00000513          	li	a0,0
   1fe94:	00008067          	ret
   1fe98:	ffe00513          	li	a0,-2
   1fe9c:	00008067          	ret
   1fea0:	fca580e3          	beq	a1,a0,1fe60 <__gedf2+0xbc>
   1fea4:	f91ff06f          	j	1fe34 <__gedf2+0x90>

0001fea8 <__ledf2>:
   1fea8:	0145d813          	srli	a6,a1,0x14
   1feac:	001007b7          	lui	a5,0x100
   1feb0:	fff78793          	addi	a5,a5,-1 # fffff <__BSS_END__+0xdc1cf>
   1feb4:	0146d893          	srli	a7,a3,0x14
   1feb8:	7ff87813          	andi	a6,a6,2047
   1febc:	7ff00313          	li	t1,2047
   1fec0:	00b7fe33          	and	t3,a5,a1
   1fec4:	00050713          	mv	a4,a0
   1fec8:	00050e93          	mv	t4,a0
   1fecc:	01f5d593          	srli	a1,a1,0x1f
   1fed0:	00060f13          	mv	t5,a2
   1fed4:	00d7f7b3          	and	a5,a5,a3
   1fed8:	7ff8f893          	andi	a7,a7,2047
   1fedc:	01f6d513          	srli	a0,a3,0x1f
   1fee0:	04680863          	beq	a6,t1,1ff30 <__ledf2+0x88>
   1fee4:	02688263          	beq	a7,t1,1ff08 <__ledf2+0x60>
   1fee8:	06081263          	bnez	a6,1ff4c <__ledf2+0xa4>
   1feec:	00ee6733          	or	a4,t3,a4
   1fef0:	08089663          	bnez	a7,1ff7c <__ledf2+0xd4>
   1fef4:	00c7e633          	or	a2,a5,a2
   1fef8:	08060863          	beqz	a2,1ff88 <__ledf2+0xe0>
   1fefc:	0a071263          	bnez	a4,1ffa0 <__ledf2+0xf8>
   1ff00:	02050463          	beqz	a0,1ff28 <__ledf2+0x80>
   1ff04:	00008067          	ret
   1ff08:	00c7e633          	or	a2,a5,a2
   1ff0c:	02061c63          	bnez	a2,1ff44 <__ledf2+0x9c>
   1ff10:	00081663          	bnez	a6,1ff1c <__ledf2+0x74>
   1ff14:	00ee6e33          	or	t3,t3,a4
   1ff18:	fe0e04e3          	beqz	t3,1ff00 <__ledf2+0x58>
   1ff1c:	04a58a63          	beq	a1,a0,1ff70 <__ledf2+0xc8>
   1ff20:	00100513          	li	a0,1
   1ff24:	fe0580e3          	beqz	a1,1ff04 <__ledf2+0x5c>
   1ff28:	fff00513          	li	a0,-1
   1ff2c:	00008067          	ret
   1ff30:	00ee6e33          	or	t3,t3,a4
   1ff34:	000e1863          	bnez	t3,1ff44 <__ledf2+0x9c>
   1ff38:	ff0894e3          	bne	a7,a6,1ff20 <__ledf2+0x78>
   1ff3c:	00c7e7b3          	or	a5,a5,a2
   1ff40:	04078a63          	beqz	a5,1ff94 <__ledf2+0xec>
   1ff44:	00200513          	li	a0,2
   1ff48:	00008067          	ret
   1ff4c:	fc088ae3          	beqz	a7,1ff20 <__ledf2+0x78>
   1ff50:	fca598e3          	bne	a1,a0,1ff20 <__ledf2+0x78>
   1ff54:	fd08c6e3          	blt	a7,a6,1ff20 <__ledf2+0x78>
   1ff58:	01184c63          	blt	a6,a7,1ff70 <__ledf2+0xc8>
   1ff5c:	fdc7e2e3          	bltu	a5,t3,1ff20 <__ledf2+0x78>
   1ff60:	00fe1863          	bne	t3,a5,1ff70 <__ledf2+0xc8>
   1ff64:	fbdf6ee3          	bltu	t5,t4,1ff20 <__ledf2+0x78>
   1ff68:	00000513          	li	a0,0
   1ff6c:	f9eefce3          	bgeu	t4,t5,1ff04 <__ledf2+0x5c>
   1ff70:	fa058ce3          	beqz	a1,1ff28 <__ledf2+0x80>
   1ff74:	00058513          	mv	a0,a1
   1ff78:	00008067          	ret
   1ff7c:	fa0710e3          	bnez	a4,1ff1c <__ledf2+0x74>
   1ff80:	f80512e3          	bnez	a0,1ff04 <__ledf2+0x5c>
   1ff84:	fa5ff06f          	j	1ff28 <__ledf2+0x80>
   1ff88:	00000513          	li	a0,0
   1ff8c:	f8071ae3          	bnez	a4,1ff20 <__ledf2+0x78>
   1ff90:	00008067          	ret
   1ff94:	f8a596e3          	bne	a1,a0,1ff20 <__ledf2+0x78>
   1ff98:	00000513          	li	a0,0
   1ff9c:	00008067          	ret
   1ffa0:	faa58ee3          	beq	a1,a0,1ff5c <__ledf2+0xb4>
   1ffa4:	f7dff06f          	j	1ff20 <__ledf2+0x78>

0001ffa8 <__muldf3>:
   1ffa8:	fc010113          	addi	sp,sp,-64
   1ffac:	0145d793          	srli	a5,a1,0x14
   1ffb0:	02812c23          	sw	s0,56(sp)
   1ffb4:	02912a23          	sw	s1,52(sp)
   1ffb8:	03312623          	sw	s3,44(sp)
   1ffbc:	03512223          	sw	s5,36(sp)
   1ffc0:	00c59493          	slli	s1,a1,0xc
   1ffc4:	02112e23          	sw	ra,60(sp)
   1ffc8:	03212823          	sw	s2,48(sp)
   1ffcc:	03412423          	sw	s4,40(sp)
   1ffd0:	03612023          	sw	s6,32(sp)
   1ffd4:	01712e23          	sw	s7,28(sp)
   1ffd8:	01812c23          	sw	s8,24(sp)
   1ffdc:	7ff7f793          	andi	a5,a5,2047
   1ffe0:	00050413          	mv	s0,a0
   1ffe4:	00060a93          	mv	s5,a2
   1ffe8:	00c4d493          	srli	s1,s1,0xc
   1ffec:	01f5d993          	srli	s3,a1,0x1f
   1fff0:	1e078663          	beqz	a5,201dc <__muldf3+0x234>
   1fff4:	7ff00713          	li	a4,2047
   1fff8:	22e78c63          	beq	a5,a4,20230 <__muldf3+0x288>
   1fffc:	00349493          	slli	s1,s1,0x3
   20000:	01d55713          	srli	a4,a0,0x1d
   20004:	00976733          	or	a4,a4,s1
   20008:	008004b7          	lui	s1,0x800
   2000c:	009764b3          	or	s1,a4,s1
   20010:	00351a13          	slli	s4,a0,0x3
   20014:	c0178c13          	addi	s8,a5,-1023
   20018:	00000b93          	li	s7,0
   2001c:	00000b13          	li	s6,0
   20020:	0146d793          	srli	a5,a3,0x14
   20024:	00c69713          	slli	a4,a3,0xc
   20028:	7ff7f793          	andi	a5,a5,2047
   2002c:	000a8f13          	mv	t5,s5
   20030:	00c75413          	srli	s0,a4,0xc
   20034:	01f6d913          	srli	s2,a3,0x1f
   20038:	14078863          	beqz	a5,20188 <__muldf3+0x1e0>
   2003c:	7ff00813          	li	a6,2047
   20040:	0b078a63          	beq	a5,a6,200f4 <__muldf3+0x14c>
   20044:	00341713          	slli	a4,s0,0x3
   20048:	c0178793          	addi	a5,a5,-1023
   2004c:	01dad593          	srli	a1,s5,0x1d
   20050:	00e5e5b3          	or	a1,a1,a4
   20054:	01878e33          	add	t3,a5,s8
   20058:	00800737          	lui	a4,0x800
   2005c:	00a00793          	li	a5,10
   20060:	00e5e433          	or	s0,a1,a4
   20064:	003a9f13          	slli	t5,s5,0x3
   20068:	00000813          	li	a6,0
   2006c:	001e0893          	addi	a7,t3,1
   20070:	2377c663          	blt	a5,s7,2029c <__muldf3+0x2f4>
   20074:	0129c333          	xor	t1,s3,s2
   20078:	00030693          	mv	a3,t1
   2007c:	00200613          	li	a2,2
   20080:	0b764263          	blt	a2,s7,20124 <__muldf3+0x17c>
   20084:	fffb8e93          	addi	t4,s7,-1
   20088:	00100793          	li	a5,1
   2008c:	27d7ec63          	bltu	a5,t4,20304 <__muldf3+0x35c>
   20090:	1ac80e63          	beq	a6,a2,2024c <__muldf3+0x2a4>
   20094:	00100793          	li	a5,1
   20098:	00068313          	mv	t1,a3
   2009c:	0cf81063          	bne	a6,a5,2015c <__muldf3+0x1b4>
   200a0:	00000793          	li	a5,0
   200a4:	00000693          	li	a3,0
   200a8:	00000713          	li	a4,0
   200ac:	03c12083          	lw	ra,60(sp)
   200b0:	03812403          	lw	s0,56(sp)
   200b4:	01479793          	slli	a5,a5,0x14
   200b8:	00d7e7b3          	or	a5,a5,a3
   200bc:	01f31313          	slli	t1,t1,0x1f
   200c0:	0067e7b3          	or	a5,a5,t1
   200c4:	03412483          	lw	s1,52(sp)
   200c8:	03012903          	lw	s2,48(sp)
   200cc:	02c12983          	lw	s3,44(sp)
   200d0:	02812a03          	lw	s4,40(sp)
   200d4:	02412a83          	lw	s5,36(sp)
   200d8:	02012b03          	lw	s6,32(sp)
   200dc:	01c12b83          	lw	s7,28(sp)
   200e0:	01812c03          	lw	s8,24(sp)
   200e4:	00070513          	mv	a0,a4
   200e8:	00078593          	mv	a1,a5
   200ec:	04010113          	addi	sp,sp,64
   200f0:	00008067          	ret
   200f4:	01546733          	or	a4,s0,s5
   200f8:	7ffc0e13          	addi	t3,s8,2047
   200fc:	16070a63          	beqz	a4,20270 <__muldf3+0x2c8>
   20100:	00001737          	lui	a4,0x1
   20104:	0129c333          	xor	t1,s3,s2
   20108:	80070713          	addi	a4,a4,-2048 # 800 <exit-0xf894>
   2010c:	003beb93          	ori	s7,s7,3
   20110:	00a00613          	li	a2,10
   20114:	00030693          	mv	a3,t1
   20118:	00ec08b3          	add	a7,s8,a4
   2011c:	65764063          	blt	a2,s7,2075c <__muldf3+0x7b4>
   20120:	00300813          	li	a6,3
   20124:	00100613          	li	a2,1
   20128:	01761633          	sll	a2,a2,s7
   2012c:	53067713          	andi	a4,a2,1328
   20130:	02070a63          	beqz	a4,20164 <__muldf3+0x1bc>
   20134:	00200793          	li	a5,2
   20138:	10fb0a63          	beq	s6,a5,2024c <__muldf3+0x2a4>
   2013c:	00300793          	li	a5,3
   20140:	1afb0863          	beq	s6,a5,202f0 <__muldf3+0x348>
   20144:	000b0813          	mv	a6,s6
   20148:	00100793          	li	a5,1
   2014c:	00048413          	mv	s0,s1
   20150:	000a0f13          	mv	t5,s4
   20154:	00068313          	mv	t1,a3
   20158:	f4f804e3          	beq	a6,a5,200a0 <__muldf3+0xf8>
   2015c:	00088e13          	mv	t3,a7
   20160:	4240006f          	j	20584 <__muldf3+0x5dc>
   20164:	24067793          	andi	a5,a2,576
   20168:	0e079c63          	bnez	a5,20260 <__muldf3+0x2b8>
   2016c:	08867613          	andi	a2,a2,136
   20170:	18060a63          	beqz	a2,20304 <__muldf3+0x35c>
   20174:	00090693          	mv	a3,s2
   20178:	00040493          	mv	s1,s0
   2017c:	000f0a13          	mv	s4,t5
   20180:	00080b13          	mv	s6,a6
   20184:	fb1ff06f          	j	20134 <__muldf3+0x18c>
   20188:	015467b3          	or	a5,s0,s5
   2018c:	14078063          	beqz	a5,202cc <__muldf3+0x324>
   20190:	4e040863          	beqz	s0,20680 <__muldf3+0x6d8>
   20194:	00040513          	mv	a0,s0
   20198:	5d0010ef          	jal	ra,21768 <__clzsi2>
   2019c:	00050e13          	mv	t3,a0
   201a0:	ff550713          	addi	a4,a0,-11
   201a4:	01d00793          	li	a5,29
   201a8:	ff8e0f13          	addi	t5,t3,-8
   201ac:	40e787b3          	sub	a5,a5,a4
   201b0:	00fad7b3          	srl	a5,s5,a5
   201b4:	01e41733          	sll	a4,s0,t5
   201b8:	00e7e433          	or	s0,a5,a4
   201bc:	01ea9f33          	sll	t5,s5,t5
   201c0:	41cc0e33          	sub	t3,s8,t3
   201c4:	c0de0e13          	addi	t3,t3,-1011
   201c8:	00a00793          	li	a5,10
   201cc:	00000813          	li	a6,0
   201d0:	001e0893          	addi	a7,t3,1
   201d4:	eb77d0e3          	bge	a5,s7,20074 <__muldf3+0xcc>
   201d8:	0c40006f          	j	2029c <__muldf3+0x2f4>
   201dc:	00a4ea33          	or	s4,s1,a0
   201e0:	0c0a0c63          	beqz	s4,202b8 <__muldf3+0x310>
   201e4:	00d12623          	sw	a3,12(sp)
   201e8:	46048863          	beqz	s1,20658 <__muldf3+0x6b0>
   201ec:	00048513          	mv	a0,s1
   201f0:	578010ef          	jal	ra,21768 <__clzsi2>
   201f4:	00c12683          	lw	a3,12(sp)
   201f8:	00050713          	mv	a4,a0
   201fc:	ff550613          	addi	a2,a0,-11
   20200:	01d00793          	li	a5,29
   20204:	ff870a13          	addi	s4,a4,-8
   20208:	40c787b3          	sub	a5,a5,a2
   2020c:	014494b3          	sll	s1,s1,s4
   20210:	00f457b3          	srl	a5,s0,a5
   20214:	0097e4b3          	or	s1,a5,s1
   20218:	01441a33          	sll	s4,s0,s4
   2021c:	c0d00793          	li	a5,-1011
   20220:	40e78c33          	sub	s8,a5,a4
   20224:	00000b93          	li	s7,0
   20228:	00000b13          	li	s6,0
   2022c:	df5ff06f          	j	20020 <__muldf3+0x78>
   20230:	00a4ea33          	or	s4,s1,a0
   20234:	060a1863          	bnez	s4,202a4 <__muldf3+0x2fc>
   20238:	00000493          	li	s1,0
   2023c:	00800b93          	li	s7,8
   20240:	7ff00c13          	li	s8,2047
   20244:	00200b13          	li	s6,2
   20248:	dd9ff06f          	j	20020 <__muldf3+0x78>
   2024c:	00068313          	mv	t1,a3
   20250:	7ff00793          	li	a5,2047
   20254:	00000693          	li	a3,0
   20258:	00000713          	li	a4,0
   2025c:	e51ff06f          	j	200ac <__muldf3+0x104>
   20260:	00000313          	li	t1,0
   20264:	7ff00793          	li	a5,2047
   20268:	000806b7          	lui	a3,0x80
   2026c:	e41ff06f          	j	200ac <__muldf3+0x104>
   20270:	000017b7          	lui	a5,0x1
   20274:	80078793          	addi	a5,a5,-2048 # 800 <exit-0xf894>
   20278:	002beb93          	ori	s7,s7,2
   2027c:	00a00693          	li	a3,10
   20280:	00fc08b3          	add	a7,s8,a5
   20284:	4376da63          	bge	a3,s7,206b8 <__muldf3+0x710>
   20288:	00000413          	li	s0,0
   2028c:	00e00793          	li	a5,14
   20290:	00200813          	li	a6,2
   20294:	00b00693          	li	a3,11
   20298:	4ad78e63          	beq	a5,a3,20754 <__muldf3+0x7ac>
   2029c:	00098693          	mv	a3,s3
   202a0:	e95ff06f          	j	20134 <__muldf3+0x18c>
   202a4:	00050a13          	mv	s4,a0
   202a8:	00c00b93          	li	s7,12
   202ac:	7ff00c13          	li	s8,2047
   202b0:	00300b13          	li	s6,3
   202b4:	d6dff06f          	j	20020 <__muldf3+0x78>
   202b8:	00000493          	li	s1,0
   202bc:	00400b93          	li	s7,4
   202c0:	00000c13          	li	s8,0
   202c4:	00100b13          	li	s6,1
   202c8:	d59ff06f          	j	20020 <__muldf3+0x78>
   202cc:	000c0e13          	mv	t3,s8
   202d0:	001beb93          	ori	s7,s7,1
   202d4:	00a00793          	li	a5,10
   202d8:	00000413          	li	s0,0
   202dc:	00000f13          	li	t5,0
   202e0:	00100813          	li	a6,1
   202e4:	001e0893          	addi	a7,t3,1
   202e8:	d977d6e3          	bge	a5,s7,20074 <__muldf3+0xcc>
   202ec:	fb1ff06f          	j	2029c <__muldf3+0x2f4>
   202f0:	00000313          	li	t1,0
   202f4:	7ff00793          	li	a5,2047
   202f8:	000806b7          	lui	a3,0x80
   202fc:	00000713          	li	a4,0
   20300:	dadff06f          	j	200ac <__muldf3+0x104>
   20304:	000102b7          	lui	t0,0x10
   20308:	fff28913          	addi	s2,t0,-1 # ffff <exit-0x95>
   2030c:	012a7fb3          	and	t6,s4,s2
   20310:	012f7933          	and	s2,t5,s2
   20314:	010a5a13          	srli	s4,s4,0x10
   20318:	010f5f13          	srli	t5,t5,0x10
   2031c:	000f8513          	mv	a0,t6
   20320:	00090593          	mv	a1,s2
   20324:	36c010ef          	jal	ra,21690 <__mulsi3>
   20328:	00050713          	mv	a4,a0
   2032c:	000f0593          	mv	a1,t5
   20330:	000f8513          	mv	a0,t6
   20334:	35c010ef          	jal	ra,21690 <__mulsi3>
   20338:	00050793          	mv	a5,a0
   2033c:	00090593          	mv	a1,s2
   20340:	000a0513          	mv	a0,s4
   20344:	34c010ef          	jal	ra,21690 <__mulsi3>
   20348:	00050e93          	mv	t4,a0
   2034c:	000f0593          	mv	a1,t5
   20350:	000a0513          	mv	a0,s4
   20354:	33c010ef          	jal	ra,21690 <__mulsi3>
   20358:	01075813          	srli	a6,a4,0x10
   2035c:	01d787b3          	add	a5,a5,t4
   20360:	00f80833          	add	a6,a6,a5
   20364:	00050393          	mv	t2,a0
   20368:	01d87463          	bgeu	a6,t4,20370 <__muldf3+0x3c8>
   2036c:	005503b3          	add	t2,a0,t0
   20370:	00010ab7          	lui	s5,0x10
   20374:	fffa8793          	addi	a5,s5,-1 # ffff <exit-0x95>
   20378:	00f87eb3          	and	t4,a6,a5
   2037c:	00f77733          	and	a4,a4,a5
   20380:	010e9e93          	slli	t4,t4,0x10
   20384:	00f477b3          	and	a5,s0,a5
   20388:	01085813          	srli	a6,a6,0x10
   2038c:	00ee8eb3          	add	t4,t4,a4
   20390:	01045993          	srli	s3,s0,0x10
   20394:	000f8513          	mv	a0,t6
   20398:	00078593          	mv	a1,a5
   2039c:	2f4010ef          	jal	ra,21690 <__mulsi3>
   203a0:	00050293          	mv	t0,a0
   203a4:	00098593          	mv	a1,s3
   203a8:	000f8513          	mv	a0,t6
   203ac:	2e4010ef          	jal	ra,21690 <__mulsi3>
   203b0:	00050713          	mv	a4,a0
   203b4:	00078593          	mv	a1,a5
   203b8:	000a0513          	mv	a0,s4
   203bc:	2d4010ef          	jal	ra,21690 <__mulsi3>
   203c0:	00050f93          	mv	t6,a0
   203c4:	00098593          	mv	a1,s3
   203c8:	000a0513          	mv	a0,s4
   203cc:	2c4010ef          	jal	ra,21690 <__mulsi3>
   203d0:	0102d613          	srli	a2,t0,0x10
   203d4:	01f70733          	add	a4,a4,t6
   203d8:	00e60633          	add	a2,a2,a4
   203dc:	01f67463          	bgeu	a2,t6,203e4 <__muldf3+0x43c>
   203e0:	01550533          	add	a0,a0,s5
   203e4:	00010a37          	lui	s4,0x10
   203e8:	fffa0f93          	addi	t6,s4,-1 # ffff <exit-0x95>
   203ec:	01f67733          	and	a4,a2,t6
   203f0:	01f2f2b3          	and	t0,t0,t6
   203f4:	01071713          	slli	a4,a4,0x10
   203f8:	00570733          	add	a4,a4,t0
   203fc:	01f4ffb3          	and	t6,s1,t6
   20400:	01065613          	srli	a2,a2,0x10
   20404:	00a602b3          	add	t0,a2,a0
   20408:	00e80833          	add	a6,a6,a4
   2040c:	0104d493          	srli	s1,s1,0x10
   20410:	000f8513          	mv	a0,t6
   20414:	00090593          	mv	a1,s2
   20418:	278010ef          	jal	ra,21690 <__mulsi3>
   2041c:	00050a93          	mv	s5,a0
   20420:	000f0593          	mv	a1,t5
   20424:	000f8513          	mv	a0,t6
   20428:	268010ef          	jal	ra,21690 <__mulsi3>
   2042c:	00050413          	mv	s0,a0
   20430:	00090593          	mv	a1,s2
   20434:	00048513          	mv	a0,s1
   20438:	258010ef          	jal	ra,21690 <__mulsi3>
   2043c:	00050913          	mv	s2,a0
   20440:	000f0593          	mv	a1,t5
   20444:	00048513          	mv	a0,s1
   20448:	248010ef          	jal	ra,21690 <__mulsi3>
   2044c:	010ad613          	srli	a2,s5,0x10
   20450:	01240433          	add	s0,s0,s2
   20454:	00860633          	add	a2,a2,s0
   20458:	01267463          	bgeu	a2,s2,20460 <__muldf3+0x4b8>
   2045c:	01450533          	add	a0,a0,s4
   20460:	00010a37          	lui	s4,0x10
   20464:	fffa0693          	addi	a3,s4,-1 # ffff <exit-0x95>
   20468:	00d67433          	and	s0,a2,a3
   2046c:	00dafab3          	and	s5,s5,a3
   20470:	01065613          	srli	a2,a2,0x10
   20474:	01041413          	slli	s0,s0,0x10
   20478:	00a60f33          	add	t5,a2,a0
   2047c:	01540433          	add	s0,s0,s5
   20480:	000f8513          	mv	a0,t6
   20484:	00078593          	mv	a1,a5
   20488:	208010ef          	jal	ra,21690 <__mulsi3>
   2048c:	00050913          	mv	s2,a0
   20490:	00098593          	mv	a1,s3
   20494:	000f8513          	mv	a0,t6
   20498:	1f8010ef          	jal	ra,21690 <__mulsi3>
   2049c:	00050f93          	mv	t6,a0
   204a0:	00078593          	mv	a1,a5
   204a4:	00048513          	mv	a0,s1
   204a8:	1e8010ef          	jal	ra,21690 <__mulsi3>
   204ac:	00050a93          	mv	s5,a0
   204b0:	00098593          	mv	a1,s3
   204b4:	00048513          	mv	a0,s1
   204b8:	1d8010ef          	jal	ra,21690 <__mulsi3>
   204bc:	015f87b3          	add	a5,t6,s5
   204c0:	01095593          	srli	a1,s2,0x10
   204c4:	00f584b3          	add	s1,a1,a5
   204c8:	00050f93          	mv	t6,a0
   204cc:	0154f463          	bgeu	s1,s5,204d4 <__muldf3+0x52c>
   204d0:	01450fb3          	add	t6,a0,s4
   204d4:	000106b7          	lui	a3,0x10
   204d8:	fff68693          	addi	a3,a3,-1 # ffff <exit-0x95>
   204dc:	00d4f7b3          	and	a5,s1,a3
   204e0:	00d97933          	and	s2,s2,a3
   204e4:	01079793          	slli	a5,a5,0x10
   204e8:	010386b3          	add	a3,t2,a6
   204ec:	012787b3          	add	a5,a5,s2
   204f0:	005785b3          	add	a1,a5,t0
   204f4:	00e6b733          	sltu	a4,a3,a4
   204f8:	00868833          	add	a6,a3,s0
   204fc:	00e58733          	add	a4,a1,a4
   20500:	01e70633          	add	a2,a4,t5
   20504:	00d836b3          	sltu	a3,a6,a3
   20508:	00d606b3          	add	a3,a2,a3
   2050c:	00f5b7b3          	sltu	a5,a1,a5
   20510:	00b735b3          	sltu	a1,a4,a1
   20514:	00b7e7b3          	or	a5,a5,a1
   20518:	00e63733          	sltu	a4,a2,a4
   2051c:	0104d593          	srli	a1,s1,0x10
   20520:	00c6b633          	sltu	a2,a3,a2
   20524:	00b787b3          	add	a5,a5,a1
   20528:	00c76733          	or	a4,a4,a2
   2052c:	00f70733          	add	a4,a4,a5
   20530:	00981f13          	slli	t5,a6,0x9
   20534:	01f70733          	add	a4,a4,t6
   20538:	0176d793          	srli	a5,a3,0x17
   2053c:	00971713          	slli	a4,a4,0x9
   20540:	01df6f33          	or	t5,t5,t4
   20544:	00f76433          	or	s0,a4,a5
   20548:	01e03f33          	snez	t5,t5
   2054c:	01785813          	srli	a6,a6,0x17
   20550:	010007b7          	lui	a5,0x1000
   20554:	010f6f33          	or	t5,t5,a6
   20558:	00969693          	slli	a3,a3,0x9
   2055c:	00f477b3          	and	a5,s0,a5
   20560:	00df6f33          	or	t5,t5,a3
   20564:	02078063          	beqz	a5,20584 <__muldf3+0x5dc>
   20568:	001f5793          	srli	a5,t5,0x1
   2056c:	001f7f13          	andi	t5,t5,1
   20570:	01f41713          	slli	a4,s0,0x1f
   20574:	01e7e7b3          	or	a5,a5,t5
   20578:	00e7ef33          	or	t5,a5,a4
   2057c:	00145413          	srli	s0,s0,0x1
   20580:	00088e13          	mv	t3,a7
   20584:	3ffe0793          	addi	a5,t3,1023
   20588:	06f05463          	blez	a5,205f0 <__muldf3+0x648>
   2058c:	007f7713          	andi	a4,t5,7
   20590:	02070063          	beqz	a4,205b0 <__muldf3+0x608>
   20594:	00ff7713          	andi	a4,t5,15
   20598:	00400693          	li	a3,4
   2059c:	00d70a63          	beq	a4,a3,205b0 <__muldf3+0x608>
   205a0:	004f0713          	addi	a4,t5,4
   205a4:	01e73f33          	sltu	t5,a4,t5
   205a8:	01e40433          	add	s0,s0,t5
   205ac:	00070f13          	mv	t5,a4
   205b0:	01000737          	lui	a4,0x1000
   205b4:	00e47733          	and	a4,s0,a4
   205b8:	00070a63          	beqz	a4,205cc <__muldf3+0x624>
   205bc:	ff0007b7          	lui	a5,0xff000
   205c0:	fff78793          	addi	a5,a5,-1 # feffffff <__BSS_END__+0xfefdc1cf>
   205c4:	00f47433          	and	s0,s0,a5
   205c8:	400e0793          	addi	a5,t3,1024
   205cc:	7fe00713          	li	a4,2046
   205d0:	0cf74c63          	blt	a4,a5,206a8 <__muldf3+0x700>
   205d4:	003f5f13          	srli	t5,t5,0x3
   205d8:	01d41713          	slli	a4,s0,0x1d
   205dc:	00941693          	slli	a3,s0,0x9
   205e0:	01e76733          	or	a4,a4,t5
   205e4:	00c6d693          	srli	a3,a3,0xc
   205e8:	7ff7f793          	andi	a5,a5,2047
   205ec:	ac1ff06f          	j	200ac <__muldf3+0x104>
   205f0:	00100713          	li	a4,1
   205f4:	0c079e63          	bnez	a5,206d0 <__muldf3+0x728>
   205f8:	41ee0e13          	addi	t3,t3,1054
   205fc:	01cf1633          	sll	a2,t5,t3
   20600:	00c03633          	snez	a2,a2
   20604:	01c41e33          	sll	t3,s0,t3
   20608:	00ef5f33          	srl	t5,t5,a4
   2060c:	01c66633          	or	a2,a2,t3
   20610:	01e66633          	or	a2,a2,t5
   20614:	00767793          	andi	a5,a2,7
   20618:	00e455b3          	srl	a1,s0,a4
   2061c:	02078063          	beqz	a5,2063c <__muldf3+0x694>
   20620:	00f67793          	andi	a5,a2,15
   20624:	00400713          	li	a4,4
   20628:	00e78a63          	beq	a5,a4,2063c <__muldf3+0x694>
   2062c:	00460793          	addi	a5,a2,4 # 800004 <__BSS_END__+0x7dc1d4>
   20630:	00c7b633          	sltu	a2,a5,a2
   20634:	00c585b3          	add	a1,a1,a2
   20638:	00078613          	mv	a2,a5
   2063c:	00800537          	lui	a0,0x800
   20640:	00a5f533          	and	a0,a1,a0
   20644:	00100793          	li	a5,1
   20648:	00000693          	li	a3,0
   2064c:	00000713          	li	a4,0
   20650:	a4051ee3          	bnez	a0,200ac <__muldf3+0x104>
   20654:	0e40006f          	j	20738 <__muldf3+0x790>
   20658:	110010ef          	jal	ra,21768 <__clzsi2>
   2065c:	01550613          	addi	a2,a0,21 # 800015 <__BSS_END__+0x7dc1e5>
   20660:	01c00793          	li	a5,28
   20664:	00c12683          	lw	a3,12(sp)
   20668:	02050713          	addi	a4,a0,32
   2066c:	b8c7dae3          	bge	a5,a2,20200 <__muldf3+0x258>
   20670:	ff850513          	addi	a0,a0,-8
   20674:	00000a13          	li	s4,0
   20678:	00a414b3          	sll	s1,s0,a0
   2067c:	ba1ff06f          	j	2021c <__muldf3+0x274>
   20680:	000a8513          	mv	a0,s5
   20684:	0e4010ef          	jal	ra,21768 <__clzsi2>
   20688:	01550713          	addi	a4,a0,21
   2068c:	01c00793          	li	a5,28
   20690:	02050e13          	addi	t3,a0,32
   20694:	b0e7d8e3          	bge	a5,a4,201a4 <__muldf3+0x1fc>
   20698:	ff850513          	addi	a0,a0,-8
   2069c:	00000f13          	li	t5,0
   206a0:	00aa9433          	sll	s0,s5,a0
   206a4:	b1dff06f          	j	201c0 <__muldf3+0x218>
   206a8:	7ff00793          	li	a5,2047
   206ac:	00000693          	li	a3,0
   206b0:	00000713          	li	a4,0
   206b4:	9f9ff06f          	j	200ac <__muldf3+0x104>
   206b8:	0129c333          	xor	t1,s3,s2
   206bc:	00030693          	mv	a3,t1
   206c0:	00000413          	li	s0,0
   206c4:	00000f13          	li	t5,0
   206c8:	00200813          	li	a6,2
   206cc:	9b1ff06f          	j	2007c <__muldf3+0xd4>
   206d0:	40f70733          	sub	a4,a4,a5
   206d4:	03800693          	li	a3,56
   206d8:	9ce6c4e3          	blt	a3,a4,200a0 <__muldf3+0xf8>
   206dc:	01f00693          	li	a3,31
   206e0:	f0e6dce3          	bge	a3,a4,205f8 <__muldf3+0x650>
   206e4:	fe100693          	li	a3,-31
   206e8:	40f687b3          	sub	a5,a3,a5
   206ec:	02000693          	li	a3,32
   206f0:	00f457b3          	srl	a5,s0,a5
   206f4:	00d70863          	beq	a4,a3,20704 <__muldf3+0x75c>
   206f8:	43ee0e13          	addi	t3,t3,1086
   206fc:	01c41e33          	sll	t3,s0,t3
   20700:	01cf6f33          	or	t5,t5,t3
   20704:	01e03633          	snez	a2,t5
   20708:	00f66633          	or	a2,a2,a5
   2070c:	00767713          	andi	a4,a2,7
   20710:	00000693          	li	a3,0
   20714:	02070863          	beqz	a4,20744 <__muldf3+0x79c>
   20718:	00f67793          	andi	a5,a2,15
   2071c:	00400713          	li	a4,4
   20720:	00000593          	li	a1,0
   20724:	00e78a63          	beq	a5,a4,20738 <__muldf3+0x790>
   20728:	00460793          	addi	a5,a2,4
   2072c:	00c7b633          	sltu	a2,a5,a2
   20730:	00c035b3          	snez	a1,a2
   20734:	00078613          	mv	a2,a5
   20738:	00959693          	slli	a3,a1,0x9
   2073c:	01d59713          	slli	a4,a1,0x1d
   20740:	00c6d693          	srli	a3,a3,0xc
   20744:	00365613          	srli	a2,a2,0x3
   20748:	00e66733          	or	a4,a2,a4
   2074c:	00000793          	li	a5,0
   20750:	95dff06f          	j	200ac <__muldf3+0x104>
   20754:	00070f13          	mv	t5,a4
   20758:	a1dff06f          	j	20174 <__muldf3+0x1cc>
   2075c:	00f00713          	li	a4,15
   20760:	00eb9a63          	bne	s7,a4,20774 <__muldf3+0x7cc>
   20764:	00000313          	li	t1,0
   20768:	000806b7          	lui	a3,0x80
   2076c:	00000713          	li	a4,0
   20770:	93dff06f          	j	200ac <__muldf3+0x104>
   20774:	000a8713          	mv	a4,s5
   20778:	00b00793          	li	a5,11
   2077c:	00300813          	li	a6,3
   20780:	b15ff06f          	j	20294 <__muldf3+0x2ec>

00020784 <__subdf3>:
   20784:	001007b7          	lui	a5,0x100
   20788:	fff78793          	addi	a5,a5,-1 # fffff <__BSS_END__+0xdc1cf>
   2078c:	fe010113          	addi	sp,sp,-32
   20790:	00b7f8b3          	and	a7,a5,a1
   20794:	0146d813          	srli	a6,a3,0x14
   20798:	00d7f7b3          	and	a5,a5,a3
   2079c:	00389893          	slli	a7,a7,0x3
   207a0:	00379713          	slli	a4,a5,0x3
   207a4:	00812c23          	sw	s0,24(sp)
   207a8:	00912a23          	sw	s1,20(sp)
   207ac:	0145d413          	srli	s0,a1,0x14
   207b0:	01212823          	sw	s2,16(sp)
   207b4:	01d65793          	srli	a5,a2,0x1d
   207b8:	01d55913          	srli	s2,a0,0x1d
   207bc:	00112e23          	sw	ra,28(sp)
   207c0:	01312623          	sw	s3,12(sp)
   207c4:	7ff87813          	andi	a6,a6,2047
   207c8:	7ff00313          	li	t1,2047
   207cc:	01f5d493          	srli	s1,a1,0x1f
   207d0:	01196933          	or	s2,s2,a7
   207d4:	7ff47413          	andi	s0,s0,2047
   207d8:	00351893          	slli	a7,a0,0x3
   207dc:	01f6d693          	srli	a3,a3,0x1f
   207e0:	00e7e7b3          	or	a5,a5,a4
   207e4:	00361593          	slli	a1,a2,0x3
   207e8:	20680e63          	beq	a6,t1,20a04 <__subdf3+0x280>
   207ec:	0016c693          	xori	a3,a3,1
   207f0:	41040733          	sub	a4,s0,a6
   207f4:	16d48263          	beq	s1,a3,20958 <__subdf3+0x1d4>
   207f8:	04e050e3          	blez	a4,21038 <__subdf3+0x8b4>
   207fc:	24080a63          	beqz	a6,20a50 <__subdf3+0x2cc>
   20800:	66640a63          	beq	s0,t1,20e74 <__subdf3+0x6f0>
   20804:	03800693          	li	a3,56
   20808:	00100993          	li	s3,1
   2080c:	02e6ce63          	blt	a3,a4,20848 <__subdf3+0xc4>
   20810:	008006b7          	lui	a3,0x800
   20814:	00d7e7b3          	or	a5,a5,a3
   20818:	01f00693          	li	a3,31
   2081c:	4ce6c463          	blt	a3,a4,20ce4 <__subdf3+0x560>
   20820:	02000693          	li	a3,32
   20824:	40e686b3          	sub	a3,a3,a4
   20828:	00d799b3          	sll	s3,a5,a3
   2082c:	00e5d633          	srl	a2,a1,a4
   20830:	00d596b3          	sll	a3,a1,a3
   20834:	00c9e9b3          	or	s3,s3,a2
   20838:	00d036b3          	snez	a3,a3
   2083c:	00e7d733          	srl	a4,a5,a4
   20840:	00d9e9b3          	or	s3,s3,a3
   20844:	40e90933          	sub	s2,s2,a4
   20848:	413889b3          	sub	s3,a7,s3
   2084c:	0138b7b3          	sltu	a5,a7,s3
   20850:	40f90933          	sub	s2,s2,a5
   20854:	008007b7          	lui	a5,0x800
   20858:	00f97733          	and	a4,s2,a5
   2085c:	32070263          	beqz	a4,20b80 <__subdf3+0x3fc>
   20860:	fff78793          	addi	a5,a5,-1 # 7fffff <__BSS_END__+0x7dc1cf>
   20864:	00f97933          	and	s2,s2,a5
   20868:	32090263          	beqz	s2,20b8c <__subdf3+0x408>
   2086c:	00090513          	mv	a0,s2
   20870:	6f9000ef          	jal	ra,21768 <__clzsi2>
   20874:	ff850713          	addi	a4,a0,-8
   20878:	02000693          	li	a3,32
   2087c:	40e687b3          	sub	a5,a3,a4
   20880:	00f9d7b3          	srl	a5,s3,a5
   20884:	00e91933          	sll	s2,s2,a4
   20888:	0127e7b3          	or	a5,a5,s2
   2088c:	00e999b3          	sll	s3,s3,a4
   20890:	3a874663          	blt	a4,s0,20c3c <__subdf3+0x4b8>
   20894:	40870733          	sub	a4,a4,s0
   20898:	00170713          	addi	a4,a4,1 # 1000001 <__BSS_END__+0xfdc1d1>
   2089c:	40e686b3          	sub	a3,a3,a4
   208a0:	00d99633          	sll	a2,s3,a3
   208a4:	00e9d933          	srl	s2,s3,a4
   208a8:	00c03633          	snez	a2,a2
   208ac:	00c96633          	or	a2,s2,a2
   208b0:	00d796b3          	sll	a3,a5,a3
   208b4:	00c6e9b3          	or	s3,a3,a2
   208b8:	00e7d933          	srl	s2,a5,a4
   208bc:	00000413          	li	s0,0
   208c0:	0079f793          	andi	a5,s3,7
   208c4:	02078063          	beqz	a5,208e4 <__subdf3+0x160>
   208c8:	00f9f793          	andi	a5,s3,15
   208cc:	00400713          	li	a4,4
   208d0:	00e78a63          	beq	a5,a4,208e4 <__subdf3+0x160>
   208d4:	00498793          	addi	a5,s3,4
   208d8:	0137b9b3          	sltu	s3,a5,s3
   208dc:	01390933          	add	s2,s2,s3
   208e0:	00078993          	mv	s3,a5
   208e4:	008007b7          	lui	a5,0x800
   208e8:	00f977b3          	and	a5,s2,a5
   208ec:	30078063          	beqz	a5,20bec <__subdf3+0x468>
   208f0:	00140413          	addi	s0,s0,1
   208f4:	7ff00793          	li	a5,2047
   208f8:	26f40a63          	beq	s0,a5,20b6c <__subdf3+0x3e8>
   208fc:	ff8007b7          	lui	a5,0xff800
   20900:	fff78793          	addi	a5,a5,-1 # ff7fffff <__BSS_END__+0xff7dc1cf>
   20904:	00f977b3          	and	a5,s2,a5
   20908:	01d79713          	slli	a4,a5,0x1d
   2090c:	0039d993          	srli	s3,s3,0x3
   20910:	00979793          	slli	a5,a5,0x9
   20914:	01376733          	or	a4,a4,s3
   20918:	00c7d793          	srli	a5,a5,0xc
   2091c:	7ff47413          	andi	s0,s0,2047
   20920:	0014f493          	andi	s1,s1,1
   20924:	01441413          	slli	s0,s0,0x14
   20928:	01f49493          	slli	s1,s1,0x1f
   2092c:	00f46433          	or	s0,s0,a5
   20930:	00946433          	or	s0,s0,s1
   20934:	01c12083          	lw	ra,28(sp)
   20938:	00040593          	mv	a1,s0
   2093c:	01812403          	lw	s0,24(sp)
   20940:	01412483          	lw	s1,20(sp)
   20944:	01012903          	lw	s2,16(sp)
   20948:	00c12983          	lw	s3,12(sp)
   2094c:	00070513          	mv	a0,a4
   20950:	02010113          	addi	sp,sp,32
   20954:	00008067          	ret
   20958:	70e05a63          	blez	a4,2106c <__subdf3+0x8e8>
   2095c:	1e081a63          	bnez	a6,20b50 <__subdf3+0x3cc>
   20960:	00b7e6b3          	or	a3,a5,a1
   20964:	2c068663          	beqz	a3,20c30 <__subdf3+0x4ac>
   20968:	fff70613          	addi	a2,a4,-1
   2096c:	4a060463          	beqz	a2,20e14 <__subdf3+0x690>
   20970:	54670a63          	beq	a4,t1,20ec4 <__subdf3+0x740>
   20974:	03800713          	li	a4,56
   20978:	00100693          	li	a3,1
   2097c:	02c74c63          	blt	a4,a2,209b4 <__subdf3+0x230>
   20980:	00060713          	mv	a4,a2
   20984:	01f00693          	li	a3,31
   20988:	50e6c263          	blt	a3,a4,20e8c <__subdf3+0x708>
   2098c:	02000613          	li	a2,32
   20990:	40e60633          	sub	a2,a2,a4
   20994:	00c796b3          	sll	a3,a5,a2
   20998:	00e5d533          	srl	a0,a1,a4
   2099c:	00c59633          	sll	a2,a1,a2
   209a0:	00a6e6b3          	or	a3,a3,a0
   209a4:	00c03633          	snez	a2,a2
   209a8:	00e7d733          	srl	a4,a5,a4
   209ac:	00c6e6b3          	or	a3,a3,a2
   209b0:	00e90933          	add	s2,s2,a4
   209b4:	011687b3          	add	a5,a3,a7
   209b8:	00d7b6b3          	sltu	a3,a5,a3
   209bc:	00078993          	mv	s3,a5
   209c0:	00d90933          	add	s2,s2,a3
   209c4:	008007b7          	lui	a5,0x800
   209c8:	00f977b3          	and	a5,s2,a5
   209cc:	1a078a63          	beqz	a5,20b80 <__subdf3+0x3fc>
   209d0:	00140413          	addi	s0,s0,1
   209d4:	7ff00793          	li	a5,2047
   209d8:	18f40a63          	beq	s0,a5,20b6c <__subdf3+0x3e8>
   209dc:	ff8007b7          	lui	a5,0xff800
   209e0:	fff78793          	addi	a5,a5,-1 # ff7fffff <__BSS_END__+0xff7dc1cf>
   209e4:	00f977b3          	and	a5,s2,a5
   209e8:	0019d713          	srli	a4,s3,0x1
   209ec:	0019f993          	andi	s3,s3,1
   209f0:	01376733          	or	a4,a4,s3
   209f4:	01f79993          	slli	s3,a5,0x1f
   209f8:	00e9e9b3          	or	s3,s3,a4
   209fc:	0017d913          	srli	s2,a5,0x1
   20a00:	ec1ff06f          	j	208c0 <__subdf3+0x13c>
   20a04:	00b7e733          	or	a4,a5,a1
   20a08:	80140313          	addi	t1,s0,-2047
   20a0c:	06070663          	beqz	a4,20a78 <__subdf3+0x2f4>
   20a10:	06d48863          	beq	s1,a3,20a80 <__subdf3+0x2fc>
   20a14:	0e030263          	beqz	t1,20af8 <__subdf3+0x374>
   20a18:	20040063          	beqz	s0,20c18 <__subdf3+0x494>
   20a1c:	00361613          	slli	a2,a2,0x3
   20a20:	01d79713          	slli	a4,a5,0x1d
   20a24:	00365613          	srli	a2,a2,0x3
   20a28:	00e66733          	or	a4,a2,a4
   20a2c:	0037d793          	srli	a5,a5,0x3
   20a30:	00068493          	mv	s1,a3
   20a34:	00f76733          	or	a4,a4,a5
   20a38:	12070a63          	beqz	a4,20b6c <__subdf3+0x3e8>
   20a3c:	00000493          	li	s1,0
   20a40:	7ff00413          	li	s0,2047
   20a44:	000807b7          	lui	a5,0x80
   20a48:	00000713          	li	a4,0
   20a4c:	ed9ff06f          	j	20924 <__subdf3+0x1a0>
   20a50:	00b7e6b3          	or	a3,a5,a1
   20a54:	1c068e63          	beqz	a3,20c30 <__subdf3+0x4ac>
   20a58:	fff70693          	addi	a3,a4,-1
   20a5c:	3e068e63          	beqz	a3,20e58 <__subdf3+0x6d4>
   20a60:	3e670063          	beq	a4,t1,20e40 <__subdf3+0x6bc>
   20a64:	03800713          	li	a4,56
   20a68:	00100993          	li	s3,1
   20a6c:	dcd74ee3          	blt	a4,a3,20848 <__subdf3+0xc4>
   20a70:	00068713          	mv	a4,a3
   20a74:	da5ff06f          	j	20818 <__subdf3+0x94>
   20a78:	0016c693          	xori	a3,a3,1
   20a7c:	f8d49ce3          	bne	s1,a3,20a14 <__subdf3+0x290>
   20a80:	1c030863          	beqz	t1,20c50 <__subdf3+0x4cc>
   20a84:	2e041863          	bnez	s0,20d74 <__subdf3+0x5f0>
   20a88:	7ff00713          	li	a4,2047
   20a8c:	011966b3          	or	a3,s2,a7
   20a90:	4c068863          	beqz	a3,20f60 <__subdf3+0x7dc>
   20a94:	fff70693          	addi	a3,a4,-1
   20a98:	36068e63          	beqz	a3,20e14 <__subdf3+0x690>
   20a9c:	7ff00513          	li	a0,2047
   20aa0:	2ca70a63          	beq	a4,a0,20d74 <__subdf3+0x5f0>
   20aa4:	03800613          	li	a2,56
   20aa8:	00100713          	li	a4,1
   20aac:	02d64a63          	blt	a2,a3,20ae0 <__subdf3+0x35c>
   20ab0:	01f00713          	li	a4,31
   20ab4:	52d74063          	blt	a4,a3,20fd4 <__subdf3+0x850>
   20ab8:	02000613          	li	a2,32
   20abc:	40d60633          	sub	a2,a2,a3
   20ac0:	00c91733          	sll	a4,s2,a2
   20ac4:	00d8d533          	srl	a0,a7,a3
   20ac8:	00c89633          	sll	a2,a7,a2
   20acc:	00a76733          	or	a4,a4,a0
   20ad0:	00c03633          	snez	a2,a2
   20ad4:	00d956b3          	srl	a3,s2,a3
   20ad8:	00c76733          	or	a4,a4,a2
   20adc:	00d787b3          	add	a5,a5,a3
   20ae0:	00b705b3          	add	a1,a4,a1
   20ae4:	00e5b733          	sltu	a4,a1,a4
   20ae8:	00058993          	mv	s3,a1
   20aec:	00f70933          	add	s2,a4,a5
   20af0:	00080413          	mv	s0,a6
   20af4:	ed1ff06f          	j	209c4 <__subdf3+0x240>
   20af8:	00140713          	addi	a4,s0,1
   20afc:	7fe77713          	andi	a4,a4,2046
   20b00:	1a071663          	bnez	a4,20cac <__subdf3+0x528>
   20b04:	00b7e733          	or	a4,a5,a1
   20b08:	01196833          	or	a6,s2,a7
   20b0c:	2e041863          	bnez	s0,20dfc <__subdf3+0x678>
   20b10:	3e080c63          	beqz	a6,20f08 <__subdf3+0x784>
   20b14:	42070a63          	beqz	a4,20f48 <__subdf3+0x7c4>
   20b18:	40b889b3          	sub	s3,a7,a1
   20b1c:	0138b733          	sltu	a4,a7,s3
   20b20:	40f90633          	sub	a2,s2,a5
   20b24:	40e60633          	sub	a2,a2,a4
   20b28:	00800737          	lui	a4,0x800
   20b2c:	00e67733          	and	a4,a2,a4
   20b30:	4e070463          	beqz	a4,21018 <__subdf3+0x894>
   20b34:	411588b3          	sub	a7,a1,a7
   20b38:	412787b3          	sub	a5,a5,s2
   20b3c:	0115b5b3          	sltu	a1,a1,a7
   20b40:	00088993          	mv	s3,a7
   20b44:	40b78933          	sub	s2,a5,a1
   20b48:	00068493          	mv	s1,a3
   20b4c:	d75ff06f          	j	208c0 <__subdf3+0x13c>
   20b50:	2e640863          	beq	s0,t1,20e40 <__subdf3+0x6bc>
   20b54:	03800613          	li	a2,56
   20b58:	00100693          	li	a3,1
   20b5c:	e4e64ce3          	blt	a2,a4,209b4 <__subdf3+0x230>
   20b60:	008006b7          	lui	a3,0x800
   20b64:	00d7e7b3          	or	a5,a5,a3
   20b68:	e1dff06f          	j	20984 <__subdf3+0x200>
   20b6c:	0014f493          	andi	s1,s1,1
   20b70:	7ff00413          	li	s0,2047
   20b74:	00000793          	li	a5,0
   20b78:	00000713          	li	a4,0
   20b7c:	da9ff06f          	j	20924 <__subdf3+0x1a0>
   20b80:	0079f713          	andi	a4,s3,7
   20b84:	d40712e3          	bnez	a4,208c8 <__subdf3+0x144>
   20b88:	1180006f          	j	20ca0 <__subdf3+0x51c>
   20b8c:	00098513          	mv	a0,s3
   20b90:	3d9000ef          	jal	ra,21768 <__clzsi2>
   20b94:	01850713          	addi	a4,a0,24
   20b98:	01f00693          	li	a3,31
   20b9c:	cce6dee3          	bge	a3,a4,20878 <__subdf3+0xf4>
   20ba0:	ff850793          	addi	a5,a0,-8
   20ba4:	00f997b3          	sll	a5,s3,a5
   20ba8:	1e874263          	blt	a4,s0,20d8c <__subdf3+0x608>
   20bac:	408709b3          	sub	s3,a4,s0
   20bb0:	00198713          	addi	a4,s3,1
   20bb4:	46e6da63          	bge	a3,a4,21028 <__subdf3+0x8a4>
   20bb8:	fe198993          	addi	s3,s3,-31
   20bbc:	02000693          	li	a3,32
   20bc0:	0137d9b3          	srl	s3,a5,s3
   20bc4:	00d70c63          	beq	a4,a3,20bdc <__subdf3+0x458>
   20bc8:	04000693          	li	a3,64
   20bcc:	40e68733          	sub	a4,a3,a4
   20bd0:	00e797b3          	sll	a5,a5,a4
   20bd4:	00f037b3          	snez	a5,a5
   20bd8:	00f9e9b3          	or	s3,s3,a5
   20bdc:	0079f713          	andi	a4,s3,7
   20be0:	00000413          	li	s0,0
   20be4:	ce0712e3          	bnez	a4,208c8 <__subdf3+0x144>
   20be8:	0b80006f          	j	20ca0 <__subdf3+0x51c>
   20bec:	0039d793          	srli	a5,s3,0x3
   20bf0:	01d91713          	slli	a4,s2,0x1d
   20bf4:	7ff00693          	li	a3,2047
   20bf8:	00f76733          	or	a4,a4,a5
   20bfc:	00395793          	srli	a5,s2,0x3
   20c00:	e2d40ae3          	beq	s0,a3,20a34 <__subdf3+0x2b0>
   20c04:	00c79793          	slli	a5,a5,0xc
   20c08:	00c7d793          	srli	a5,a5,0xc
   20c0c:	7ff47413          	andi	s0,s0,2047
   20c10:	0014f493          	andi	s1,s1,1
   20c14:	d11ff06f          	j	20924 <__subdf3+0x1a0>
   20c18:	7ff00713          	li	a4,2047
   20c1c:	01196533          	or	a0,s2,a7
   20c20:	0e051863          	bnez	a0,20d10 <__subdf3+0x58c>
   20c24:	00078913          	mv	s2,a5
   20c28:	00058893          	mv	a7,a1
   20c2c:	00068493          	mv	s1,a3
   20c30:	0038d793          	srli	a5,a7,0x3
   20c34:	00070413          	mv	s0,a4
   20c38:	fb9ff06f          	j	20bf0 <__subdf3+0x46c>
   20c3c:	ff800937          	lui	s2,0xff800
   20c40:	fff90913          	addi	s2,s2,-1 # ff7fffff <__BSS_END__+0xff7dc1cf>
   20c44:	40e40433          	sub	s0,s0,a4
   20c48:	0127f933          	and	s2,a5,s2
   20c4c:	c75ff06f          	j	208c0 <__subdf3+0x13c>
   20c50:	00140693          	addi	a3,s0,1
   20c54:	7fe6f713          	andi	a4,a3,2046
   20c58:	14071863          	bnez	a4,20da8 <__subdf3+0x624>
   20c5c:	01196733          	or	a4,s2,a7
   20c60:	24041c63          	bnez	s0,20eb8 <__subdf3+0x734>
   20c64:	32070263          	beqz	a4,20f88 <__subdf3+0x804>
   20c68:	00b7e733          	or	a4,a5,a1
   20c6c:	34070863          	beqz	a4,20fbc <__subdf3+0x838>
   20c70:	00b885b3          	add	a1,a7,a1
   20c74:	00f907b3          	add	a5,s2,a5
   20c78:	0115b8b3          	sltu	a7,a1,a7
   20c7c:	01178933          	add	s2,a5,a7
   20c80:	00800737          	lui	a4,0x800
   20c84:	00e97733          	and	a4,s2,a4
   20c88:	00058993          	mv	s3,a1
   20c8c:	00070a63          	beqz	a4,20ca0 <__subdf3+0x51c>
   20c90:	ff8007b7          	lui	a5,0xff800
   20c94:	fff78793          	addi	a5,a5,-1 # ff7fffff <__BSS_END__+0xff7dc1cf>
   20c98:	00f97933          	and	s2,s2,a5
   20c9c:	00100413          	li	s0,1
   20ca0:	00098893          	mv	a7,s3
   20ca4:	00040713          	mv	a4,s0
   20ca8:	f89ff06f          	j	20c30 <__subdf3+0x4ac>
   20cac:	40b889b3          	sub	s3,a7,a1
   20cb0:	0138b733          	sltu	a4,a7,s3
   20cb4:	40f90633          	sub	a2,s2,a5
   20cb8:	40e60633          	sub	a2,a2,a4
   20cbc:	00800737          	lui	a4,0x800
   20cc0:	00e67733          	and	a4,a2,a4
   20cc4:	10071e63          	bnez	a4,20de0 <__subdf3+0x65c>
   20cc8:	00c9e733          	or	a4,s3,a2
   20ccc:	00060913          	mv	s2,a2
   20cd0:	b8071ce3          	bnez	a4,20868 <__subdf3+0xe4>
   20cd4:	00000493          	li	s1,0
   20cd8:	00000413          	li	s0,0
   20cdc:	00000793          	li	a5,0
   20ce0:	c45ff06f          	j	20924 <__subdf3+0x1a0>
   20ce4:	fe070693          	addi	a3,a4,-32 # 7fffe0 <__BSS_END__+0x7dc1b0>
   20ce8:	02000613          	li	a2,32
   20cec:	00d7d6b3          	srl	a3,a5,a3
   20cf0:	00c70a63          	beq	a4,a2,20d04 <__subdf3+0x580>
   20cf4:	04000613          	li	a2,64
   20cf8:	40e60733          	sub	a4,a2,a4
   20cfc:	00e797b3          	sll	a5,a5,a4
   20d00:	00f5e5b3          	or	a1,a1,a5
   20d04:	00b039b3          	snez	s3,a1
   20d08:	00d9e9b3          	or	s3,s3,a3
   20d0c:	b3dff06f          	j	20848 <__subdf3+0xc4>
   20d10:	fff70513          	addi	a0,a4,-1
   20d14:	20050a63          	beqz	a0,20f28 <__subdf3+0x7a4>
   20d18:	7ff00313          	li	t1,2047
   20d1c:	28670263          	beq	a4,t1,20fa0 <__subdf3+0x81c>
   20d20:	03800713          	li	a4,56
   20d24:	00068493          	mv	s1,a3
   20d28:	00100993          	li	s3,1
   20d2c:	02a74a63          	blt	a4,a0,20d60 <__subdf3+0x5dc>
   20d30:	01f00713          	li	a4,31
   20d34:	1aa74463          	blt	a4,a0,20edc <__subdf3+0x758>
   20d38:	02000713          	li	a4,32
   20d3c:	40a70733          	sub	a4,a4,a0
   20d40:	00e919b3          	sll	s3,s2,a4
   20d44:	00a8d6b3          	srl	a3,a7,a0
   20d48:	00e89733          	sll	a4,a7,a4
   20d4c:	00d9e9b3          	or	s3,s3,a3
   20d50:	00e03733          	snez	a4,a4
   20d54:	00a95533          	srl	a0,s2,a0
   20d58:	00e9e9b3          	or	s3,s3,a4
   20d5c:	40a787b3          	sub	a5,a5,a0
   20d60:	413589b3          	sub	s3,a1,s3
   20d64:	0135b5b3          	sltu	a1,a1,s3
   20d68:	40b78933          	sub	s2,a5,a1
   20d6c:	00080413          	mv	s0,a6
   20d70:	ae5ff06f          	j	20854 <__subdf3+0xd0>
   20d74:	00361613          	slli	a2,a2,0x3
   20d78:	01d79713          	slli	a4,a5,0x1d
   20d7c:	00365613          	srli	a2,a2,0x3
   20d80:	00e66733          	or	a4,a2,a4
   20d84:	0037d793          	srli	a5,a5,0x3
   20d88:	cadff06f          	j	20a34 <__subdf3+0x2b0>
   20d8c:	ff8006b7          	lui	a3,0xff800
   20d90:	fff68693          	addi	a3,a3,-1 # ff7fffff <__BSS_END__+0xff7dc1cf>
   20d94:	00d7f7b3          	and	a5,a5,a3
   20d98:	40e40433          	sub	s0,s0,a4
   20d9c:	01d79713          	slli	a4,a5,0x1d
   20da0:	0037d793          	srli	a5,a5,0x3
   20da4:	e61ff06f          	j	20c04 <__subdf3+0x480>
   20da8:	7ff00713          	li	a4,2047
   20dac:	dce680e3          	beq	a3,a4,20b6c <__subdf3+0x3e8>
   20db0:	00b88733          	add	a4,a7,a1
   20db4:	00f907b3          	add	a5,s2,a5
   20db8:	011738b3          	sltu	a7,a4,a7
   20dbc:	011787b3          	add	a5,a5,a7
   20dc0:	00175713          	srli	a4,a4,0x1
   20dc4:	01f79993          	slli	s3,a5,0x1f
   20dc8:	00e9e9b3          	or	s3,s3,a4
   20dcc:	00777713          	andi	a4,a4,7
   20dd0:	0017d913          	srli	s2,a5,0x1
   20dd4:	00068413          	mv	s0,a3
   20dd8:	ae0718e3          	bnez	a4,208c8 <__subdf3+0x144>
   20ddc:	ec5ff06f          	j	20ca0 <__subdf3+0x51c>
   20de0:	411588b3          	sub	a7,a1,a7
   20de4:	412787b3          	sub	a5,a5,s2
   20de8:	0115b5b3          	sltu	a1,a1,a7
   20dec:	00088993          	mv	s3,a7
   20df0:	40b78933          	sub	s2,a5,a1
   20df4:	00068493          	mv	s1,a3
   20df8:	a71ff06f          	j	20868 <__subdf3+0xe4>
   20dfc:	16081863          	bnez	a6,20f6c <__subdf3+0x7e8>
   20e00:	c0071ee3          	bnez	a4,20a1c <__subdf3+0x298>
   20e04:	00000493          	li	s1,0
   20e08:	7ff00413          	li	s0,2047
   20e0c:	000807b7          	lui	a5,0x80
   20e10:	b15ff06f          	j	20924 <__subdf3+0x1a0>
   20e14:	00b885b3          	add	a1,a7,a1
   20e18:	00f907b3          	add	a5,s2,a5
   20e1c:	0115b8b3          	sltu	a7,a1,a7
   20e20:	01178933          	add	s2,a5,a7
   20e24:	008007b7          	lui	a5,0x800
   20e28:	00f977b3          	and	a5,s2,a5
   20e2c:	00058993          	mv	s3,a1
   20e30:	00100413          	li	s0,1
   20e34:	d40786e3          	beqz	a5,20b80 <__subdf3+0x3fc>
   20e38:	00200413          	li	s0,2
   20e3c:	ba1ff06f          	j	209dc <__subdf3+0x258>
   20e40:	00351513          	slli	a0,a0,0x3
   20e44:	01d91793          	slli	a5,s2,0x1d
   20e48:	00355713          	srli	a4,a0,0x3
   20e4c:	00f76733          	or	a4,a4,a5
   20e50:	00395793          	srli	a5,s2,0x3
   20e54:	be1ff06f          	j	20a34 <__subdf3+0x2b0>
   20e58:	40b885b3          	sub	a1,a7,a1
   20e5c:	40f907b3          	sub	a5,s2,a5
   20e60:	00b8b8b3          	sltu	a7,a7,a1
   20e64:	00058993          	mv	s3,a1
   20e68:	41178933          	sub	s2,a5,a7
   20e6c:	00100413          	li	s0,1
   20e70:	9e5ff06f          	j	20854 <__subdf3+0xd0>
   20e74:	00351513          	slli	a0,a0,0x3
   20e78:	01d91713          	slli	a4,s2,0x1d
   20e7c:	00355513          	srli	a0,a0,0x3
   20e80:	00a76733          	or	a4,a4,a0
   20e84:	00395793          	srli	a5,s2,0x3
   20e88:	badff06f          	j	20a34 <__subdf3+0x2b0>
   20e8c:	fe070613          	addi	a2,a4,-32
   20e90:	02000693          	li	a3,32
   20e94:	00c7d633          	srl	a2,a5,a2
   20e98:	00d70a63          	beq	a4,a3,20eac <__subdf3+0x728>
   20e9c:	04000693          	li	a3,64
   20ea0:	40e68733          	sub	a4,a3,a4
   20ea4:	00e797b3          	sll	a5,a5,a4
   20ea8:	00f5e5b3          	or	a1,a1,a5
   20eac:	00b036b3          	snez	a3,a1
   20eb0:	00c6e6b3          	or	a3,a3,a2
   20eb4:	b01ff06f          	j	209b4 <__subdf3+0x230>
   20eb8:	14070463          	beqz	a4,21000 <__subdf3+0x87c>
   20ebc:	00b7e5b3          	or	a1,a5,a1
   20ec0:	b6059ee3          	bnez	a1,20a3c <__subdf3+0x2b8>
   20ec4:	00351513          	slli	a0,a0,0x3
   20ec8:	01d91793          	slli	a5,s2,0x1d
   20ecc:	00355513          	srli	a0,a0,0x3
   20ed0:	00f56733          	or	a4,a0,a5
   20ed4:	00395793          	srli	a5,s2,0x3
   20ed8:	b5dff06f          	j	20a34 <__subdf3+0x2b0>
   20edc:	fe050713          	addi	a4,a0,-32
   20ee0:	02000693          	li	a3,32
   20ee4:	00e95733          	srl	a4,s2,a4
   20ee8:	00d50a63          	beq	a0,a3,20efc <__subdf3+0x778>
   20eec:	04000693          	li	a3,64
   20ef0:	40a686b3          	sub	a3,a3,a0
   20ef4:	00d916b3          	sll	a3,s2,a3
   20ef8:	00d8e8b3          	or	a7,a7,a3
   20efc:	011039b3          	snez	s3,a7
   20f00:	00e9e9b3          	or	s3,s3,a4
   20f04:	e5dff06f          	j	20d60 <__subdf3+0x5dc>
   20f08:	dc0706e3          	beqz	a4,20cd4 <__subdf3+0x550>
   20f0c:	00361613          	slli	a2,a2,0x3
   20f10:	01d79713          	slli	a4,a5,0x1d
   20f14:	00365613          	srli	a2,a2,0x3
   20f18:	00c76733          	or	a4,a4,a2
   20f1c:	0037d793          	srli	a5,a5,0x3
   20f20:	00068493          	mv	s1,a3
   20f24:	ce1ff06f          	j	20c04 <__subdf3+0x480>
   20f28:	411588b3          	sub	a7,a1,a7
   20f2c:	412787b3          	sub	a5,a5,s2
   20f30:	0115b5b3          	sltu	a1,a1,a7
   20f34:	00088993          	mv	s3,a7
   20f38:	40b78933          	sub	s2,a5,a1
   20f3c:	00068493          	mv	s1,a3
   20f40:	00100413          	li	s0,1
   20f44:	911ff06f          	j	20854 <__subdf3+0xd0>
   20f48:	00351793          	slli	a5,a0,0x3
   20f4c:	0037d793          	srli	a5,a5,0x3
   20f50:	01d91713          	slli	a4,s2,0x1d
   20f54:	00f76733          	or	a4,a4,a5
   20f58:	00395793          	srli	a5,s2,0x3
   20f5c:	ca9ff06f          	j	20c04 <__subdf3+0x480>
   20f60:	00078913          	mv	s2,a5
   20f64:	00058893          	mv	a7,a1
   20f68:	cc9ff06f          	j	20c30 <__subdf3+0x4ac>
   20f6c:	ac0718e3          	bnez	a4,20a3c <__subdf3+0x2b8>
   20f70:	00351793          	slli	a5,a0,0x3
   20f74:	0037d793          	srli	a5,a5,0x3
   20f78:	01d91713          	slli	a4,s2,0x1d
   20f7c:	00f76733          	or	a4,a4,a5
   20f80:	00395793          	srli	a5,s2,0x3
   20f84:	ab1ff06f          	j	20a34 <__subdf3+0x2b0>
   20f88:	00361613          	slli	a2,a2,0x3
   20f8c:	01d79713          	slli	a4,a5,0x1d
   20f90:	00365613          	srli	a2,a2,0x3
   20f94:	00e66733          	or	a4,a2,a4
   20f98:	0037d793          	srli	a5,a5,0x3
   20f9c:	c69ff06f          	j	20c04 <__subdf3+0x480>
   20fa0:	00361613          	slli	a2,a2,0x3
   20fa4:	01d79713          	slli	a4,a5,0x1d
   20fa8:	00365613          	srli	a2,a2,0x3
   20fac:	00c76733          	or	a4,a4,a2
   20fb0:	0037d793          	srli	a5,a5,0x3
   20fb4:	00068493          	mv	s1,a3
   20fb8:	a7dff06f          	j	20a34 <__subdf3+0x2b0>
   20fbc:	00351513          	slli	a0,a0,0x3
   20fc0:	01d91793          	slli	a5,s2,0x1d
   20fc4:	00355513          	srli	a0,a0,0x3
   20fc8:	00f56733          	or	a4,a0,a5
   20fcc:	00395793          	srli	a5,s2,0x3
   20fd0:	c35ff06f          	j	20c04 <__subdf3+0x480>
   20fd4:	fe068613          	addi	a2,a3,-32
   20fd8:	02000713          	li	a4,32
   20fdc:	00c95633          	srl	a2,s2,a2
   20fe0:	00e68a63          	beq	a3,a4,20ff4 <__subdf3+0x870>
   20fe4:	04000713          	li	a4,64
   20fe8:	40d70733          	sub	a4,a4,a3
   20fec:	00e91733          	sll	a4,s2,a4
   20ff0:	00e8e8b3          	or	a7,a7,a4
   20ff4:	01103733          	snez	a4,a7
   20ff8:	00c76733          	or	a4,a4,a2
   20ffc:	ae5ff06f          	j	20ae0 <__subdf3+0x35c>
   21000:	00361613          	slli	a2,a2,0x3
   21004:	01d79713          	slli	a4,a5,0x1d
   21008:	00365693          	srli	a3,a2,0x3
   2100c:	00d76733          	or	a4,a4,a3
   21010:	0037d793          	srli	a5,a5,0x3
   21014:	a21ff06f          	j	20a34 <__subdf3+0x2b0>
   21018:	00c9e733          	or	a4,s3,a2
   2101c:	00060913          	mv	s2,a2
   21020:	c80710e3          	bnez	a4,20ca0 <__subdf3+0x51c>
   21024:	cb1ff06f          	j	20cd4 <__subdf3+0x550>
   21028:	02000693          	li	a3,32
   2102c:	40e686b3          	sub	a3,a3,a4
   21030:	00000613          	li	a2,0
   21034:	879ff06f          	j	208ac <__subdf3+0x128>
   21038:	ac0700e3          	beqz	a4,20af8 <__subdf3+0x374>
   2103c:	40880533          	sub	a0,a6,s0
   21040:	00050713          	mv	a4,a0
   21044:	bc040ce3          	beqz	s0,20c1c <__subdf3+0x498>
   21048:	03800713          	li	a4,56
   2104c:	00a74a63          	blt	a4,a0,21060 <__subdf3+0x8dc>
   21050:	00800737          	lui	a4,0x800
   21054:	00e96933          	or	s2,s2,a4
   21058:	00068493          	mv	s1,a3
   2105c:	cd5ff06f          	j	20d30 <__subdf3+0x5ac>
   21060:	00068493          	mv	s1,a3
   21064:	00100993          	li	s3,1
   21068:	cf9ff06f          	j	20d60 <__subdf3+0x5dc>
   2106c:	be0702e3          	beqz	a4,20c50 <__subdf3+0x4cc>
   21070:	408806b3          	sub	a3,a6,s0
   21074:	00041663          	bnez	s0,21080 <__subdf3+0x8fc>
   21078:	00068713          	mv	a4,a3
   2107c:	a11ff06f          	j	20a8c <__subdf3+0x308>
   21080:	03800613          	li	a2,56
   21084:	00100713          	li	a4,1
   21088:	a4d64ce3          	blt	a2,a3,20ae0 <__subdf3+0x35c>
   2108c:	00800737          	lui	a4,0x800
   21090:	00e96933          	or	s2,s2,a4
   21094:	a1dff06f          	j	20ab0 <__subdf3+0x32c>

00021098 <__unorddf2>:
   21098:	0145d713          	srli	a4,a1,0x14
   2109c:	001007b7          	lui	a5,0x100
   210a0:	fff78793          	addi	a5,a5,-1 # fffff <__BSS_END__+0xdc1cf>
   210a4:	0146d813          	srli	a6,a3,0x14
   210a8:	7ff77713          	andi	a4,a4,2047
   210ac:	7ff00893          	li	a7,2047
   210b0:	00b7f5b3          	and	a1,a5,a1
   210b4:	7ff87813          	andi	a6,a6,2047
   210b8:	00d7f7b3          	and	a5,a5,a3
   210bc:	03170063          	beq	a4,a7,210dc <__unorddf2+0x44>
   210c0:	7ff00713          	li	a4,2047
   210c4:	00000513          	li	a0,0
   210c8:	00e80463          	beq	a6,a4,210d0 <__unorddf2+0x38>
   210cc:	00008067          	ret
   210d0:	00c7e7b3          	or	a5,a5,a2
   210d4:	00f03533          	snez	a0,a5
   210d8:	00008067          	ret
   210dc:	00a5e5b3          	or	a1,a1,a0
   210e0:	00100513          	li	a0,1
   210e4:	fc058ee3          	beqz	a1,210c0 <__unorddf2+0x28>
   210e8:	00008067          	ret

000210ec <__fixdfsi>:
   210ec:	0145d793          	srli	a5,a1,0x14
   210f0:	001006b7          	lui	a3,0x100
   210f4:	fff68713          	addi	a4,a3,-1 # fffff <__BSS_END__+0xdc1cf>
   210f8:	7ff7f793          	andi	a5,a5,2047
   210fc:	3fe00613          	li	a2,1022
   21100:	00b77733          	and	a4,a4,a1
   21104:	01f5d593          	srli	a1,a1,0x1f
   21108:	00f65e63          	bge	a2,a5,21124 <__fixdfsi+0x38>
   2110c:	41d00613          	li	a2,1053
   21110:	00f65e63          	bge	a2,a5,2112c <__fixdfsi+0x40>
   21114:	80000537          	lui	a0,0x80000
   21118:	fff54513          	not	a0,a0
   2111c:	00a58533          	add	a0,a1,a0
   21120:	00008067          	ret
   21124:	00000513          	li	a0,0
   21128:	00008067          	ret
   2112c:	43300613          	li	a2,1075
   21130:	40f60633          	sub	a2,a2,a5
   21134:	01f00813          	li	a6,31
   21138:	00d76733          	or	a4,a4,a3
   2113c:	02c85063          	bge	a6,a2,2115c <__fixdfsi+0x70>
   21140:	41300693          	li	a3,1043
   21144:	40f687b3          	sub	a5,a3,a5
   21148:	00f75733          	srl	a4,a4,a5
   2114c:	40e00533          	neg	a0,a4
   21150:	fc059ce3          	bnez	a1,21128 <__fixdfsi+0x3c>
   21154:	00070513          	mv	a0,a4
   21158:	00008067          	ret
   2115c:	bed78793          	addi	a5,a5,-1043
   21160:	00f71733          	sll	a4,a4,a5
   21164:	00c55533          	srl	a0,a0,a2
   21168:	00a76733          	or	a4,a4,a0
   2116c:	fe1ff06f          	j	2114c <__fixdfsi+0x60>

00021170 <__floatsidf>:
   21170:	ff010113          	addi	sp,sp,-16
   21174:	00112623          	sw	ra,12(sp)
   21178:	00812423          	sw	s0,8(sp)
   2117c:	00912223          	sw	s1,4(sp)
   21180:	04050a63          	beqz	a0,211d4 <__floatsidf+0x64>
   21184:	41f55713          	srai	a4,a0,0x1f
   21188:	00a744b3          	xor	s1,a4,a0
   2118c:	40e484b3          	sub	s1,s1,a4
   21190:	00050793          	mv	a5,a0
   21194:	00048513          	mv	a0,s1
   21198:	01f7d413          	srli	s0,a5,0x1f
   2119c:	5cc000ef          	jal	ra,21768 <__clzsi2>
   211a0:	41e00793          	li	a5,1054
   211a4:	40a787b3          	sub	a5,a5,a0
   211a8:	00a00713          	li	a4,10
   211ac:	7ff7f793          	andi	a5,a5,2047
   211b0:	06a74063          	blt	a4,a0,21210 <__floatsidf+0xa0>
   211b4:	00b00713          	li	a4,11
   211b8:	40a70733          	sub	a4,a4,a0
   211bc:	00e4d733          	srl	a4,s1,a4
   211c0:	01550513          	addi	a0,a0,21 # 80000015 <__BSS_END__+0x7ffdc1e5>
   211c4:	00c71713          	slli	a4,a4,0xc
   211c8:	00a494b3          	sll	s1,s1,a0
   211cc:	00c75713          	srli	a4,a4,0xc
   211d0:	0140006f          	j	211e4 <__floatsidf+0x74>
   211d4:	00000413          	li	s0,0
   211d8:	00000793          	li	a5,0
   211dc:	00000713          	li	a4,0
   211e0:	00000493          	li	s1,0
   211e4:	01479793          	slli	a5,a5,0x14
   211e8:	01f41413          	slli	s0,s0,0x1f
   211ec:	00e7e7b3          	or	a5,a5,a4
   211f0:	00c12083          	lw	ra,12(sp)
   211f4:	0087e7b3          	or	a5,a5,s0
   211f8:	00812403          	lw	s0,8(sp)
   211fc:	00048513          	mv	a0,s1
   21200:	00078593          	mv	a1,a5
   21204:	00412483          	lw	s1,4(sp)
   21208:	01010113          	addi	sp,sp,16
   2120c:	00008067          	ret
   21210:	ff550513          	addi	a0,a0,-11
   21214:	00a49733          	sll	a4,s1,a0
   21218:	00c71713          	slli	a4,a4,0xc
   2121c:	00c75713          	srli	a4,a4,0xc
   21220:	00000493          	li	s1,0
   21224:	fc1ff06f          	j	211e4 <__floatsidf+0x74>

00021228 <__floatunsidf>:
   21228:	ff010113          	addi	sp,sp,-16
   2122c:	00812423          	sw	s0,8(sp)
   21230:	00112623          	sw	ra,12(sp)
   21234:	00050413          	mv	s0,a0
   21238:	04050c63          	beqz	a0,21290 <__floatunsidf+0x68>
   2123c:	52c000ef          	jal	ra,21768 <__clzsi2>
   21240:	41e00793          	li	a5,1054
   21244:	40a787b3          	sub	a5,a5,a0
   21248:	00a00713          	li	a4,10
   2124c:	7ff7f793          	andi	a5,a5,2047
   21250:	06a74463          	blt	a4,a0,212b8 <__floatunsidf+0x90>
   21254:	00b00713          	li	a4,11
   21258:	40a70733          	sub	a4,a4,a0
   2125c:	01550513          	addi	a0,a0,21
   21260:	00e45733          	srl	a4,s0,a4
   21264:	00a41433          	sll	s0,s0,a0
   21268:	00c12083          	lw	ra,12(sp)
   2126c:	00040513          	mv	a0,s0
   21270:	00c71713          	slli	a4,a4,0xc
   21274:	00812403          	lw	s0,8(sp)
   21278:	00c75713          	srli	a4,a4,0xc
   2127c:	01479793          	slli	a5,a5,0x14
   21280:	00e7e7b3          	or	a5,a5,a4
   21284:	00078593          	mv	a1,a5
   21288:	01010113          	addi	sp,sp,16
   2128c:	00008067          	ret
   21290:	00c12083          	lw	ra,12(sp)
   21294:	00040513          	mv	a0,s0
   21298:	00000793          	li	a5,0
   2129c:	00812403          	lw	s0,8(sp)
   212a0:	00000713          	li	a4,0
   212a4:	01479793          	slli	a5,a5,0x14
   212a8:	00e7e7b3          	or	a5,a5,a4
   212ac:	00078593          	mv	a1,a5
   212b0:	01010113          	addi	sp,sp,16
   212b4:	00008067          	ret
   212b8:	ff550513          	addi	a0,a0,-11
   212bc:	00a41733          	sll	a4,s0,a0
   212c0:	00000413          	li	s0,0
   212c4:	00c12083          	lw	ra,12(sp)
   212c8:	00040513          	mv	a0,s0
   212cc:	00c71713          	slli	a4,a4,0xc
   212d0:	00812403          	lw	s0,8(sp)
   212d4:	00c75713          	srli	a4,a4,0xc
   212d8:	01479793          	slli	a5,a5,0x14
   212dc:	00e7e7b3          	or	a5,a5,a4
   212e0:	00078593          	mv	a1,a5
   212e4:	01010113          	addi	sp,sp,16
   212e8:	00008067          	ret

000212ec <__trunctfdf2>:
   212ec:	00c52583          	lw	a1,12(a0)
   212f0:	00052803          	lw	a6,0(a0)
   212f4:	00852783          	lw	a5,8(a0)
   212f8:	00452683          	lw	a3,4(a0)
   212fc:	01059613          	slli	a2,a1,0x10
   21300:	fe010113          	addi	sp,sp,-32
   21304:	00159713          	slli	a4,a1,0x1
   21308:	01065613          	srli	a2,a2,0x10
   2130c:	01012023          	sw	a6,0(sp)
   21310:	00f12423          	sw	a5,8(sp)
   21314:	00b12623          	sw	a1,12(sp)
   21318:	01012823          	sw	a6,16(sp)
   2131c:	00f12c23          	sw	a5,24(sp)
   21320:	00d12223          	sw	a3,4(sp)
   21324:	00d12a23          	sw	a3,20(sp)
   21328:	00c12e23          	sw	a2,28(sp)
   2132c:	01175713          	srli	a4,a4,0x11
   21330:	01f5d593          	srli	a1,a1,0x1f
   21334:	01010813          	addi	a6,sp,16
   21338:	01c10793          	addi	a5,sp,28
   2133c:	00361513          	slli	a0,a2,0x3
   21340:	ffc7a603          	lw	a2,-4(a5)
   21344:	ffc78793          	addi	a5,a5,-4
   21348:	01d65693          	srli	a3,a2,0x1d
   2134c:	00a6e6b3          	or	a3,a3,a0
   21350:	00d7a223          	sw	a3,4(a5)
   21354:	fef814e3          	bne	a6,a5,2133c <__trunctfdf2+0x50>
   21358:	01012603          	lw	a2,16(sp)
   2135c:	00008537          	lui	a0,0x8
   21360:	00170693          	addi	a3,a4,1 # 800001 <__BSS_END__+0x7dc1d1>
   21364:	00361613          	slli	a2,a2,0x3
   21368:	ffe50513          	addi	a0,a0,-2 # 7ffe <exit-0x8096>
   2136c:	00c12823          	sw	a2,16(sp)
   21370:	00a6f6b3          	and	a3,a3,a0
   21374:	02068463          	beqz	a3,2139c <__trunctfdf2+0xb0>
   21378:	ffffc6b7          	lui	a3,0xffffc
   2137c:	40068693          	addi	a3,a3,1024 # ffffc400 <__BSS_END__+0xfffd85d0>
   21380:	00d70733          	add	a4,a4,a3
   21384:	7fe00693          	li	a3,2046
   21388:	0ce6d663          	bge	a3,a4,21454 <__trunctfdf2+0x168>
   2138c:	7ff00713          	li	a4,2047
   21390:	00000513          	li	a0,0
   21394:	00000613          	li	a2,0
   21398:	0280006f          	j	213c0 <__trunctfdf2+0xd4>
   2139c:	01412783          	lw	a5,20(sp)
   213a0:	01812683          	lw	a3,24(sp)
   213a4:	01c12503          	lw	a0,28(sp)
   213a8:	02071c63          	bnez	a4,213e0 <__trunctfdf2+0xf4>
   213ac:	00000513          	li	a0,0
   213b0:	00000613          	li	a2,0
   213b4:	00c51513          	slli	a0,a0,0xc
   213b8:	00c55513          	srli	a0,a0,0xc
   213bc:	7ff77713          	andi	a4,a4,2047
   213c0:	01471713          	slli	a4,a4,0x14
   213c4:	00a76733          	or	a4,a4,a0
   213c8:	01f59593          	slli	a1,a1,0x1f
   213cc:	00b76733          	or	a4,a4,a1
   213d0:	00060513          	mv	a0,a2
   213d4:	00070593          	mv	a1,a4
   213d8:	02010113          	addi	sp,sp,32
   213dc:	00008067          	ret
   213e0:	00d7e733          	or	a4,a5,a3
   213e4:	00a76733          	or	a4,a4,a0
   213e8:	00c76733          	or	a4,a4,a2
   213ec:	fa0700e3          	beqz	a4,2138c <__trunctfdf2+0xa0>
   213f0:	00469713          	slli	a4,a3,0x4
   213f4:	01c7d793          	srli	a5,a5,0x1c
   213f8:	01c6d693          	srli	a3,a3,0x1c
   213fc:	00451513          	slli	a0,a0,0x4
   21400:	00e7e7b3          	or	a5,a5,a4
   21404:	00a6e6b3          	or	a3,a3,a0
   21408:	00400737          	lui	a4,0x400
   2140c:	00e6e6b3          	or	a3,a3,a4
   21410:	ff87f793          	andi	a5,a5,-8
   21414:	7ff00713          	li	a4,2047
   21418:	00800637          	lui	a2,0x800
   2141c:	00c6f633          	and	a2,a3,a2
   21420:	08061e63          	bnez	a2,214bc <__trunctfdf2+0x1d0>
   21424:	01d69513          	slli	a0,a3,0x1d
   21428:	0037d793          	srli	a5,a5,0x3
   2142c:	7ff00813          	li	a6,2047
   21430:	00a7e7b3          	or	a5,a5,a0
   21434:	0036d513          	srli	a0,a3,0x3
   21438:	25071863          	bne	a4,a6,21688 <__trunctfdf2+0x39c>
   2143c:	00a7e7b3          	or	a5,a5,a0
   21440:	f40786e3          	beqz	a5,2138c <__trunctfdf2+0xa0>
   21444:	00000593          	li	a1,0
   21448:	7ff00713          	li	a4,2047
   2144c:	00080537          	lui	a0,0x80
   21450:	f71ff06f          	j	213c0 <__trunctfdf2+0xd4>
   21454:	0ce05063          	blez	a4,21514 <__trunctfdf2+0x228>
   21458:	01412683          	lw	a3,20(sp)
   2145c:	01812503          	lw	a0,24(sp)
   21460:	00469793          	slli	a5,a3,0x4
   21464:	00c7e7b3          	or	a5,a5,a2
   21468:	01c6d693          	srli	a3,a3,0x1c
   2146c:	00451613          	slli	a2,a0,0x4
   21470:	00c6e633          	or	a2,a3,a2
   21474:	01c12683          	lw	a3,28(sp)
   21478:	00f037b3          	snez	a5,a5
   2147c:	01c55513          	srli	a0,a0,0x1c
   21480:	00469693          	slli	a3,a3,0x4
   21484:	00c7e7b3          	or	a5,a5,a2
   21488:	00a6e6b3          	or	a3,a3,a0
   2148c:	0077f613          	andi	a2,a5,7
   21490:	f80604e3          	beqz	a2,21418 <__trunctfdf2+0x12c>
   21494:	00f7f613          	andi	a2,a5,15
   21498:	00400513          	li	a0,4
   2149c:	00a60a63          	beq	a2,a0,214b0 <__trunctfdf2+0x1c4>
   214a0:	00478613          	addi	a2,a5,4
   214a4:	00f637b3          	sltu	a5,a2,a5
   214a8:	00f686b3          	add	a3,a3,a5
   214ac:	00060793          	mv	a5,a2
   214b0:	00800637          	lui	a2,0x800
   214b4:	00c6f633          	and	a2,a3,a2
   214b8:	0e060a63          	beqz	a2,215ac <__trunctfdf2+0x2c0>
   214bc:	ff800637          	lui	a2,0xff800
   214c0:	fff60613          	addi	a2,a2,-1 # ff7fffff <__BSS_END__+0xff7dc1cf>
   214c4:	00170813          	addi	a6,a4,1 # 400001 <__BSS_END__+0x3dc1d1>
   214c8:	7ff00713          	li	a4,2047
   214cc:	00c6f6b3          	and	a3,a3,a2
   214d0:	00000513          	li	a0,0
   214d4:	00000613          	li	a2,0
   214d8:	eee804e3          	beq	a6,a4,213c0 <__trunctfdf2+0xd4>
   214dc:	01d69613          	slli	a2,a3,0x1d
   214e0:	7ff87713          	andi	a4,a6,2047
   214e4:	00969693          	slli	a3,a3,0x9
   214e8:	00c6d513          	srli	a0,a3,0xc
   214ec:	01471713          	slli	a4,a4,0x14
   214f0:	00a76733          	or	a4,a4,a0
   214f4:	01f59593          	slli	a1,a1,0x1f
   214f8:	0037d793          	srli	a5,a5,0x3
   214fc:	00f66633          	or	a2,a2,a5
   21500:	00b76733          	or	a4,a4,a1
   21504:	00060513          	mv	a0,a2
   21508:	00070593          	mv	a1,a4
   2150c:	02010113          	addi	sp,sp,32
   21510:	00008067          	ret
   21514:	fcc00693          	li	a3,-52
   21518:	08d74463          	blt	a4,a3,215a0 <__trunctfdf2+0x2b4>
   2151c:	03d00693          	li	a3,61
   21520:	40e686b3          	sub	a3,a3,a4
   21524:	01c12703          	lw	a4,28(sp)
   21528:	4056de13          	srai	t3,a3,0x5
   2152c:	00080eb7          	lui	t4,0x80
   21530:	00eeeeb3          	or	t4,t4,a4
   21534:	002e1513          	slli	a0,t3,0x2
   21538:	01d12e23          	sw	t4,28(sp)
   2153c:	01f6f693          	andi	a3,a3,31
   21540:	00a808b3          	add	a7,a6,a0
   21544:	00080613          	mv	a2,a6
   21548:	00000713          	li	a4,0
   2154c:	00062303          	lw	t1,0(a2)
   21550:	00460613          	addi	a2,a2,4
   21554:	00676733          	or	a4,a4,t1
   21558:	fec89ae3          	bne	a7,a2,2154c <__trunctfdf2+0x260>
   2155c:	00300613          	li	a2,3
   21560:	41c60633          	sub	a2,a2,t3
   21564:	04069e63          	bnez	a3,215c0 <__trunctfdf2+0x2d4>
   21568:	0008a883          	lw	a7,0(a7)
   2156c:	00168693          	addi	a3,a3,1
   21570:	00478793          	addi	a5,a5,4
   21574:	ff17ae23          	sw	a7,-4(a5)
   21578:	00d64e63          	blt	a2,a3,21594 <__trunctfdf2+0x2a8>
   2157c:	00a788b3          	add	a7,a5,a0
   21580:	0008a883          	lw	a7,0(a7)
   21584:	00168693          	addi	a3,a3,1
   21588:	00478793          	addi	a5,a5,4
   2158c:	ff17ae23          	sw	a7,-4(a5)
   21590:	fed656e3          	bge	a2,a3,2157c <__trunctfdf2+0x290>
   21594:	00400793          	li	a5,4
   21598:	41c787b3          	sub	a5,a5,t3
   2159c:	08c0006f          	j	21628 <__trunctfdf2+0x33c>
   215a0:	00000713          	li	a4,0
   215a4:	00500793          	li	a5,5
   215a8:	00000693          	li	a3,0
   215ac:	01d69613          	slli	a2,a3,0x1d
   215b0:	0037d793          	srli	a5,a5,0x3
   215b4:	00f66633          	or	a2,a2,a5
   215b8:	0036d513          	srli	a0,a3,0x3
   215bc:	df9ff06f          	j	213b4 <__trunctfdf2+0xc8>
   215c0:	02050893          	addi	a7,a0,32 # 80020 <__BSS_END__+0x5c1f0>
   215c4:	002888b3          	add	a7,a7,sp
   215c8:	ff08a883          	lw	a7,-16(a7)
   215cc:	02000f13          	li	t5,32
   215d0:	40df0f33          	sub	t5,t5,a3
   215d4:	01e898b3          	sll	a7,a7,t5
   215d8:	01176733          	or	a4,a4,a7
   215dc:	0a060063          	beqz	a2,2167c <__trunctfdf2+0x390>
   215e0:	00261893          	slli	a7,a2,0x2
   215e4:	00f88fb3          	add	t6,a7,a5
   215e8:	00a80633          	add	a2,a6,a0
   215ec:	00062503          	lw	a0,0(a2)
   215f0:	00462303          	lw	t1,4(a2)
   215f4:	00478793          	addi	a5,a5,4
   215f8:	00d55533          	srl	a0,a0,a3
   215fc:	01e31333          	sll	t1,t1,t5
   21600:	00656533          	or	a0,a0,t1
   21604:	fea7ae23          	sw	a0,-4(a5)
   21608:	00460613          	addi	a2,a2,4
   2160c:	feff90e3          	bne	t6,a5,215ec <__trunctfdf2+0x300>
   21610:	00400793          	li	a5,4
   21614:	41c787b3          	sub	a5,a5,t3
   21618:	02088613          	addi	a2,a7,32
   2161c:	00260633          	add	a2,a2,sp
   21620:	00dedeb3          	srl	t4,t4,a3
   21624:	ffd62823          	sw	t4,-16(a2)
   21628:	00400693          	li	a3,4
   2162c:	40f686b3          	sub	a3,a3,a5
   21630:	00269693          	slli	a3,a3,0x2
   21634:	00279793          	slli	a5,a5,0x2
   21638:	00800613          	li	a2,8
   2163c:	00f80833          	add	a6,a6,a5
   21640:	00c6ea63          	bltu	a3,a2,21654 <__trunctfdf2+0x368>
   21644:	00082023          	sw	zero,0(a6)
   21648:	00082223          	sw	zero,4(a6)
   2164c:	ff868693          	addi	a3,a3,-8
   21650:	00880813          	addi	a6,a6,8
   21654:	00400793          	li	a5,4
   21658:	00f6e463          	bltu	a3,a5,21660 <__trunctfdf2+0x374>
   2165c:	00082023          	sw	zero,0(a6)
   21660:	00e037b3          	snez	a5,a4
   21664:	01012703          	lw	a4,16(sp)
   21668:	01412683          	lw	a3,20(sp)
   2166c:	00e7e7b3          	or	a5,a5,a4
   21670:	0077f613          	andi	a2,a5,7
   21674:	00000713          	li	a4,0
   21678:	e19ff06f          	j	21490 <__trunctfdf2+0x1a4>
   2167c:	00100793          	li	a5,1
   21680:	00000893          	li	a7,0
   21684:	f95ff06f          	j	21618 <__trunctfdf2+0x32c>
   21688:	00078613          	mv	a2,a5
   2168c:	d29ff06f          	j	213b4 <__trunctfdf2+0xc8>

00021690 <__mulsi3>:
   21690:	00050613          	mv	a2,a0
   21694:	00000513          	li	a0,0
   21698:	0015f693          	andi	a3,a1,1
   2169c:	00068463          	beqz	a3,216a4 <__mulsi3+0x14>
   216a0:	00c50533          	add	a0,a0,a2
   216a4:	0015d593          	srli	a1,a1,0x1
   216a8:	00161613          	slli	a2,a2,0x1
   216ac:	fe0596e3          	bnez	a1,21698 <__mulsi3+0x8>
   216b0:	00008067          	ret

000216b4 <__divsi3>:
   216b4:	06054063          	bltz	a0,21714 <__umodsi3+0x10>
   216b8:	0605c663          	bltz	a1,21724 <__umodsi3+0x20>

000216bc <__hidden___udivsi3>:
   216bc:	00058613          	mv	a2,a1
   216c0:	00050593          	mv	a1,a0
   216c4:	fff00513          	li	a0,-1
   216c8:	02060c63          	beqz	a2,21700 <__hidden___udivsi3+0x44>
   216cc:	00100693          	li	a3,1
   216d0:	00b67a63          	bgeu	a2,a1,216e4 <__hidden___udivsi3+0x28>
   216d4:	00c05863          	blez	a2,216e4 <__hidden___udivsi3+0x28>
   216d8:	00161613          	slli	a2,a2,0x1
   216dc:	00169693          	slli	a3,a3,0x1
   216e0:	feb66ae3          	bltu	a2,a1,216d4 <__hidden___udivsi3+0x18>
   216e4:	00000513          	li	a0,0
   216e8:	00c5e663          	bltu	a1,a2,216f4 <__hidden___udivsi3+0x38>
   216ec:	40c585b3          	sub	a1,a1,a2
   216f0:	00d56533          	or	a0,a0,a3
   216f4:	0016d693          	srli	a3,a3,0x1
   216f8:	00165613          	srli	a2,a2,0x1
   216fc:	fe0696e3          	bnez	a3,216e8 <__hidden___udivsi3+0x2c>
   21700:	00008067          	ret

00021704 <__umodsi3>:
   21704:	00008293          	mv	t0,ra
   21708:	fb5ff0ef          	jal	ra,216bc <__hidden___udivsi3>
   2170c:	00058513          	mv	a0,a1
   21710:	00028067          	jr	t0
   21714:	40a00533          	neg	a0,a0
   21718:	00b04863          	bgtz	a1,21728 <__umodsi3+0x24>
   2171c:	40b005b3          	neg	a1,a1
   21720:	f9dff06f          	j	216bc <__hidden___udivsi3>
   21724:	40b005b3          	neg	a1,a1
   21728:	00008293          	mv	t0,ra
   2172c:	f91ff0ef          	jal	ra,216bc <__hidden___udivsi3>
   21730:	40a00533          	neg	a0,a0
   21734:	00028067          	jr	t0

00021738 <__modsi3>:
   21738:	00008293          	mv	t0,ra
   2173c:	0005ca63          	bltz	a1,21750 <__modsi3+0x18>
   21740:	00054c63          	bltz	a0,21758 <__modsi3+0x20>
   21744:	f79ff0ef          	jal	ra,216bc <__hidden___udivsi3>
   21748:	00058513          	mv	a0,a1
   2174c:	00028067          	jr	t0
   21750:	40b005b3          	neg	a1,a1
   21754:	fe0558e3          	bgez	a0,21744 <__modsi3+0xc>
   21758:	40a00533          	neg	a0,a0
   2175c:	f61ff0ef          	jal	ra,216bc <__hidden___udivsi3>
   21760:	40b00533          	neg	a0,a1
   21764:	00028067          	jr	t0

00021768 <__clzsi2>:
   21768:	000107b7          	lui	a5,0x10
   2176c:	02f57a63          	bgeu	a0,a5,217a0 <__clzsi2+0x38>
   21770:	10053793          	sltiu	a5,a0,256
   21774:	0017c793          	xori	a5,a5,1
   21778:	00379793          	slli	a5,a5,0x3
   2177c:	02000713          	li	a4,32
   21780:	40f70733          	sub	a4,a4,a5
   21784:	00f55533          	srl	a0,a0,a5
   21788:	00001797          	auipc	a5,0x1
   2178c:	d2878793          	addi	a5,a5,-728 # 224b0 <__clz_tab>
   21790:	00a787b3          	add	a5,a5,a0
   21794:	0007c503          	lbu	a0,0(a5)
   21798:	40a70533          	sub	a0,a4,a0
   2179c:	00008067          	ret
   217a0:	010007b7          	lui	a5,0x1000
   217a4:	02f57463          	bgeu	a0,a5,217cc <__clzsi2+0x64>
   217a8:	01000793          	li	a5,16
   217ac:	00f55533          	srl	a0,a0,a5
   217b0:	00001797          	auipc	a5,0x1
   217b4:	d0078793          	addi	a5,a5,-768 # 224b0 <__clz_tab>
   217b8:	00a787b3          	add	a5,a5,a0
   217bc:	0007c503          	lbu	a0,0(a5)
   217c0:	01000713          	li	a4,16
   217c4:	40a70533          	sub	a0,a4,a0
   217c8:	00008067          	ret
   217cc:	01800793          	li	a5,24
   217d0:	00f55533          	srl	a0,a0,a5
   217d4:	00001797          	auipc	a5,0x1
   217d8:	cdc78793          	addi	a5,a5,-804 # 224b0 <__clz_tab>
   217dc:	00a787b3          	add	a5,a5,a0
   217e0:	0007c503          	lbu	a0,0(a5)
   217e4:	00800713          	li	a4,8
   217e8:	40a70533          	sub	a0,a4,a0
   217ec:	00008067          	ret
